---
triple:          'arm64-apple-darwin'
binary-path:     '/Users/runner/work/llama.cpp/llama.cpp/build-ios-device/framework/llama.framework/llama'
relocations:
  - { offsetInCU: 0x1B984, offset: 0x1B984, size: 0x8, addend: 0x0, symName: __ZNSt3__127__tree_balance_after_insertB8ue170006IPNS_16__tree_node_baseIPvEEEEvT_S5_, symObjAddr: 0x2A04, symBinAddr: 0x6A04, symSize: 0x1B4 }
  - { offsetInCU: 0x1D97B, offset: 0x1D97B, size: 0x8, addend: 0x0, symName: __ZNSt3__120__throw_length_errorB8ue170006EPKc, symObjAddr: 0x2CF4, symBinAddr: 0x6CF4, symSize: 0x50 }
  - { offsetInCU: 0x1DCD7, offset: 0x1DCD7, size: 0x8, addend: 0x0, symName: __ZNSt3__120__throw_out_of_rangeB8ue170006EPKc, symObjAddr: 0x3188, symBinAddr: 0x7188, symSize: 0x50 }
  - { offsetInCU: 0x1E14B, offset: 0x1E14B, size: 0x8, addend: 0x0, symName: __ZSt28__throw_bad_array_new_lengthB8ue170006v, symObjAddr: 0x29DC, symBinAddr: 0x69DC, symSize: 0x28 }
  - { offsetInCU: 0x256F1, offset: 0x256F1, size: 0x8, addend: 0x0, symName: __ZNK18llama_adapter_cvec10tensor_forEi, symObjAddr: 0x0, symBinAddr: 0x4000, symSize: 0x40 }
  - { offsetInCU: 0x2575C, offset: 0x2575C, size: 0x8, addend: 0x0, symName: __ZNK18llama_adapter_cvec8apply_toEP12ggml_contextP11ggml_tensori, symObjAddr: 0x40, symBinAddr: 0x4040, symSize: 0x50 }
  - { offsetInCU: 0x257C6, offset: 0x257C6, size: 0x8, addend: 0x0, symName: __ZNK18llama_adapter_cvec8apply_toEP12ggml_contextP11ggml_tensori, symObjAddr: 0x40, symBinAddr: 0x4040, symSize: 0x50 }
  - { offsetInCU: 0x25F11, offset: 0x25F11, size: 0x8, addend: 0x0, symName: __ZN18llama_adapter_cvec4initERK11llama_model, symObjAddr: 0x90, symBinAddr: 0x4090, symSize: 0x5DC }
  - { offsetInCU: 0x281C8, offset: 0x281C8, size: 0x8, addend: 0x0, symName: __ZNSt3__16vectorINS_10unique_ptrI12ggml_context20ggml_context_deleterEENS_9allocatorIS4_EEE24__emplace_back_slow_pathIJRPS2_EEEvDpOT_, symObjAddr: 0x2BB8, symBinAddr: 0x6BB8, symSize: 0x128 }
  - { offsetInCU: 0x287CC, offset: 0x287CC, size: 0x8, addend: 0x0, symName: __ZNSt3__16vectorINS_10unique_ptrI19ggml_backend_buffer27ggml_backend_buffer_deleterEENS_9allocatorIS4_EEE7reserveEm, symObjAddr: 0x66C, symBinAddr: 0x466C, symSize: 0xE4 }
  - { offsetInCU: 0x28CB0, offset: 0x28CB0, size: 0x8, addend: 0x0, symName: __ZNSt3__16vectorINS_10unique_ptrI19ggml_backend_buffer27ggml_backend_buffer_deleterEENS_9allocatorIS4_EEE24__emplace_back_slow_pathIJRPS2_EEEvDpOT_, symObjAddr: 0x4100, symBinAddr: 0x8100, symSize: 0x128 }
  - { offsetInCU: 0x292D8, offset: 0x292D8, size: 0x8, addend: 0x0, symName: __ZNSt3__16__treeINS_12__value_typeIP24ggml_backend_buffer_typeP12ggml_contextEENS_19__map_value_compareIS3_S6_NS_4lessIS3_EELb1EEENS_9allocatorIS6_EEE7destroyEPNS_11__tree_nodeIS6_PvEE, symObjAddr: 0x40AC, symBinAddr: 0x80AC, symSize: 0x40 }
  - { offsetInCU: 0x29414, offset: 0x29414, size: 0x8, addend: 0x0, symName: __ZNKSt3__16vectorIP11ggml_tensorNS_9allocatorIS2_EEE20__throw_length_errorB8ue170006Ev, symObjAddr: 0x40EC, symBinAddr: 0x80EC, symSize: 0x14 }
  - { offsetInCU: 0x2943E, offset: 0x2943E, size: 0x8, addend: 0x0, symName: __ZNSt3__16vectorINS_10unique_ptrI19ggml_backend_buffer27ggml_backend_buffer_deleterEENS_9allocatorIS4_EEE24__emplace_back_slow_pathIJRPS2_EEEvDpOT_, symObjAddr: 0x4100, symBinAddr: 0x8100, symSize: 0x128 }
  - { offsetInCU: 0x298DE, offset: 0x298DE, size: 0x8, addend: 0x0, symName: __ZNKSt3__16vectorINS_10unique_ptrI19ggml_backend_buffer27ggml_backend_buffer_deleterEENS_9allocatorIS4_EEE20__throw_length_errorB8ue170006Ev, symObjAddr: 0x3F2C, symBinAddr: 0x7F2C, symSize: 0x14 }
  - { offsetInCU: 0x29908, offset: 0x29908, size: 0x8, addend: 0x0, symName: __ZNKSt3__16vectorIhNS_9allocatorIhEEE20__throw_length_errorB8ue170006Ev, symObjAddr: 0x3F40, symBinAddr: 0x7F40, symSize: 0x14 }
  - { offsetInCU: 0x29937, offset: 0x29937, size: 0x8, addend: 0x0, symName: __ZN18llama_adapter_cvec5applyERK11llama_modelPKfmiii, symObjAddr: 0x750, symBinAddr: 0x4750, symSize: 0x124 }
  - { offsetInCU: 0x29EEF, offset: 0x29EEF, size: 0x8, addend: 0x0, symName: __ZN18llama_adapter_lora10get_weightEP11ggml_tensor, symObjAddr: 0x874, symBinAddr: 0x4874, symSize: 0xEC }
  - { offsetInCU: 0x2A560, offset: 0x2A560, size: 0x8, addend: 0x0, symName: __ZNSt3__112__hash_tableINS_17__hash_value_typeINS_12basic_stringIcNS_11char_traitsIcEENS_9allocatorIcEEEE25llama_adapter_lora_weightEENS_22__unordered_map_hasherIS7_S9_NS_4hashIS7_EENS_8equal_toIS7_EELb1EEENS_21__unordered_map_equalIS7_S9_SE_SC_Lb1EEENS5_IS9_EEE4findIS7_EENS_15__hash_iteratorIPNS_11__hash_nodeIS9_PvEEEERKT_, symObjAddr: 0x4228, symBinAddr: 0x8228, symSize: 0x23C }
  - { offsetInCU: 0x2A7EA, offset: 0x2A7EA, size: 0x8, addend: 0x0, symName: __ZNKSt3__112basic_stringIcNS_11char_traitsIcEENS_9allocatorIcEEE20__throw_length_errorB8ue170006Ev, symObjAddr: 0x33E0, symBinAddr: 0x73E0, symSize: 0x14 }
  - { offsetInCU: 0x2A814, offset: 0x2A814, size: 0x8, addend: 0x0, symName: __ZNKSt3__16vectorIP24ggml_backend_buffer_typeNS_9allocatorIS2_EEE20__throw_length_errorB8ue170006Ev, symObjAddr: 0x33F4, symBinAddr: 0x73F4, symSize: 0x14 }
  - { offsetInCU: 0x2A81F, offset: 0x2A81F, size: 0x8, addend: 0x0, symName: __ZNSt3__112basic_stringIcNS_11char_traitsIcEENS_9allocatorIcEEEC1B8ue170006ILi0EEEPKc, symObjAddr: 0x960, symBinAddr: 0x4960, symSize: 0xA0 }
  - { offsetInCU: 0x2AB94, offset: 0x2AB94, size: 0x8, addend: 0x0, symName: _llama_adapter_lora_init, symObjAddr: 0xA00, symBinAddr: 0x4A00, symSize: 0x1FB4 }
  - { offsetInCU: 0x2CA45, offset: 0x2CA45, size: 0x8, addend: 0x0, symName: _llama_adapter_lora_init, symObjAddr: 0xA00, symBinAddr: 0x4A00, symSize: 0x1FB4 }
  - { offsetInCU: 0x35035, offset: 0x35035, size: 0x8, addend: 0x0, symName: __ZNSt3__16__treeINS_12__value_typeINS_12basic_stringIcNS_11char_traitsIcEENS_9allocatorIcEEEE25llama_adapter_lora_weightEENS_19__map_value_compareIS7_S9_NS_4lessIS7_EELb1EEENS5_IS9_EEE25__emplace_unique_key_argsIS7_JRKNS_21piecewise_construct_tENS_5tupleIJRKS7_EEENSK_IJEEEEEENS_4pairINS_15__tree_iteratorIS9_PNS_11__tree_nodeIS9_PvEElEEbEERKT_DpOT0_, symObjAddr: 0x31FC, symBinAddr: 0x71FC, symSize: 0x1E4 }
  - { offsetInCU: 0x35AA2, offset: 0x35AA2, size: 0x8, addend: 0x0, symName: __ZNSt3__112__hash_tableINS_17__hash_value_typeINS_12basic_stringIcNS_11char_traitsIcEENS_9allocatorIcEEEE25llama_adapter_lora_weightEENS_22__unordered_map_hasherIS7_S9_NS_4hashIS7_EENS_8equal_toIS7_EELb1EEENS_21__unordered_map_equalIS7_S9_SE_SC_Lb1EEENS5_IS9_EEE25__emplace_unique_key_argsIS7_JRKNS_21piecewise_construct_tENS_5tupleIJRKS7_EEENSO_IJEEEEEENS_4pairINS_15__hash_iteratorIPNS_11__hash_nodeIS9_PvEEEEbEERKT_DpOT0_, symObjAddr: 0x3408, symBinAddr: 0x7408, symSize: 0x490 }
  - { offsetInCU: 0x365FE, offset: 0x365FE, size: 0x8, addend: 0x0, symName: __ZNSt3__16vectorINS_10unique_ptrI12ggml_context20ggml_context_deleterEENS_9allocatorIS4_EEE7reserveEm, symObjAddr: 0x2D9C, symBinAddr: 0x6D9C, symSize: 0xE4 }
  - { offsetInCU: 0x36ADB, offset: 0x36ADB, size: 0x8, addend: 0x0, symName: '__ZZL28llama_adapter_lora_init_implR11llama_modelPKcR18llama_adapter_loraENK3$_5clEP11ggml_tensorS7_', symObjAddr: 0x2EB4, symBinAddr: 0x6EB4, symSize: 0x28C }
  - { offsetInCU: 0x37143, offset: 0x37143, size: 0x8, addend: 0x0, symName: __ZNSt3__110unique_ptrI12gguf_context20gguf_context_deleterED1B8ue170006Ev, symObjAddr: 0x3140, symBinAddr: 0x7140, symSize: 0x34 }
  - { offsetInCU: 0x37155, offset: 0x37155, size: 0x8, addend: 0x0, symName: __ZNSt3__16__treeINS_12__value_typeINS_12basic_stringIcNS_11char_traitsIcEENS_9allocatorIcEEEE25llama_adapter_lora_weightEENS_19__map_value_compareIS7_S9_NS_4lessIS7_EELb1EEENS5_IS9_EEE7destroyEPNS_11__tree_nodeIS9_PvEE, symObjAddr: 0x3F54, symBinAddr: 0x7F54, symSize: 0x60 }
  - { offsetInCU: 0x373CA, offset: 0x373CA, size: 0x8, addend: 0x0, symName: __ZNKSt3__112basic_stringIcNS_11char_traitsIcEENS_9allocatorIcEEE20__throw_out_of_rangeB8ue170006Ev, symObjAddr: 0x3174, symBinAddr: 0x7174, symSize: 0x14 }
  - { offsetInCU: 0x373F4, offset: 0x373F4, size: 0x8, addend: 0x0, symName: __ZNSt3__120__throw_out_of_rangeB8ue170006EPKc, symObjAddr: 0x3188, symBinAddr: 0x7188, symSize: 0x50 }
  - { offsetInCU: 0x37416, offset: 0x37416, size: 0x8, addend: 0x0, symName: __ZNKSt3__16vectorINS_10unique_ptrI12ggml_context20ggml_context_deleterEENS_9allocatorIS4_EEE20__throw_length_errorB8ue170006Ev, symObjAddr: 0x2CE0, symBinAddr: 0x6CE0, symSize: 0x14 }
  - { offsetInCU: 0x37440, offset: 0x37440, size: 0x8, addend: 0x0, symName: __ZNSt3__120__throw_length_errorB8ue170006EPKc, symObjAddr: 0x2CF4, symBinAddr: 0x6CF4, symSize: 0x50 }
  - { offsetInCU: 0x3744B, offset: 0x3744B, size: 0x8, addend: 0x0, symName: __ZNKSt3__16vectorIP24ggml_backend_buffer_typeNS_9allocatorIS2_EEE20__throw_length_errorB8ue170006Ev, symObjAddr: 0x33F4, symBinAddr: 0x73F4, symSize: 0x14 }
  - { offsetInCU: 0x37475, offset: 0x37475, size: 0x8, addend: 0x0, symName: __ZNSt3__112__hash_tableINS_17__hash_value_typeINS_12basic_stringIcNS_11char_traitsIcEENS_9allocatorIcEEEE25llama_adapter_lora_weightEENS_22__unordered_map_hasherIS7_S9_NS_4hashIS7_EENS_8equal_toIS7_EELb1EEENS_21__unordered_map_equalIS7_S9_SE_SC_Lb1EEENS5_IS9_EEE25__emplace_unique_key_argsIS7_JRKNS_21piecewise_construct_tENS_5tupleIJRKS7_EEENSO_IJEEEEEENS_4pairINS_15__hash_iteratorIPNS_11__hash_nodeIS9_PvEEEEbEERKT_DpOT0_, symObjAddr: 0x3408, symBinAddr: 0x7408, symSize: 0x490 }
  - { offsetInCU: 0x37480, offset: 0x37480, size: 0x8, addend: 0x0, symName: __ZNSt3__110unique_ptrI19ggml_backend_buffer27ggml_backend_buffer_deleterED1B8ue170006Ev, symObjAddr: 0x2E80, symBinAddr: 0x6E80, symSize: 0x34 }
  - { offsetInCU: 0x37514, offset: 0x37514, size: 0x8, addend: 0x0, symName: __ZNSt3__110unique_ptrI12ggml_context20ggml_context_deleterED1B8ue170006Ev, symObjAddr: 0x2D68, symBinAddr: 0x6D68, symSize: 0x34 }
  - { offsetInCU: 0x375A8, offset: 0x375A8, size: 0x8, addend: 0x0, symName: __ZNSt3__110unique_ptrI12gguf_context20gguf_context_deleterED1B8ue170006Ev, symObjAddr: 0x3140, symBinAddr: 0x7140, symSize: 0x34 }
  - { offsetInCU: 0x3763C, offset: 0x3763C, size: 0x8, addend: 0x0, symName: __ZN18llama_adapter_loraD2Ev, symObjAddr: 0x3FB4, symBinAddr: 0x7FB4, symSize: 0xF8 }
  - { offsetInCU: 0x37E8D, offset: 0x37E8D, size: 0x8, addend: 0x0, symName: _llama_adapter_lora_free, symObjAddr: 0x29C0, symBinAddr: 0x69C0, symSize: 0x1C }
  - { offsetInCU: 0x37EDF, offset: 0x37EDF, size: 0x8, addend: 0x0, symName: __ZNSt12length_errorC1B8ue170006EPKc, symObjAddr: 0x2D44, symBinAddr: 0x6D44, symSize: 0x24 }
  - { offsetInCU: 0x3844D, offset: 0x3844D, size: 0x8, addend: 0x0, symName: __ZNKSt3__16vectorIhNS_9allocatorIhEEE20__throw_length_errorB8ue170006Ev, symObjAddr: 0x3F40, symBinAddr: 0x7F40, symSize: 0x14 }
  - { offsetInCU: 0x38477, offset: 0x38477, size: 0x8, addend: 0x0, symName: __ZNSt3__16__treeINS_12__value_typeINS_12basic_stringIcNS_11char_traitsIcEENS_9allocatorIcEEEE25llama_adapter_lora_weightEENS_19__map_value_compareIS7_S9_NS_4lessIS7_EELb1EEENS5_IS9_EEE7destroyEPNS_11__tree_nodeIS9_PvEE, symObjAddr: 0x3F54, symBinAddr: 0x7F54, symSize: 0x60 }
  - { offsetInCU: 0x38482, offset: 0x38482, size: 0x8, addend: 0x0, symName: __ZNSt12out_of_rangeC1B8ue170006EPKc, symObjAddr: 0x31D8, symBinAddr: 0x71D8, symSize: 0x24 }
  - { offsetInCU: 0x38E9E, offset: 0x38E9E, size: 0x8, addend: 0x0, symName: __ZNKSt3__121__murmur2_or_cityhashImLm64EEclB8ue170006EPKvm, symObjAddr: 0x38E4, symBinAddr: 0x78E4, symSize: 0x49C }
  - { offsetInCU: 0x3984D, offset: 0x3984D, size: 0x8, addend: 0x0, symName: __ZNSt3__112__hash_tableINS_17__hash_value_typeINS_12basic_stringIcNS_11char_traitsIcEENS_9allocatorIcEEEE25llama_adapter_lora_weightEENS_22__unordered_map_hasherIS7_S9_NS_4hashIS7_EENS_8equal_toIS7_EELb1EEENS_21__unordered_map_equalIS7_S9_SE_SC_Lb1EEENS5_IS9_EEE11__do_rehashILb1EEEvm, symObjAddr: 0x3D80, symBinAddr: 0x7D80, symSize: 0x1AC }
  - { offsetInCU: 0x39CAD, offset: 0x39CAD, size: 0x8, addend: 0x0, symName: __ZNKSt3__16vectorINS_10unique_ptrI19ggml_backend_buffer27ggml_backend_buffer_deleterEENS_9allocatorIS4_EEE20__throw_length_errorB8ue170006Ev, symObjAddr: 0x3F2C, symBinAddr: 0x7F2C, symSize: 0x14 }
  - { offsetInCU: 0x39CC2, offset: 0x39CC2, size: 0x8, addend: 0x0, symName: __ZNSt3__110unique_ptrINS_11__hash_nodeINS_17__hash_value_typeINS_12basic_stringIcNS_11char_traitsIcEENS_9allocatorIcEEEE25llama_adapter_lora_weightEEPvEENS_22__hash_node_destructorINS6_ISC_EEEEED1B8ue170006Ev, symObjAddr: 0x3898, symBinAddr: 0x7898, symSize: 0x4C }
  - { offsetInCU: 0x52, offset: 0x3A74C, size: 0x8, addend: 0x0, symName: __MergedGlobals, symObjAddr: 0xBA3E8, symBinAddr: 0x2A3820, symSize: 0x0 }
  - { offsetInCU: 0x11B82, offset: 0x4C27C, size: 0x8, addend: 0x0, symName: __MergedGlobals, symObjAddr: 0xBA3E8, symBinAddr: 0x2A3820, symSize: 0x0 }
  - { offsetInCU: 0x11FDB, offset: 0x4C6D5, size: 0x8, addend: 0x0, symName: __ZL16LLM_TENSOR_NAMES, symObjAddr: 0xBA3D0, symBinAddr: 0x2A3808, symSize: 0x0 }
  - { offsetInCU: 0x12BC6, offset: 0x4D2C0, size: 0x8, addend: 0x0, symName: __MergedGlobals, symObjAddr: 0xBA3E8, symBinAddr: 0x2A3820, symSize: 0x0 }
  - { offsetInCU: 0x14FD7, offset: 0x4F6D1, size: 0x8, addend: 0x0, symName: __ZNSt3__13mapI8llm_archPKcNS_4lessIS1_EENS_9allocatorINS_4pairIKS1_S3_EEEEED1B8ue170006Ev, symObjAddr: 0x0, symBinAddr: 0x8464, symSize: 0x28 }
  - { offsetInCU: 0x1508B, offset: 0x4F785, size: 0x8, addend: 0x0, symName: __ZNSt3__16__treeINS_12__value_typeI8llm_archPKcEENS_19__map_value_compareIS2_S5_NS_4lessIS2_EELb1EEENS_9allocatorIS5_EEE7destroyEPNS_11__tree_nodeIS5_PvEE, symObjAddr: 0xCD8, symBinAddr: 0x8F7C, symSize: 0x40 }
  - { offsetInCU: 0x15239, offset: 0x4F933, size: 0x8, addend: 0x0, symName: __ZNSt3__13mapI6llm_kvPKcNS_4lessIS1_EENS_9allocatorINS_4pairIKS1_S3_EEEEED1B8ue170006Ev, symObjAddr: 0x28, symBinAddr: 0x848C, symSize: 0x28 }
  - { offsetInCU: 0x152ED, offset: 0x4F9E7, size: 0x8, addend: 0x0, symName: __ZNSt3__16__treeINS_12__value_typeI6llm_kvPKcEENS_19__map_value_compareIS2_S5_NS_4lessIS2_EELb1EEENS_9allocatorIS5_EEE7destroyEPNS_11__tree_nodeIS5_PvEE, symObjAddr: 0xFB0, symBinAddr: 0x9254, symSize: 0x40 }
  - { offsetInCU: 0x15787, offset: 0x4FE81, size: 0x8, addend: 0x0, symName: __ZNSt3__13mapI10llm_tensorPKcNS_4lessIS1_EENS_9allocatorINS_4pairIKS1_S3_EEEEEC2B8ue170006ESt16initializer_listIS9_ERKS5_, symObjAddr: 0xFF0, symBinAddr: 0x9294, symSize: 0xF0 }
  - { offsetInCU: 0x15B63, offset: 0x5025D, size: 0x8, addend: 0x0, symName: __ZNSt3__13mapI10llm_tensorPKcNS_4lessIS1_EENS_9allocatorINS_4pairIKS1_S3_EEEEE6insertB8ue170006INS_20__map_const_iteratorINS_21__tree_const_iteratorINS_12__value_typeIS1_S3_EEPNS_11__tree_nodeISG_PvEElEEEEEEvT_SN_, symObjAddr: 0x58C, symBinAddr: 0x89F0, symSize: 0x10C }
  - { offsetInCU: 0x15EBD, offset: 0x505B7, size: 0x8, addend: 0x0, symName: __ZNSt3__16__treeINS_12__value_typeI8llm_archNS_3mapI10llm_tensorPKcNS_4lessIS4_EENS_9allocatorINS_4pairIKS4_S6_EEEEEEEENS_19__map_value_compareIS2_SF_NS7_IS2_EELb1EEENS9_ISF_EEE30__emplace_hint_unique_key_argsIS2_JRKNSA_IKS2_SE_EEEEENSA_INS_15__tree_iteratorISF_PNS_11__tree_nodeISF_PvEElEEbEENS_21__tree_const_iteratorISF_SU_lEERKT_DpOT0_, symObjAddr: 0x10E0, symBinAddr: 0x9384, symSize: 0xF8 }
  - { offsetInCU: 0x1649A, offset: 0x50B94, size: 0x8, addend: 0x0, symName: __ZNSt3__16__treeINS_12__value_typeI10llm_tensorPKcEENS_19__map_value_compareIS2_S5_NS_4lessIS2_EELb1EEENS_9allocatorIS5_EEE7destroyEPNS_11__tree_nodeIS5_PvEE, symObjAddr: 0xA00, symBinAddr: 0x8CA4, symSize: 0x40 }
  - { offsetInCU: 0x165D6, offset: 0x50CD0, size: 0x8, addend: 0x0, symName: __ZNSt3__16__treeINS_12__value_typeI8llm_archNS_3mapI10llm_tensorPKcNS_4lessIS4_EENS_9allocatorINS_4pairIKS4_S6_EEEEEEEENS_19__map_value_compareIS2_SF_NS7_IS2_EELb1EEENS9_ISF_EEE7destroyEPNS_11__tree_nodeISF_PvEE, symObjAddr: 0x1380, symBinAddr: 0x9624, symSize: 0x4C }
  - { offsetInCU: 0x1682C, offset: 0x50F26, size: 0x8, addend: 0x0, symName: __ZNSt3__13mapI8llm_archNS0_I10llm_tensorPKcNS_4lessIS2_EENS_9allocatorINS_4pairIKS2_S4_EEEEEENS5_IS1_EENS7_INS8_IKS1_SC_EEEEED1B8ue170006Ev, symObjAddr: 0x50, symBinAddr: 0x84B4, symSize: 0x28 }
  - { offsetInCU: 0x16952, offset: 0x5104C, size: 0x8, addend: 0x0, symName: __ZNSt3__13mapI10llm_tensor15llm_tensor_infoNS_4lessIS1_EENS_9allocatorINS_4pairIKS1_S2_EEEEED1B8ue170006Ev, symObjAddr: 0x78, symBinAddr: 0x84DC, symSize: 0x28 }
  - { offsetInCU: 0x16A06, offset: 0x51100, size: 0x8, addend: 0x0, symName: __ZNSt3__16__treeINS_12__value_typeI10llm_tensor15llm_tensor_infoEENS_19__map_value_compareIS2_S4_NS_4lessIS2_EELb1EEENS_9allocatorIS4_EEE7destroyEPNS_11__tree_nodeIS4_PvEE, symObjAddr: 0x1670, symBinAddr: 0x9914, symSize: 0x40 }
  - { offsetInCU: 0x16B47, offset: 0x51241, size: 0x8, addend: 0x0, symName: __ZN6LLM_KVC2E8llm_archPKc, symObjAddr: 0xA0, symBinAddr: 0x8504, symSize: 0xC }
  - { offsetInCU: 0x16BAF, offset: 0x512A9, size: 0x8, addend: 0x0, symName: __ZN6LLM_KVC1E8llm_archPKc, symObjAddr: 0xAC, symBinAddr: 0x8510, symSize: 0xC }
  - { offsetInCU: 0x16BFB, offset: 0x512F5, size: 0x8, addend: 0x0, symName: __ZN6LLM_KVC1E8llm_archPKc, symObjAddr: 0xAC, symBinAddr: 0x8510, symSize: 0xC }
  - { offsetInCU: 0x16F70, offset: 0x5166A, size: 0x8, addend: 0x0, symName: __ZNK6LLM_KVclE6llm_kv, symObjAddr: 0xB8, symBinAddr: 0x851C, symSize: 0xF4 }
  - { offsetInCU: 0x1778D, offset: 0x51E87, size: 0x8, addend: 0x0, symName: __ZNK11LLM_TN_IMPL3strEv, symObjAddr: 0x1AC, symBinAddr: 0x8610, symSize: 0x1D0 }
  - { offsetInCU: 0x1815C, offset: 0x52856, size: 0x8, addend: 0x0, symName: __Z13llm_arch_name8llm_arch, symObjAddr: 0x37C, symBinAddr: 0x87E0, symSize: 0x5C }
  - { offsetInCU: 0x1819F, offset: 0x52899, size: 0x8, addend: 0x0, symName: __Z13llm_arch_name8llm_arch, symObjAddr: 0x37C, symBinAddr: 0x87E0, symSize: 0x5C }
  - { offsetInCU: 0x181B4, offset: 0x528AE, size: 0x8, addend: 0x0, symName: __Z13llm_arch_name8llm_arch, symObjAddr: 0x37C, symBinAddr: 0x87E0, symSize: 0x5C }
  - { offsetInCU: 0x181D2, offset: 0x528CC, size: 0x8, addend: 0x0, symName: __Z13llm_arch_name8llm_arch, symObjAddr: 0x37C, symBinAddr: 0x87E0, symSize: 0x5C }
  - { offsetInCU: 0x183A9, offset: 0x52AA3, size: 0x8, addend: 0x0, symName: __Z20llm_arch_from_stringRKNSt3__112basic_stringIcNS_11char_traitsIcEENS_9allocatorIcEEEE, symObjAddr: 0x3D8, symBinAddr: 0x883C, symSize: 0x164 }
  - { offsetInCU: 0x186B9, offset: 0x52DB3, size: 0x8, addend: 0x0, symName: __Z19llm_tensor_info_for10llm_tensor, symObjAddr: 0x53C, symBinAddr: 0x89A0, symSize: 0x50 }
  - { offsetInCU: 0x18A4A, offset: 0x53144, size: 0x8, addend: 0x0, symName: __ZNSt3__16__treeINS_12__value_typeI10llm_tensorPKcEENS_19__map_value_compareIS2_S5_NS_4lessIS2_EELb1EEENS_9allocatorIS5_EEE12__find_equalIS2_EERPNS_16__tree_node_baseIPvEENS_21__tree_const_iteratorIS5_PNS_11__tree_nodeIS5_SF_EElEERPNS_15__tree_end_nodeISH_EESI_RKT_, symObjAddr: 0x698, symBinAddr: 0x8AFC, symSize: 0x1A8 }
  - { offsetInCU: 0x18AB2, offset: 0x531AC, size: 0x8, addend: 0x0, symName: __ZNSt3__16__treeINS_12__value_typeI10llm_tensorPKcEENS_19__map_value_compareIS2_S5_NS_4lessIS2_EELb1EEENS_9allocatorIS5_EEE12__find_equalIS2_EERPNS_16__tree_node_baseIPvEENS_21__tree_const_iteratorIS5_PNS_11__tree_nodeIS5_SF_EElEERPNS_15__tree_end_nodeISH_EESI_RKT_, symObjAddr: 0x698, symBinAddr: 0x8AFC, symSize: 0x1A8 }
  - { offsetInCU: 0x18ACE, offset: 0x531C8, size: 0x8, addend: 0x0, symName: __ZNSt3__16__treeINS_12__value_typeI10llm_tensorPKcEENS_19__map_value_compareIS2_S5_NS_4lessIS2_EELb1EEENS_9allocatorIS5_EEE12__find_equalIS2_EERPNS_16__tree_node_baseIPvEENS_21__tree_const_iteratorIS5_PNS_11__tree_nodeIS5_SF_EElEERPNS_15__tree_end_nodeISH_EESI_RKT_, symObjAddr: 0x698, symBinAddr: 0x8AFC, symSize: 0x1A8 }
  - { offsetInCU: 0x1926A, offset: 0x53964, size: 0x8, addend: 0x0, symName: __ZNSt3__13mapI8llm_archPKcNS_4lessIS1_EENS_9allocatorINS_4pairIKS1_S3_EEEEEC2B8ue170006ESt16initializer_listIS9_ERKS5_, symObjAddr: 0xA40, symBinAddr: 0x8CE4, symSize: 0xF0 }
  - { offsetInCU: 0x19646, offset: 0x53D40, size: 0x8, addend: 0x0, symName: __ZNSt3__16__treeINS_12__value_typeI8llm_archPKcEENS_19__map_value_compareIS2_S5_NS_4lessIS2_EELb1EEENS_9allocatorIS5_EEE12__find_equalIS2_EERPNS_16__tree_node_baseIPvEENS_21__tree_const_iteratorIS5_PNS_11__tree_nodeIS5_SF_EElEERPNS_15__tree_end_nodeISH_EESI_RKT_, symObjAddr: 0xB30, symBinAddr: 0x8DD4, symSize: 0x1A8 }
  - { offsetInCU: 0x196AE, offset: 0x53DA8, size: 0x8, addend: 0x0, symName: __ZNSt3__16__treeINS_12__value_typeI8llm_archPKcEENS_19__map_value_compareIS2_S5_NS_4lessIS2_EELb1EEENS_9allocatorIS5_EEE12__find_equalIS2_EERPNS_16__tree_node_baseIPvEENS_21__tree_const_iteratorIS5_PNS_11__tree_nodeIS5_SF_EElEERPNS_15__tree_end_nodeISH_EESI_RKT_, symObjAddr: 0xB30, symBinAddr: 0x8DD4, symSize: 0x1A8 }
  - { offsetInCU: 0x196CA, offset: 0x53DC4, size: 0x8, addend: 0x0, symName: __ZNSt3__16__treeINS_12__value_typeI8llm_archPKcEENS_19__map_value_compareIS2_S5_NS_4lessIS2_EELb1EEENS_9allocatorIS5_EEE12__find_equalIS2_EERPNS_16__tree_node_baseIPvEENS_21__tree_const_iteratorIS5_PNS_11__tree_nodeIS5_SF_EElEERPNS_15__tree_end_nodeISH_EESI_RKT_, symObjAddr: 0xB30, symBinAddr: 0x8DD4, symSize: 0x1A8 }
  - { offsetInCU: 0x19E29, offset: 0x54523, size: 0x8, addend: 0x0, symName: __ZNSt3__13mapI6llm_kvPKcNS_4lessIS1_EENS_9allocatorINS_4pairIKS1_S3_EEEEEC2B8ue170006ESt16initializer_listIS9_ERKS5_, symObjAddr: 0xD18, symBinAddr: 0x8FBC, symSize: 0xF0 }
  - { offsetInCU: 0x1A205, offset: 0x548FF, size: 0x8, addend: 0x0, symName: __ZNSt3__16__treeINS_12__value_typeI6llm_kvPKcEENS_19__map_value_compareIS2_S5_NS_4lessIS2_EELb1EEENS_9allocatorIS5_EEE12__find_equalIS2_EERPNS_16__tree_node_baseIPvEENS_21__tree_const_iteratorIS5_PNS_11__tree_nodeIS5_SF_EElEERPNS_15__tree_end_nodeISH_EESI_RKT_, symObjAddr: 0xE08, symBinAddr: 0x90AC, symSize: 0x1A8 }
  - { offsetInCU: 0x1A26D, offset: 0x54967, size: 0x8, addend: 0x0, symName: __ZNSt3__16__treeINS_12__value_typeI6llm_kvPKcEENS_19__map_value_compareIS2_S5_NS_4lessIS2_EELb1EEENS_9allocatorIS5_EEE12__find_equalIS2_EERPNS_16__tree_node_baseIPvEENS_21__tree_const_iteratorIS5_PNS_11__tree_nodeIS5_SF_EElEERPNS_15__tree_end_nodeISH_EESI_RKT_, symObjAddr: 0xE08, symBinAddr: 0x90AC, symSize: 0x1A8 }
  - { offsetInCU: 0x1A289, offset: 0x54983, size: 0x8, addend: 0x0, symName: __ZNSt3__16__treeINS_12__value_typeI6llm_kvPKcEENS_19__map_value_compareIS2_S5_NS_4lessIS2_EELb1EEENS_9allocatorIS5_EEE12__find_equalIS2_EERPNS_16__tree_node_baseIPvEENS_21__tree_const_iteratorIS5_PNS_11__tree_nodeIS5_SF_EElEERPNS_15__tree_end_nodeISH_EESI_RKT_, symObjAddr: 0xE08, symBinAddr: 0x90AC, symSize: 0x1A8 }
  - { offsetInCU: 0x1AA65, offset: 0x5515F, size: 0x8, addend: 0x0, symName: __ZNSt3__16__treeINS_12__value_typeI8llm_archNS_3mapI10llm_tensorPKcNS_4lessIS4_EENS_9allocatorINS_4pairIKS4_S6_EEEEEEEENS_19__map_value_compareIS2_SF_NS7_IS2_EELb1EEENS9_ISF_EEE12__find_equalIS2_EERPNS_16__tree_node_baseIPvEENS_21__tree_const_iteratorISF_PNS_11__tree_nodeISF_SN_EElEERPNS_15__tree_end_nodeISP_EESQ_RKT_, symObjAddr: 0x11D8, symBinAddr: 0x947C, symSize: 0x1A8 }
  - { offsetInCU: 0x1AACD, offset: 0x551C7, size: 0x8, addend: 0x0, symName: __ZNSt3__16__treeINS_12__value_typeI8llm_archNS_3mapI10llm_tensorPKcNS_4lessIS4_EENS_9allocatorINS_4pairIKS4_S6_EEEEEEEENS_19__map_value_compareIS2_SF_NS7_IS2_EELb1EEENS9_ISF_EEE12__find_equalIS2_EERPNS_16__tree_node_baseIPvEENS_21__tree_const_iteratorISF_PNS_11__tree_nodeISF_SN_EElEERPNS_15__tree_end_nodeISP_EESQ_RKT_, symObjAddr: 0x11D8, symBinAddr: 0x947C, symSize: 0x1A8 }
  - { offsetInCU: 0x1AAE9, offset: 0x551E3, size: 0x8, addend: 0x0, symName: __ZNSt3__16__treeINS_12__value_typeI8llm_archNS_3mapI10llm_tensorPKcNS_4lessIS4_EENS_9allocatorINS_4pairIKS4_S6_EEEEEEEENS_19__map_value_compareIS2_SF_NS7_IS2_EELb1EEENS9_ISF_EEE12__find_equalIS2_EERPNS_16__tree_node_baseIPvEENS_21__tree_const_iteratorISF_PNS_11__tree_nodeISF_SN_EElEERPNS_15__tree_end_nodeISP_EESQ_RKT_, symObjAddr: 0x11D8, symBinAddr: 0x947C, symSize: 0x1A8 }
  - { offsetInCU: 0x1B260, offset: 0x5595A, size: 0x8, addend: 0x0, symName: __ZNSt3__13mapI10llm_tensor15llm_tensor_infoNS_4lessIS1_EENS_9allocatorINS_4pairIKS1_S2_EEEEEC2B8ue170006ESt16initializer_listIS8_ERKS4_, symObjAddr: 0x13CC, symBinAddr: 0x9670, symSize: 0xFC }
  - { offsetInCU: 0x1B63C, offset: 0x55D36, size: 0x8, addend: 0x0, symName: __ZNSt3__16__treeINS_12__value_typeI10llm_tensor15llm_tensor_infoEENS_19__map_value_compareIS2_S4_NS_4lessIS2_EELb1EEENS_9allocatorIS4_EEE12__find_equalIS2_EERPNS_16__tree_node_baseIPvEENS_21__tree_const_iteratorIS4_PNS_11__tree_nodeIS4_SE_EElEERPNS_15__tree_end_nodeISG_EESH_RKT_, symObjAddr: 0x14C8, symBinAddr: 0x976C, symSize: 0x1A8 }
  - { offsetInCU: 0x1B6A4, offset: 0x55D9E, size: 0x8, addend: 0x0, symName: __ZNSt3__16__treeINS_12__value_typeI10llm_tensor15llm_tensor_infoEENS_19__map_value_compareIS2_S4_NS_4lessIS2_EELb1EEENS_9allocatorIS4_EEE12__find_equalIS2_EERPNS_16__tree_node_baseIPvEENS_21__tree_const_iteratorIS4_PNS_11__tree_nodeIS4_SE_EElEERPNS_15__tree_end_nodeISG_EESH_RKT_, symObjAddr: 0x14C8, symBinAddr: 0x976C, symSize: 0x1A8 }
  - { offsetInCU: 0x1B6C0, offset: 0x55DBA, size: 0x8, addend: 0x0, symName: __ZNSt3__16__treeINS_12__value_typeI10llm_tensor15llm_tensor_infoEENS_19__map_value_compareIS2_S4_NS_4lessIS2_EELb1EEENS_9allocatorIS4_EEE12__find_equalIS2_EERPNS_16__tree_node_baseIPvEENS_21__tree_const_iteratorIS4_PNS_11__tree_nodeIS4_SE_EElEERPNS_15__tree_end_nodeISG_EESH_RKT_, symObjAddr: 0x14C8, symBinAddr: 0x976C, symSize: 0x1A8 }
  - { offsetInCU: 0xD775, offset: 0x639F5, size: 0x8, addend: 0x0, symName: '__ZNSt3__111__introsortINS_17_ClassicAlgPolicyERZN12llama_sbatchC1ERK11llama_batchmbE3$_0PxLb0EEEvT1_S9_T0_NS_15iterator_traitsIS9_E15difference_typeEb', symObjAddr: 0x42C8, symBinAddr: 0x120E0, symSize: 0x14F0 }
  - { offsetInCU: 0xE86A, offset: 0x64AEA, size: 0x8, addend: 0x0, symName: '__ZNSt3__127__insertion_sort_incompleteB8ue170006INS_17_ClassicAlgPolicyERZN12llama_sbatchC1ERK11llama_batchmbE3$_0PxEEbT1_S9_T0_', symObjAddr: 0x5DF0, symBinAddr: 0x13C08, symSize: 0x36C }
  - { offsetInCU: 0xEC0F, offset: 0x64E8F, size: 0x8, addend: 0x0, symName: '__ZNSt3__111__introsortINS_17_ClassicAlgPolicyERZN12llama_sbatchC1ERK11llama_batchmbE3$_1P16llama_sbatch_seqLb0EEEvT1_SA_T0_NS_15iterator_traitsISA_E15difference_typeEb', symObjAddr: 0x63A8, symBinAddr: 0x141C0, symSize: 0x10CC }
  - { offsetInCU: 0x10614, offset: 0x66894, size: 0x8, addend: 0x0, symName: '__ZNSt3__127__insertion_sort_incompleteB8ue170006INS_17_ClassicAlgPolicyERZN12llama_sbatchC1ERK11llama_batchmbE3$_1P16llama_sbatch_seqEEbT1_SA_T0_', symObjAddr: 0x7474, symBinAddr: 0x1528C, symSize: 0x4F0 }
  - { offsetInCU: 0x17844, offset: 0x6DAC4, size: 0x8, addend: 0x0, symName: __ZNSt3__124__put_character_sequenceB8ue170006IcNS_11char_traitsIcEEEERNS_13basic_ostreamIT_T0_EES7_PKS4_m, symObjAddr: 0x8348, symBinAddr: 0x16160, symSize: 0x164 }
  - { offsetInCU: 0x1CCB9, offset: 0x72F39, size: 0x8, addend: 0x0, symName: '__ZNSt3__17__sort3B8ue170006INS_17_ClassicAlgPolicyERZN12llama_sbatchC1ERK11llama_batchmbE3$_0PxEEjT1_S9_S9_T0_', symObjAddr: 0x5AB8, symBinAddr: 0x138D0, symSize: 0x338 }
  - { offsetInCU: 0x1D121, offset: 0x733A1, size: 0x8, addend: 0x0, symName: '__ZNSt3__17__sort4B8ue170006INS_17_ClassicAlgPolicyERZN12llama_sbatchC1ERK11llama_batchmbE3$_0PxEEvT1_S9_S9_S9_T0_', symObjAddr: 0x615C, symBinAddr: 0x13F74, symSize: 0x24C }
  - { offsetInCU: 0x1D3FC, offset: 0x7367C, size: 0x8, addend: 0x0, symName: '__ZNSt3__124__sort5_maybe_branchlessB8ue170006INS_17_ClassicAlgPolicyERZN12llama_sbatchC1ERK11llama_batchmbE3$_0PxEENS_9enable_ifIXntsr21__use_branchless_sortIT0_T1_EE5valueEvE4typeESB_SB_SB_SB_SB_SA_', symObjAddr: 0x57B8, symBinAddr: 0x135D0, symSize: 0x300 }
  - { offsetInCU: 0x1E180, offset: 0x74400, size: 0x8, addend: 0x0, symName: '__ZNSt3__17__sort4B8ue170006INS_17_ClassicAlgPolicyERZN12llama_sbatchC1ERK11llama_batchmbE3$_1P16llama_sbatch_seqEEvT1_SA_SA_SA_T0_', symObjAddr: 0x7964, symBinAddr: 0x1577C, symSize: 0x1C0 }
  - { offsetInCU: 0x1EF57, offset: 0x751D7, size: 0x8, addend: 0x0, symName: __ZNSt3__116__pad_and_outputB8ue170006IcNS_11char_traitsIcEEEENS_19ostreambuf_iteratorIT_T0_EES6_PKS4_S8_S8_RNS_8ios_baseES4_, symObjAddr: 0x84AC, symBinAddr: 0x162C4, symSize: 0x194 }
  - { offsetInCU: 0x20928, offset: 0x76BA8, size: 0x8, addend: 0x0, symName: __ZNSt3__16vectorIN12llama_sbatch11ubatch_dataENS_9allocatorIS2_EEE26__swap_out_circular_bufferERNS_14__split_bufferIS2_RS4_EE, symObjAddr: 0x38A0, symBinAddr: 0x11754, symSize: 0x114 }
  - { offsetInCU: 0x24217, offset: 0x7A497, size: 0x8, addend: 0x0, symName: __ZN12llama_sbatch14reserve_ubatchEmb, symObjAddr: 0x0, symBinAddr: 0xDEC0, symSize: 0x56C }
  - { offsetInCU: 0x25705, offset: 0x7B985, size: 0x8, addend: 0x0, symName: __ZNSt3__16vectorIN12llama_sbatch11ubatch_dataENS_9allocatorIS2_EEE21__push_back_slow_pathIS2_EEvOT_, symObjAddr: 0x36D8, symBinAddr: 0x1158C, symSize: 0x1C8 }
  - { offsetInCU: 0x25D37, offset: 0x7BFB7, size: 0x8, addend: 0x0, symName: __ZNSt3__16vectorIiNS_9allocatorIiEEE8__appendEm, symObjAddr: 0x3B3C, symBinAddr: 0x11954, symSize: 0x19C }
  - { offsetInCU: 0x261B3, offset: 0x7C433, size: 0x8, addend: 0x0, symName: __ZNKSt3__16vectorIiNS_9allocatorIiEEE20__throw_length_errorB8ue170006Ev, symObjAddr: 0x3CD8, symBinAddr: 0x11AF0, symSize: 0x14 }
  - { offsetInCU: 0x261BE, offset: 0x7C43E, size: 0x8, addend: 0x0, symName: __ZNSt3__16vectorIfNS_9allocatorIfEEE8__appendEm, symObjAddr: 0x3CEC, symBinAddr: 0x11B04, symSize: 0x19C }
  - { offsetInCU: 0x2663A, offset: 0x7C8BA, size: 0x8, addend: 0x0, symName: __ZNKSt3__16vectorIfNS_9allocatorIfEEE20__throw_length_errorB8ue170006Ev, symObjAddr: 0x3E88, symBinAddr: 0x11CA0, symSize: 0x14 }
  - { offsetInCU: 0x26645, offset: 0x7C8C5, size: 0x8, addend: 0x0, symName: __ZNSt3__16vectorIPiNS_9allocatorIS1_EEE8__appendEm, symObjAddr: 0x3E9C, symBinAddr: 0x11CB4, symSize: 0x11C }
  - { offsetInCU: 0x26AD6, offset: 0x7CD56, size: 0x8, addend: 0x0, symName: __ZNKSt3__16vectorIPiNS_9allocatorIS1_EEE20__throw_length_errorB8ue170006Ev, symObjAddr: 0x3FB8, symBinAddr: 0x11DD0, symSize: 0x14 }
  - { offsetInCU: 0x26AE1, offset: 0x7CD61, size: 0x8, addend: 0x0, symName: __ZNKSt3__16vectorIaNS_9allocatorIaEEE20__throw_length_errorB8ue170006Ev, symObjAddr: 0x3FCC, symBinAddr: 0x11DE4, symSize: 0x14 }
  - { offsetInCU: 0x26B0B, offset: 0x7CD8B, size: 0x8, addend: 0x0, symName: __ZNKSt3__16vectorIxNS_9allocatorIxEEE20__throw_length_errorB8ue170006Ev, symObjAddr: 0x3FE0, symBinAddr: 0x11DF8, symSize: 0x14 }
  - { offsetInCU: 0x26B16, offset: 0x7CD96, size: 0x8, addend: 0x0, symName: __ZN12llama_sbatch11ubatch_dataD1Ev, symObjAddr: 0x56C, symBinAddr: 0xE42C, symSize: 0x80 }
  - { offsetInCU: 0x276E4, offset: 0x7D964, size: 0x8, addend: 0x0, symName: __ZN12llama_sbatch17add_seq_to_ubatchER12llama_ubatchR16llama_sbatch_seqm, symObjAddr: 0x5EC, symBinAddr: 0xE4AC, symSize: 0x848 }
  - { offsetInCU: 0x285AE, offset: 0x7E82E, size: 0x8, addend: 0x0, symName: __ZN12llama_sbatch12split_simpleEm, symObjAddr: 0xE34, symBinAddr: 0xECF4, symSize: 0xC8 }
  - { offsetInCU: 0x285C0, offset: 0x7E840, size: 0x8, addend: 0x0, symName: __ZNKSt3__16vectorIxNS_9allocatorIxEEE20__throw_length_errorB8ue170006Ev, symObjAddr: 0x3FE0, symBinAddr: 0x11DF8, symSize: 0x14 }
  - { offsetInCU: 0x285EA, offset: 0x7E86A, size: 0x8, addend: 0x0, symName: __ZNSt3__16vectorIxNS_9allocatorIxEEE8__appendEm, symObjAddr: 0x3FF4, symBinAddr: 0x11E0C, symSize: 0x19C }
  - { offsetInCU: 0x28626, offset: 0x7E8A6, size: 0x8, addend: 0x0, symName: __ZN12llama_sbatch12split_simpleEm, symObjAddr: 0xE34, symBinAddr: 0xECF4, symSize: 0xC8 }
  - { offsetInCU: 0x28708, offset: 0x7E988, size: 0x8, addend: 0x0, symName: __ZN12llama_sbatch11split_equalEm, symObjAddr: 0xEFC, symBinAddr: 0xEDBC, symSize: 0x13C }
  - { offsetInCU: 0x2873F, offset: 0x7E9BF, size: 0x8, addend: 0x0, symName: __ZN12llama_sbatch11split_equalEm, symObjAddr: 0xEFC, symBinAddr: 0xEDBC, symSize: 0x13C }
  - { offsetInCU: 0x28884, offset: 0x7EB04, size: 0x8, addend: 0x0, symName: __ZN12llama_sbatch9split_seqEm, symObjAddr: 0x1038, symBinAddr: 0xEEF8, symSize: 0xC0 }
  - { offsetInCU: 0x28897, offset: 0x7EB17, size: 0x8, addend: 0x0, symName: __ZN12llama_sbatch9split_seqEm, symObjAddr: 0x1038, symBinAddr: 0xEEF8, symSize: 0xC0 }
  - { offsetInCU: 0x28964, offset: 0x7EBE4, size: 0x8, addend: 0x0, symName: __ZN12llama_sbatchC2ERK11llama_batchmb, symObjAddr: 0x10F8, symBinAddr: 0xEFB8, symSize: 0x3EC }
  - { offsetInCU: 0x28A89, offset: 0x7ED09, size: 0x8, addend: 0x0, symName: __ZN12llama_sbatchC1ERK11llama_batchmb, symObjAddr: 0x154C, symBinAddr: 0xF40C, symSize: 0x4 }
  - { offsetInCU: 0x28B3B, offset: 0x7EDBB, size: 0x8, addend: 0x0, symName: __ZN12llama_sbatchC1ERK11llama_batchmb, symObjAddr: 0x154C, symBinAddr: 0xF40C, symSize: 0x4 }
  - { offsetInCU: 0x2901F, offset: 0x7F29F, size: 0x8, addend: 0x0, symName: __ZN12llama_sbatchC2ERK11llama_batchmb, symObjAddr: 0x10F8, symBinAddr: 0xEFB8, symSize: 0x3EC }
  - { offsetInCU: 0x29D12, offset: 0x7FF92, size: 0x8, addend: 0x0, symName: __ZNSt3__16vectorIxNS_9allocatorIxEEE8__appendEm, symObjAddr: 0x3FF4, symBinAddr: 0x11E0C, symSize: 0x19C }
  - { offsetInCU: 0x2A18E, offset: 0x8040E, size: 0x8, addend: 0x0, symName: __ZNSt3__16vectorI16llama_sbatch_seqNS_9allocatorIS1_EEE8__appendEm, symObjAddr: 0x4190, symBinAddr: 0x11FA8, symSize: 0x124 }
  - { offsetInCU: 0x2A199, offset: 0x80419, size: 0x8, addend: 0x0, symName: __ZNSt3__16vectorI16llama_sbatch_seqNS_9allocatorIS1_EEE8__appendEm, symObjAddr: 0x4190, symBinAddr: 0x11FA8, symSize: 0x124 }
  - { offsetInCU: 0x2A65F, offset: 0x808DF, size: 0x8, addend: 0x0, symName: __ZNKSt3__16vectorI16llama_sbatch_seqNS_9allocatorIS1_EEE20__throw_length_errorB8ue170006Ev, symObjAddr: 0x42B4, symBinAddr: 0x120CC, symSize: 0x14 }
  - { offsetInCU: 0x2A66A, offset: 0x808EA, size: 0x8, addend: 0x0, symName: __ZNKSt3__16vectorI16llama_sbatch_seqNS_9allocatorIS1_EEE20__throw_length_errorB8ue170006Ev, symObjAddr: 0x42B4, symBinAddr: 0x120CC, symSize: 0x14 }
  - { offsetInCU: 0x2A694, offset: 0x80914, size: 0x8, addend: 0x0, symName: '__ZNSt3__111__introsortINS_17_ClassicAlgPolicyERZN12llama_sbatchC1ERK11llama_batchmbE3$_0PxLb0EEEvT1_S9_T0_NS_15iterator_traitsIS9_E15difference_typeEb', symObjAddr: 0x42C8, symBinAddr: 0x120E0, symSize: 0x14F0 }
  - { offsetInCU: 0x2A69F, offset: 0x8091F, size: 0x8, addend: 0x0, symName: __ZNSt3__16vectorIN12llama_sbatch11ubatch_dataENS_9allocatorIS2_EEED1B8ue170006Ev, symObjAddr: 0x14E4, symBinAddr: 0xF3A4, symSize: 0x68 }
  - { offsetInCU: 0x2A926, offset: 0x80BA6, size: 0x8, addend: 0x0, symName: __ZNSt3__19allocatorIN12llama_sbatch11ubatch_dataEE7destroyB8ue170006EPS2_, symObjAddr: 0x3AB8, symBinAddr: 0x118D0, symSize: 0x84 }
  - { offsetInCU: 0x2BB3C, offset: 0x81DBC, size: 0x8, addend: 0x0, symName: __ZN18llama_batch_allocrC2Ev, symObjAddr: 0x1550, symBinAddr: 0xF410, symSize: 0x1B0 }
  - { offsetInCU: 0x2C42C, offset: 0x826AC, size: 0x8, addend: 0x0, symName: __ZNSt3__16vectorINS_3setIiNS_4lessIiEENS_9allocatorIiEEEENS4_IS6_EEE8__appendEm, symObjAddr: 0x7B64, symBinAddr: 0x1597C, symSize: 0x208 }
  - { offsetInCU: 0x2CC32, offset: 0x82EB2, size: 0x8, addend: 0x0, symName: __ZNKSt3__16vectorINS_3setIiNS_4lessIiEENS_9allocatorIiEEEENS4_IS6_EEE20__throw_length_errorB8ue170006Ev, symObjAddr: 0x7D6C, symBinAddr: 0x15B84, symSize: 0x14 }
  - { offsetInCU: 0x2CC3D, offset: 0x82EBD, size: 0x8, addend: 0x0, symName: __ZNSt3__16vectorINS0_IbNS_9allocatorIbEEEENS1_IS3_EEE8__appendEm, symObjAddr: 0x7D80, symBinAddr: 0x15B98, symSize: 0x1DC }
  - { offsetInCU: 0x2D2E3, offset: 0x83563, size: 0x8, addend: 0x0, symName: __ZNKSt3__16vectorINS0_IbNS_9allocatorIbEEEENS1_IS3_EEE20__throw_length_errorB8ue170006Ev, symObjAddr: 0x7F5C, symBinAddr: 0x15D74, symSize: 0x14 }
  - { offsetInCU: 0x2D2EE, offset: 0x8356E, size: 0x8, addend: 0x0, symName: __ZNSt3__16vectorIbNS_9allocatorIbEEE6resizeEmb, symObjAddr: 0x1700, symBinAddr: 0xF5C0, symSize: 0x278 }
  - { offsetInCU: 0x2DB83, offset: 0x83E03, size: 0x8, addend: 0x0, symName: __ZNSt3__16vectorINS0_IbNS_9allocatorIbEEEENS1_IS3_EEED1B8ue170006Ev, symObjAddr: 0x1978, symBinAddr: 0xF838, symSize: 0x68 }
  - { offsetInCU: 0x2DE29, offset: 0x840A9, size: 0x8, addend: 0x0, symName: __ZNSt3__16vectorINS_3setIiNS_4lessIiEENS_9allocatorIiEEEENS4_IS6_EEED1B8ue170006Ev, symObjAddr: 0x19E0, symBinAddr: 0xF8A0, symSize: 0x68 }
  - { offsetInCU: 0x2E25D, offset: 0x844DD, size: 0x8, addend: 0x0, symName: __ZNSt3__16vectorIbNS_9allocatorIbEEE7reserveEm, symObjAddr: 0x7F70, symBinAddr: 0x15D88, symSize: 0x110 }
  - { offsetInCU: 0x2E640, offset: 0x848C0, size: 0x8, addend: 0x0, symName: __ZNKSt3__16vectorIbNS_9allocatorIbEEE20__throw_length_errorB8ue170006Ev, symObjAddr: 0x8080, symBinAddr: 0x15E98, symSize: 0x14 }
  - { offsetInCU: 0x2E652, offset: 0x848D2, size: 0x8, addend: 0x0, symName: __ZNKSt3__16vectorIbNS_9allocatorIbEEE20__throw_length_errorB8ue170006Ev, symObjAddr: 0x8080, symBinAddr: 0x15E98, symSize: 0x14 }
  - { offsetInCU: 0x2E67C, offset: 0x848FC, size: 0x8, addend: 0x0, symName: __ZNSt3__16vectorIaNS_9allocatorIaEEE8__appendEmRKa, symObjAddr: 0x8094, symBinAddr: 0x15EAC, symSize: 0x2B4 }
  - { offsetInCU: 0x2E8D7, offset: 0x84B57, size: 0x8, addend: 0x0, symName: __ZNSt3__16__treeIiNS_4lessIiEENS_9allocatorIiEEE7destroyEPNS_11__tree_nodeIiPvEE, symObjAddr: 0x7B24, symBinAddr: 0x1593C, symSize: 0x40 }
  - { offsetInCU: 0x2EA11, offset: 0x84C91, size: 0x8, addend: 0x0, symName: __ZN18llama_batch_allocrC1Ev, symObjAddr: 0x1A48, symBinAddr: 0xF908, symSize: 0x4 }
  - { offsetInCU: 0x2EA3F, offset: 0x84CBF, size: 0x8, addend: 0x0, symName: __ZN18llama_batch_allocrC1Ev, symObjAddr: 0x1A48, symBinAddr: 0xF908, symSize: 0x4 }
  - { offsetInCU: 0x2F490, offset: 0x85710, size: 0x8, addend: 0x0, symName: __ZN18llama_batch_allocr4initERK11llama_batchRK11llama_vocabPK14llama_memory_ib, symObjAddr: 0x1A4C, symBinAddr: 0xF90C, symSize: 0x17D0 }
  - { offsetInCU: 0x31F08, offset: 0x88188, size: 0x8, addend: 0x0, symName: __ZNSt3__16vectorIaNS_9allocatorIaEEE8__appendEmRKa, symObjAddr: 0x8094, symBinAddr: 0x15EAC, symSize: 0x2B4 }
  - { offsetInCU: 0x32413, offset: 0x88693, size: 0x8, addend: 0x0, symName: __ZNSt3__124__put_character_sequenceB8ue170006IcNS_11char_traitsIcEEEERNS_13basic_ostreamIT_T0_EES7_PKS4_m, symObjAddr: 0x8348, symBinAddr: 0x16160, symSize: 0x164 }
  - { offsetInCU: 0x32425, offset: 0x886A5, size: 0x8, addend: 0x0, symName: __ZNSt3__118basic_stringstreamIcNS_11char_traitsIcEENS_9allocatorIcEEEC1B8ue170006Ev, symObjAddr: 0x331C, symBinAddr: 0x111DC, symSize: 0x12C }
  - { offsetInCU: 0x32533, offset: 0x887B3, size: 0x8, addend: 0x0, symName: __ZNSt3__118basic_stringstreamIcNS_11char_traitsIcEENS_9allocatorIcEEED1Ev, symObjAddr: 0x3448, symBinAddr: 0x11308, symSize: 0x88 }
  - { offsetInCU: 0x326D3, offset: 0x88953, size: 0x8, addend: 0x0, symName: __ZN18llama_batch_allocr5clearEv, symObjAddr: 0x321C, symBinAddr: 0x110DC, symSize: 0x100 }
  - { offsetInCU: 0x32CB3, offset: 0x88F33, size: 0x8, addend: 0x0, symName: __ZNK18llama_batch_allocr11seq_pos_minEi, symObjAddr: 0x34D0, symBinAddr: 0x11390, symSize: 0x28 }
  - { offsetInCU: 0x32CDE, offset: 0x88F5E, size: 0x8, addend: 0x0, symName: __ZNK18llama_batch_allocr11seq_pos_minEi, symObjAddr: 0x34D0, symBinAddr: 0x11390, symSize: 0x28 }
  - { offsetInCU: 0x32D53, offset: 0x88FD3, size: 0x8, addend: 0x0, symName: __ZNK18llama_batch_allocr11seq_pos_maxEi, symObjAddr: 0x34F8, symBinAddr: 0x113B8, symSize: 0x50 }
  - { offsetInCU: 0x32D7E, offset: 0x88FFE, size: 0x8, addend: 0x0, symName: __ZNK18llama_batch_allocr11seq_pos_maxEi, symObjAddr: 0x34F8, symBinAddr: 0x113B8, symSize: 0x50 }
  - { offsetInCU: 0x32E50, offset: 0x890D0, size: 0x8, addend: 0x0, symName: __ZNK18llama_batch_allocr9get_batchEv, symObjAddr: 0x3548, symBinAddr: 0x11408, symSize: 0x4 }
  - { offsetInCU: 0x32E78, offset: 0x890F8, size: 0x8, addend: 0x0, symName: __ZNK18llama_batch_allocr13get_n_outputsEv, symObjAddr: 0x354C, symBinAddr: 0x1140C, symSize: 0x8 }
  - { offsetInCU: 0x32EA2, offset: 0x89122, size: 0x8, addend: 0x0, symName: _llama_batch_get_one, symObjAddr: 0x3554, symBinAddr: 0x11414, symSize: 0x1C }
  - { offsetInCU: 0x32EDC, offset: 0x8915C, size: 0x8, addend: 0x0, symName: _llama_batch_init, symObjAddr: 0x3570, symBinAddr: 0x11430, symSize: 0xCC }
  - { offsetInCU: 0x32F59, offset: 0x891D9, size: 0x8, addend: 0x0, symName: _llama_batch_free, symObjAddr: 0x363C, symBinAddr: 0x114FC, symSize: 0x90 }
  - { offsetInCU: 0x33255, offset: 0x894D5, size: 0x8, addend: 0x0, symName: __ZNKSt3__16vectorIN12llama_sbatch11ubatch_dataENS_9allocatorIS2_EEE20__throw_length_errorB8ue170006Ev, symObjAddr: 0x3A08, symBinAddr: 0x118BC, symSize: 0x14 }
  - { offsetInCU: 0x3328A, offset: 0x8950A, size: 0x8, addend: 0x0, symName: __ZNSt3__114__split_bufferIN12llama_sbatch11ubatch_dataERNS_9allocatorIS2_EEED1Ev, symObjAddr: 0x39B4, symBinAddr: 0x11868, symSize: 0x54 }
  - { offsetInCU: 0x337CE, offset: 0x89A4E, size: 0x8, addend: 0x0, symName: __ZNKSt3__16vectorIiNS_9allocatorIiEEE20__throw_length_errorB8ue170006Ev, symObjAddr: 0x3CD8, symBinAddr: 0x11AF0, symSize: 0x14 }
  - { offsetInCU: 0x337F8, offset: 0x89A78, size: 0x8, addend: 0x0, symName: __ZNSt3__16vectorIfNS_9allocatorIfEEE8__appendEm, symObjAddr: 0x3CEC, symBinAddr: 0x11B04, symSize: 0x19C }
  - { offsetInCU: 0x33B02, offset: 0x89D82, size: 0x8, addend: 0x0, symName: __ZNKSt3__16vectorIfNS_9allocatorIfEEE20__throw_length_errorB8ue170006Ev, symObjAddr: 0x3E88, symBinAddr: 0x11CA0, symSize: 0x14 }
  - { offsetInCU: 0x33B2C, offset: 0x89DAC, size: 0x8, addend: 0x0, symName: __ZNSt3__16vectorIPiNS_9allocatorIS1_EEE8__appendEm, symObjAddr: 0x3E9C, symBinAddr: 0x11CB4, symSize: 0x11C }
  - { offsetInCU: 0x33E36, offset: 0x8A0B6, size: 0x8, addend: 0x0, symName: __ZNKSt3__16vectorIPiNS_9allocatorIS1_EEE20__throw_length_errorB8ue170006Ev, symObjAddr: 0x3FB8, symBinAddr: 0x11DD0, symSize: 0x14 }
  - { offsetInCU: 0x33E60, offset: 0x8A0E0, size: 0x8, addend: 0x0, symName: __ZNKSt3__16vectorIaNS_9allocatorIaEEE20__throw_length_errorB8ue170006Ev, symObjAddr: 0x3FCC, symBinAddr: 0x11DE4, symSize: 0x14 }
  - { offsetInCU: 0x34831, offset: 0x8AAB1, size: 0x8, addend: 0x0, symName: __ZNKSt3__16vectorINS_3setIiNS_4lessIiEENS_9allocatorIiEEEENS4_IS6_EEE20__throw_length_errorB8ue170006Ev, symObjAddr: 0x7D6C, symBinAddr: 0x15B84, symSize: 0x14 }
  - { offsetInCU: 0x3485B, offset: 0x8AADB, size: 0x8, addend: 0x0, symName: __ZNSt3__16vectorINS0_IbNS_9allocatorIbEEEENS1_IS3_EEE8__appendEm, symObjAddr: 0x7D80, symBinAddr: 0x15B98, symSize: 0x1DC }
  - { offsetInCU: 0x34C65, offset: 0x8AEE5, size: 0x8, addend: 0x0, symName: __ZNKSt3__16vectorINS0_IbNS_9allocatorIbEEEENS1_IS3_EEE20__throw_length_errorB8ue170006Ev, symObjAddr: 0x7F5C, symBinAddr: 0x15D74, symSize: 0x14 }
  - { offsetInCU: 0x34C8F, offset: 0x8AF0F, size: 0x8, addend: 0x0, symName: __ZNSt3__16vectorIbNS_9allocatorIbEEE7reserveEm, symObjAddr: 0x7F70, symBinAddr: 0x15D88, symSize: 0x110 }
  - { offsetInCU: 0x52, offset: 0x8B646, size: 0x8, addend: 0x0, symName: __ZL18LLM_CHAT_TEMPLATES, symObjAddr: 0x95588, symBinAddr: 0x2A3868, symSize: 0x0 }
  - { offsetInCU: 0x905C, offset: 0x94650, size: 0x8, addend: 0x0, symName: __ZNSt3__1eqB8ue170006IcNS_11char_traitsIcEENS_9allocatorIcEEEEbRKNS_12basic_stringIT_T0_T1_EEPKS6_, symObjAddr: 0x45E8, symBinAddr: 0x1A874, symSize: 0x98 }
  - { offsetInCU: 0xC407, offset: 0x979FB, size: 0x8, addend: 0x0, symName: __ZNSt3__13mapINS_12basic_stringIcNS_11char_traitsIcEENS_9allocatorIcEEEE17llm_chat_templateNS_4lessIS6_EENS4_INS_4pairIKS6_S7_EEEEED1B8ue170006Ev, symObjAddr: 0x0, symBinAddr: 0x16458, symSize: 0x28 }
  - { offsetInCU: 0xC4BB, offset: 0x97AAF, size: 0x8, addend: 0x0, symName: __ZNSt3__16__treeINS_12__value_typeINS_12basic_stringIcNS_11char_traitsIcEENS_9allocatorIcEEEE17llm_chat_templateEENS_19__map_value_compareIS7_S9_NS_4lessIS7_EELb1EEENS5_IS9_EEE7destroyEPNS_11__tree_nodeIS9_PvEE, symObjAddr: 0x5148, symBinAddr: 0x1B07C, symSize: 0x60 }
  - { offsetInCU: 0xC98D, offset: 0x97F81, size: 0x8, addend: 0x0, symName: __Z26llm_chat_template_from_strRKNSt3__112basic_stringIcNS_11char_traitsIcEENS_9allocatorIcEEEE, symObjAddr: 0x28, symBinAddr: 0x16480, symSize: 0xF0 }
  - { offsetInCU: 0xCC2B, offset: 0x9821F, size: 0x8, addend: 0x0, symName: __Z24llm_chat_detect_templateRKNSt3__112basic_stringIcNS_11char_traitsIcEENS_9allocatorIcEEEE, symObjAddr: 0x118, symBinAddr: 0x16570, symSize: 0x6C0 }
  - { offsetInCU: 0xD143, offset: 0x98737, size: 0x8, addend: 0x0, symName: '__ZZ24llm_chat_detect_templateRKNSt3__112basic_stringIcNS_11char_traitsIcEENS_9allocatorIcEEEEENK3$_0clEPKc', symObjAddr: 0x7D8, symBinAddr: 0x16C30, symSize: 0xE0 }
  - { offsetInCU: 0xD33D, offset: 0x98931, size: 0x8, addend: 0x0, symName: __ZNKSt3__112basic_stringIcNS_11char_traitsIcEENS_9allocatorIcEEE4findB8ue170006EPKcm, symObjAddr: 0x8B8, symBinAddr: 0x16D10, symSize: 0xF4 }
  - { offsetInCU: 0xDCE6, offset: 0x992DA, size: 0x8, addend: 0x0, symName: __Z23llm_chat_apply_template17llm_chat_templateRKNSt3__16vectorIPK18llama_chat_messageNS0_9allocatorIS4_EEEERNS0_12basic_stringIcNS0_11char_traitsIcEENS5_IcEEEEb, symObjAddr: 0x9AC, symBinAddr: 0x16E04, symSize: 0x3A70 }
  - { offsetInCU: 0x1C8D2, offset: 0xA7EC6, size: 0x8, addend: 0x0, symName: __ZL4trimRKNSt3__112basic_stringIcNS_11char_traitsIcEENS_9allocatorIcEEEE, symObjAddr: 0x4680, symBinAddr: 0x1A90C, symSize: 0x1A8 }
  - { offsetInCU: 0x1D106, offset: 0xA86FA, size: 0x8, addend: 0x0, symName: __ZNSt3__1eqB8ue170006IcNS_11char_traitsIcEENS_9allocatorIcEEEEbRKNS_12basic_stringIT_T0_T1_EEPKS6_, symObjAddr: 0x45E8, symBinAddr: 0x1A874, symSize: 0x98 }
  - { offsetInCU: 0x1D55A, offset: 0xA8B4E, size: 0x8, addend: 0x0, symName: _llama_chat_builtin_templates, symObjAddr: 0x48B0, symBinAddr: 0x1AAB4, symSize: 0x90 }
  - { offsetInCU: 0x1DA72, offset: 0xA9066, size: 0x8, addend: 0x0, symName: __ZNSt3__16__treeINS_12__value_typeINS_12basic_stringIcNS_11char_traitsIcEENS_9allocatorIcEEEE17llm_chat_templateEENS_19__map_value_compareIS7_S9_NS_4lessIS7_EELb1EEENS5_IS9_EEE30__emplace_hint_unique_key_argsIS7_JRKNS_4pairIKS7_S8_EEEEENSH_INS_15__tree_iteratorIS9_PNS_11__tree_nodeIS9_PvEElEEbEENS_21__tree_const_iteratorIS9_SQ_lEERKT_DpOT0_, symObjAddr: 0x4A5C, symBinAddr: 0x1AB44, symSize: 0x140 }
  - { offsetInCU: 0x1E1BE, offset: 0xA97B2, size: 0x8, addend: 0x0, symName: __ZNSt3__16__treeINS_12__value_typeINS_12basic_stringIcNS_11char_traitsIcEENS_9allocatorIcEEEE17llm_chat_templateEENS_19__map_value_compareIS7_S9_NS_4lessIS7_EELb1EEENS5_IS9_EEE12__find_equalIS7_EERPNS_16__tree_node_baseIPvEENS_21__tree_const_iteratorIS9_PNS_11__tree_nodeIS9_SI_EElEERPNS_15__tree_end_nodeISK_EESL_RKT_, symObjAddr: 0x4B9C, symBinAddr: 0x1AC84, symSize: 0x3F8 }
  - { offsetInCU: 0x5C, offset: 0xAA81F, size: 0x8, addend: 0x0, symName: __ZNSt3__119piecewise_constructE, symObjAddr: 0xBED8, symBinAddr: 0x1DE8F8, symSize: 0x0 }
  - { offsetInCU: 0x29D42, offset: 0xD4505, size: 0x8, addend: 0x0, symName: __ZNK13llama_context12graph_get_cbEv, symObjAddr: 0x5B24, symBinAddr: 0x21C40, symSize: 0x14 }
  - { offsetInCU: 0x29D9E, offset: 0xD4561, size: 0x8, addend: 0x0, symName: __ZNK13llama_context12graph_get_cbEv, symObjAddr: 0x5B24, symBinAddr: 0x21C40, symSize: 0x14 }
  - { offsetInCU: 0x29DC1, offset: 0xD4584, size: 0x8, addend: 0x0, symName: __ZNK13llama_context12graph_get_cbEv, symObjAddr: 0x5B24, symBinAddr: 0x21C40, symSize: 0x14 }
  - { offsetInCU: 0x29DE4, offset: 0xD45A7, size: 0x8, addend: 0x0, symName: __ZNK13llama_context12graph_get_cbEv, symObjAddr: 0x5B24, symBinAddr: 0x21C40, symSize: 0x14 }
  - { offsetInCU: 0x29E00, offset: 0xD45C3, size: 0x8, addend: 0x0, symName: __ZNK13llama_context12graph_get_cbEv, symObjAddr: 0x5B24, symBinAddr: 0x21C40, symSize: 0x14 }
  - { offsetInCU: 0x29E1C, offset: 0xD45DF, size: 0x8, addend: 0x0, symName: __ZNK13llama_context12graph_get_cbEv, symObjAddr: 0x5B24, symBinAddr: 0x21C40, symSize: 0x14 }
  - { offsetInCU: 0x29E38, offset: 0xD45FB, size: 0x8, addend: 0x0, symName: __ZNK13llama_context12graph_get_cbEv, symObjAddr: 0x5B24, symBinAddr: 0x21C40, symSize: 0x14 }
  - { offsetInCU: 0x29E54, offset: 0xD4617, size: 0x8, addend: 0x0, symName: __ZNK13llama_context12graph_get_cbEv, symObjAddr: 0x5B24, symBinAddr: 0x21C40, symSize: 0x14 }
  - { offsetInCU: 0x2E14F, offset: 0xD8912, size: 0x8, addend: 0x0, symName: __ZN13llama_contextC2ERK11llama_model20llama_context_params, symObjAddr: 0x0, symBinAddr: 0x1C190, symSize: 0x156C }
  - { offsetInCU: 0x31AEC, offset: 0xDC2AF, size: 0x8, addend: 0x0, symName: __ZNSt3__16vectorINS_10unique_ptrI12ggml_backend20ggml_backend_deleterEENS_9allocatorIS4_EEE24__emplace_back_slow_pathIJRPS2_EEEvDpOT_, symObjAddr: 0xA09C, symBinAddr: 0x26044, symSize: 0x128 }
  - { offsetInCU: 0x32182, offset: 0xDC945, size: 0x8, addend: 0x0, symName: __ZN13llama_context14output_reserveEi, symObjAddr: 0x1610, symBinAddr: 0x1D7A0, symSize: 0x1F8 }
  - { offsetInCU: 0x3260E, offset: 0xDCDD1, size: 0x8, addend: 0x0, symName: __ZN13llama_context13graph_reserveEjjjPK20llama_memory_state_i, symObjAddr: 0x1830, symBinAddr: 0x1D9C0, symSize: 0x2DC }
  - { offsetInCU: 0x32D05, offset: 0xDD4C8, size: 0x8, addend: 0x0, symName: __ZNKSt3__16vectorINS_4pairIP12ggml_backendPFvS3_iEEENS_9allocatorIS6_EEE20__throw_length_errorB8ue170006Ev, symObjAddr: 0xA1D8, symBinAddr: 0x26180, symSize: 0x14 }
  - { offsetInCU: 0x32D3A, offset: 0xDD4FD, size: 0x8, addend: 0x0, symName: __ZNKSt3__16vectorIP12ggml_backendNS_9allocatorIS2_EEE20__throw_length_errorB8ue170006Ev, symObjAddr: 0xA200, symBinAddr: 0x26194, symSize: 0x14 }
  - { offsetInCU: 0x32D87, offset: 0xDD54A, size: 0x8, addend: 0x0, symName: __ZNKSt3__16vectorIP12ggml_backendNS_9allocatorIS2_EEE20__throw_length_errorB8ue170006Ev, symObjAddr: 0xA200, symBinAddr: 0x26194, symSize: 0x14 }
  - { offsetInCU: 0x32DAA, offset: 0xDD56D, size: 0x8, addend: 0x0, symName: __ZNSt3__112__hash_tableINS_17__hash_value_typeIP18llama_adapter_lorafEENS_22__unordered_map_hasherIS3_S4_NS_4hashIS3_EENS_8equal_toIS3_EELb1EEENS_21__unordered_map_equalIS3_S4_S9_S7_Lb1EEENS_9allocatorIS4_EEE25__emplace_unique_key_argsIS3_JRKNS_21piecewise_construct_tENS_5tupleIJRKS3_EEENSK_IJEEEEEENS_4pairINS_15__hash_iteratorIPNS_11__hash_nodeIS4_PvEEEEbEERKT_DpOT0_, symObjAddr: 0xA228, symBinAddr: 0x261A8, symSize: 0x350 }
  - { offsetInCU: 0x32E7D, offset: 0xDD640, size: 0x8, addend: 0x0, symName: __ZNSt3__16vectorINS_10unique_ptrI12ggml_backend20ggml_backend_deleterEENS_9allocatorIS4_EEED1B8ue170006Ev, symObjAddr: 0x1B74, symBinAddr: 0x1DC9C, symSize: 0x70 }
  - { offsetInCU: 0x3307F, offset: 0xDD842, size: 0x8, addend: 0x0, symName: __ZNSt3__110unique_ptrI18ggml_backend_sched26ggml_backend_sched_deleterED1B8ue170006Ev, symObjAddr: 0x1BE4, symBinAddr: 0x1DD0C, symSize: 0x34 }
  - { offsetInCU: 0x33113, offset: 0xDD8D6, size: 0x8, addend: 0x0, symName: __ZNSt3__110unique_ptrI18llama_batch_allocrNS_14default_deleteIS1_EEED1B8ue170006Ev, symObjAddr: 0x1C18, symBinAddr: 0x1DD40, symSize: 0x34 }
  - { offsetInCU: 0x331CE, offset: 0xDD991, size: 0x8, addend: 0x0, symName: __ZNSt3__16__treeINS_12__value_typeIiNS_6vectorIfNS_9allocatorIfEEEEEENS_19__map_value_compareIiS6_NS_4lessIiEELb1EEENS3_IS6_EEE7destroyEPNS_11__tree_nodeIS6_PvEE, symObjAddr: 0xA04C, symBinAddr: 0x25FF4, symSize: 0x50 }
  - { offsetInCU: 0x334AD, offset: 0xDDC70, size: 0x8, addend: 0x0, symName: __ZN11llama_crossD1Ev, symObjAddr: 0x1C4C, symBinAddr: 0x1DD74, symSize: 0x78 }
  - { offsetInCU: 0x33860, offset: 0xDE023, size: 0x8, addend: 0x0, symName: __ZNSt3__113unordered_mapIP18llama_adapter_lorafNS_4hashIS2_EENS_8equal_toIS2_EENS_9allocatorINS_4pairIKS2_fEEEEED1B8ue170006Ev, symObjAddr: 0x1CC4, symBinAddr: 0x1DDEC, symSize: 0x48 }
  - { offsetInCU: 0x33B37, offset: 0xDE2FA, size: 0x8, addend: 0x0, symName: __ZN18llama_adapter_cvecD2Ev, symObjAddr: 0x963C, symBinAddr: 0x25718, symSize: 0xC8 }
  - { offsetInCU: 0x34095, offset: 0xDE858, size: 0x8, addend: 0x0, symName: _llama_set_abort_callback, symObjAddr: 0x156C, symBinAddr: 0x1D6FC, symSize: 0xA4 }
  - { offsetInCU: 0x34613, offset: 0xDEDD6, size: 0x8, addend: 0x0, symName: __ZNK13llama_context15graph_max_nodesEv, symObjAddr: 0x1808, symBinAddr: 0x1D998, symSize: 0x28 }
  - { offsetInCU: 0x34D01, offset: 0xDF4C4, size: 0x8, addend: 0x0, symName: __ZN18llama_batch_allocrD2Ev, symObjAddr: 0x9F64, symBinAddr: 0x25F0C, symSize: 0xE8 }
  - { offsetInCU: 0x35C53, offset: 0xE0416, size: 0x8, addend: 0x0, symName: __ZN13llama_contextC1ERK11llama_model20llama_context_params, symObjAddr: 0x1D0C, symBinAddr: 0x1DE34, symSize: 0x4 }
  - { offsetInCU: 0x35C85, offset: 0xE0448, size: 0x8, addend: 0x0, symName: __ZN13llama_contextC1ERK11llama_model20llama_context_params, symObjAddr: 0x1D0C, symBinAddr: 0x1DE34, symSize: 0x4 }
  - { offsetInCU: 0x35D5E, offset: 0xE0521, size: 0x8, addend: 0x0, symName: __ZN13llama_contextD2Ev, symObjAddr: 0x1D10, symBinAddr: 0x1DE38, symSize: 0x1C0 }
  - { offsetInCU: 0x37078, offset: 0xE183B, size: 0x8, addend: 0x0, symName: __ZN13llama_contextD1Ev, symObjAddr: 0x1EDC, symBinAddr: 0x1DFF8, symSize: 0x4 }
  - { offsetInCU: 0x3709B, offset: 0xE185E, size: 0x8, addend: 0x0, symName: __ZN13llama_contextD1Ev, symObjAddr: 0x1EDC, symBinAddr: 0x1DFF8, symSize: 0x4 }
  - { offsetInCU: 0x370AE, offset: 0xE1871, size: 0x8, addend: 0x0, symName: __ZN13llama_context11synchronizeEv, symObjAddr: 0x1EE0, symBinAddr: 0x1DFFC, symSize: 0xEC }
  - { offsetInCU: 0x37143, offset: 0xE1906, size: 0x8, addend: 0x0, symName: __ZNK13llama_context9get_modelEv, symObjAddr: 0x1FCC, symBinAddr: 0x1E0E8, symSize: 0x8 }
  - { offsetInCU: 0x37165, offset: 0xE1928, size: 0x8, addend: 0x0, symName: __ZNK13llama_context11get_cparamsEv, symObjAddr: 0x1FD4, symBinAddr: 0x1E0F0, symSize: 0x8 }
  - { offsetInCU: 0x3718F, offset: 0xE1952, size: 0x8, addend: 0x0, symName: __ZNK13llama_context9get_schedEv, symObjAddr: 0x1FDC, symBinAddr: 0x1E0F8, symSize: 0x8 }
  - { offsetInCU: 0x371BC, offset: 0xE197F, size: 0x8, addend: 0x0, symName: __ZNK13llama_context9get_schedEv, symObjAddr: 0x1FDC, symBinAddr: 0x1E0F8, symSize: 0x8 }
  - { offsetInCU: 0x371D9, offset: 0xE199C, size: 0x8, addend: 0x0, symName: __ZNK13llama_context15get_ctx_computeEv, symObjAddr: 0x1FE4, symBinAddr: 0x1E100, symSize: 0x8 }
  - { offsetInCU: 0x37206, offset: 0xE19C9, size: 0x8, addend: 0x0, symName: __ZNK13llama_context15get_ctx_computeEv, symObjAddr: 0x1FE4, symBinAddr: 0x1E100, symSize: 0x8 }
  - { offsetInCU: 0x37223, offset: 0xE19E6, size: 0x8, addend: 0x0, symName: __ZNK13llama_context5n_ctxEv, symObjAddr: 0x1FEC, symBinAddr: 0x1E108, symSize: 0x8 }
  - { offsetInCU: 0x37245, offset: 0xE1A08, size: 0x8, addend: 0x0, symName: __ZNK13llama_context13n_ctx_per_seqEv, symObjAddr: 0x1FF4, symBinAddr: 0x1E110, symSize: 0x10 }
  - { offsetInCU: 0x3726F, offset: 0xE1A32, size: 0x8, addend: 0x0, symName: __ZNK13llama_context7n_batchEv, symObjAddr: 0x2004, symBinAddr: 0x1E120, symSize: 0x8 }
  - { offsetInCU: 0x37291, offset: 0xE1A54, size: 0x8, addend: 0x0, symName: __ZNK13llama_context8n_ubatchEv, symObjAddr: 0x200C, symBinAddr: 0x1E128, symSize: 0x8 }
  - { offsetInCU: 0x372B3, offset: 0xE1A76, size: 0x8, addend: 0x0, symName: __ZNK13llama_context9n_seq_maxEv, symObjAddr: 0x2014, symBinAddr: 0x1E130, symSize: 0x8 }
  - { offsetInCU: 0x372D5, offset: 0xE1A98, size: 0x8, addend: 0x0, symName: __ZNK13llama_context9n_threadsEv, symObjAddr: 0x201C, symBinAddr: 0x1E138, symSize: 0x8 }
  - { offsetInCU: 0x372F7, offset: 0xE1ABA, size: 0x8, addend: 0x0, symName: __ZNK13llama_context15n_threads_batchEv, symObjAddr: 0x2024, symBinAddr: 0x1E140, symSize: 0x8 }
  - { offsetInCU: 0x3732F, offset: 0xE1AF2, size: 0x8, addend: 0x0, symName: __ZNK13llama_context10get_memoryEv, symObjAddr: 0x202C, symBinAddr: 0x1E148, symSize: 0x8 }
  - { offsetInCU: 0x37354, offset: 0xE1B17, size: 0x8, addend: 0x0, symName: __ZNK13llama_context10get_memoryEv, symObjAddr: 0x202C, symBinAddr: 0x1E148, symSize: 0x8 }
  - { offsetInCU: 0x37371, offset: 0xE1B34, size: 0x8, addend: 0x0, symName: __ZN13llama_context20kv_self_defrag_schedEv, symObjAddr: 0x2034, symBinAddr: 0x1E150, symSize: 0x14 }
  - { offsetInCU: 0x37394, offset: 0xE1B57, size: 0x8, addend: 0x0, symName: __ZN13llama_context20kv_self_defrag_schedEv, symObjAddr: 0x2034, symBinAddr: 0x1E150, symSize: 0x14 }
  - { offsetInCU: 0x373C7, offset: 0xE1B8A, size: 0x8, addend: 0x0, symName: __ZN13llama_context14kv_self_updateEb, symObjAddr: 0x2048, symBinAddr: 0x1E164, symSize: 0x1EC }
  - { offsetInCU: 0x3772F, offset: 0xE1EF2, size: 0x8, addend: 0x0, symName: __ZNK13llama_context12pooling_typeEv, symObjAddr: 0x2234, symBinAddr: 0x1E350, symSize: 0x8 }
  - { offsetInCU: 0x37751, offset: 0xE1F14, size: 0x8, addend: 0x0, symName: __ZN13llama_context10get_logitsEv, symObjAddr: 0x223C, symBinAddr: 0x1E358, symSize: 0x8 }
  - { offsetInCU: 0x37789, offset: 0xE1F4C, size: 0x8, addend: 0x0, symName: __ZN13llama_context14get_logits_ithEi, symObjAddr: 0x2244, symBinAddr: 0x1E360, symSize: 0x2B8 }
  - { offsetInCU: 0x3798C, offset: 0xE214F, size: 0x8, addend: 0x0, symName: __ZN13llama_context14get_embeddingsEv, symObjAddr: 0x24FC, symBinAddr: 0x1E618, symSize: 0x8 }
  - { offsetInCU: 0x379AE, offset: 0xE2171, size: 0x8, addend: 0x0, symName: __ZN13llama_context18get_embeddings_ithEi, symObjAddr: 0x2504, symBinAddr: 0x1E620, symSize: 0x2BC }
  - { offsetInCU: 0x37CFB, offset: 0xE24BE, size: 0x8, addend: 0x0, symName: __ZN13llama_context18get_embeddings_seqEi, symObjAddr: 0x27C0, symBinAddr: 0x1E8DC, symSize: 0x50 }
  - { offsetInCU: 0x37D30, offset: 0xE24F3, size: 0x8, addend: 0x0, symName: __ZN13llama_context18get_embeddings_seqEi, symObjAddr: 0x27C0, symBinAddr: 0x1E8DC, symSize: 0x50 }
  - { offsetInCU: 0x37D4F, offset: 0xE2512, size: 0x8, addend: 0x0, symName: __ZN13llama_context18get_embeddings_seqEi, symObjAddr: 0x27C0, symBinAddr: 0x1E8DC, symSize: 0x50 }
  - { offsetInCU: 0x37D77, offset: 0xE253A, size: 0x8, addend: 0x0, symName: __ZN13llama_context18get_embeddings_seqEi, symObjAddr: 0x27C0, symBinAddr: 0x1E8DC, symSize: 0x50 }
  - { offsetInCU: 0x37E61, offset: 0xE2624, size: 0x8, addend: 0x0, symName: __ZN13llama_context17attach_threadpoolEP15ggml_threadpoolS1_, symObjAddr: 0x2810, symBinAddr: 0x1E92C, symSize: 0x5C }
  - { offsetInCU: 0x37EA8, offset: 0xE266B, size: 0x8, addend: 0x0, symName: __ZN13llama_context17detach_threadpoolEv, symObjAddr: 0x286C, symBinAddr: 0x1E988, symSize: 0x44 }
  - { offsetInCU: 0x37EDD, offset: 0xE26A0, size: 0x8, addend: 0x0, symName: __ZN13llama_context13set_n_threadsEii, symObjAddr: 0x28B0, symBinAddr: 0x1E9CC, symSize: 0x58 }
  - { offsetInCU: 0x37F24, offset: 0xE26E7, size: 0x8, addend: 0x0, symName: __ZN13llama_context18set_abort_callbackEPFbPvES0_, symObjAddr: 0x2908, symBinAddr: 0x1EA24, symSize: 0xA4 }
  - { offsetInCU: 0x3807A, offset: 0xE283D, size: 0x8, addend: 0x0, symName: __ZN13llama_context14set_embeddingsEb, symObjAddr: 0x29AC, symBinAddr: 0x1EAC8, symSize: 0x4C }
  - { offsetInCU: 0x380B5, offset: 0xE2878, size: 0x8, addend: 0x0, symName: __ZN13llama_context15set_causal_attnEb, symObjAddr: 0x29F8, symBinAddr: 0x1EB14, symSize: 0x4C }
  - { offsetInCU: 0x380F0, offset: 0xE28B3, size: 0x8, addend: 0x0, symName: __ZN13llama_context10set_warmupEb, symObjAddr: 0x2A44, symBinAddr: 0x1EB60, symSize: 0x4C }
  - { offsetInCU: 0x3814F, offset: 0xE2912, size: 0x8, addend: 0x0, symName: __ZN13llama_context16set_adapter_loraEP18llama_adapter_loraf, symObjAddr: 0x2A90, symBinAddr: 0x1EBAC, symSize: 0x80 }
  - { offsetInCU: 0x381F2, offset: 0xE29B5, size: 0x8, addend: 0x0, symName: __ZNSt3__112__hash_tableINS_17__hash_value_typeIP18llama_adapter_lorafEENS_22__unordered_map_hasherIS3_S4_NS_4hashIS3_EENS_8equal_toIS3_EELb1EEENS_21__unordered_map_equalIS3_S4_S9_S7_Lb1EEENS_9allocatorIS4_EEE25__emplace_unique_key_argsIS3_JRKNS_21piecewise_construct_tENS_5tupleIJRKS3_EEENSK_IJEEEEEENS_4pairINS_15__hash_iteratorIPNS_11__hash_nodeIS4_PvEEEEbEERKT_DpOT0_, symObjAddr: 0xA228, symBinAddr: 0x261A8, symSize: 0x350 }
  - { offsetInCU: 0x38AA1, offset: 0xE3264, size: 0x8, addend: 0x0, symName: __ZN13llama_context15rm_adapter_loraEP18llama_adapter_lora, symObjAddr: 0x2B10, symBinAddr: 0x1EC2C, symSize: 0x84 }
  - { offsetInCU: 0x38D28, offset: 0xE34EB, size: 0x8, addend: 0x0, symName: __ZNSt3__112__hash_tableINS_17__hash_value_typeIP18llama_adapter_lorafEENS_22__unordered_map_hasherIS3_S4_NS_4hashIS3_EENS_8equal_toIS3_EELb1EEENS_21__unordered_map_equalIS3_S4_S9_S7_Lb1EEENS_9allocatorIS4_EEE4findIS3_EENS_15__hash_iteratorIPNS_11__hash_nodeIS4_PvEEEERKT_, symObjAddr: 0xA724, symBinAddr: 0x266A4, symSize: 0x114 }
  - { offsetInCU: 0x38D85, offset: 0xE3548, size: 0x8, addend: 0x0, symName: __ZNSt3__112__hash_tableINS_17__hash_value_typeIP18llama_adapter_lorafEENS_22__unordered_map_hasherIS3_S4_NS_4hashIS3_EENS_8equal_toIS3_EELb1EEENS_21__unordered_map_equalIS3_S4_S9_S7_Lb1EEENS_9allocatorIS4_EEE4findIS3_EENS_15__hash_iteratorIPNS_11__hash_nodeIS4_PvEEEERKT_, symObjAddr: 0xA724, symBinAddr: 0x266A4, symSize: 0x114 }
  - { offsetInCU: 0x38DA1, offset: 0xE3564, size: 0x8, addend: 0x0, symName: __ZNSt3__112__hash_tableINS_17__hash_value_typeIP18llama_adapter_lorafEENS_22__unordered_map_hasherIS3_S4_NS_4hashIS3_EENS_8equal_toIS3_EELb1EEENS_21__unordered_map_equalIS3_S4_S9_S7_Lb1EEENS_9allocatorIS4_EEE4findIS3_EENS_15__hash_iteratorIPNS_11__hash_nodeIS4_PvEEEERKT_, symObjAddr: 0xA724, symBinAddr: 0x266A4, symSize: 0x114 }
  - { offsetInCU: 0x38E9C, offset: 0xE365F, size: 0x8, addend: 0x0, symName: __ZNSt3__112__hash_tableINS_17__hash_value_typeIP18llama_adapter_lorafEENS_22__unordered_map_hasherIS3_S4_NS_4hashIS3_EENS_8equal_toIS3_EELb1EEENS_21__unordered_map_equalIS3_S4_S9_S7_Lb1EEENS_9allocatorIS4_EEE6removeENS_21__hash_const_iteratorIPNS_11__hash_nodeIS4_PvEEEE, symObjAddr: 0xA838, symBinAddr: 0x267B8, symSize: 0x134 }
  - { offsetInCU: 0x38F17, offset: 0xE36DA, size: 0x8, addend: 0x0, symName: __ZNSt3__112__hash_tableINS_17__hash_value_typeIP18llama_adapter_lorafEENS_22__unordered_map_hasherIS3_S4_NS_4hashIS3_EENS_8equal_toIS3_EELb1EEENS_21__unordered_map_equalIS3_S4_S9_S7_Lb1EEENS_9allocatorIS4_EEE6removeENS_21__hash_const_iteratorIPNS_11__hash_nodeIS4_PvEEEE, symObjAddr: 0xA838, symBinAddr: 0x267B8, symSize: 0x134 }
  - { offsetInCU: 0x38F33, offset: 0xE36F6, size: 0x8, addend: 0x0, symName: __ZNSt3__112__hash_tableINS_17__hash_value_typeIP18llama_adapter_lorafEENS_22__unordered_map_hasherIS3_S4_NS_4hashIS3_EENS_8equal_toIS3_EELb1EEENS_21__unordered_map_equalIS3_S4_S9_S7_Lb1EEENS_9allocatorIS4_EEE6removeENS_21__hash_const_iteratorIPNS_11__hash_nodeIS4_PvEEEE, symObjAddr: 0xA838, symBinAddr: 0x267B8, symSize: 0x134 }
  - { offsetInCU: 0x3921D, offset: 0xE39E0, size: 0x8, addend: 0x0, symName: __ZN13llama_context18clear_adapter_loraEv, symObjAddr: 0x2B94, symBinAddr: 0x1ECB0, symSize: 0x88 }
  - { offsetInCU: 0x3945C, offset: 0xE3C1F, size: 0x8, addend: 0x0, symName: __ZN13llama_context18apply_adapter_cvecEPKfmiii, symObjAddr: 0x2C1C, symBinAddr: 0x1ED38, symSize: 0x84 }
  - { offsetInCU: 0x395FD, offset: 0xE3DC0, size: 0x8, addend: 0x0, symName: __ZN13llama_context14process_ubatchERK12llama_ubatch14llm_graph_typeP20llama_memory_state_iR11ggml_status, symObjAddr: 0x2CA0, symBinAddr: 0x1EDBC, symSize: 0x358 }
  - { offsetInCU: 0x39CB9, offset: 0xE447C, size: 0x8, addend: 0x0, symName: __ZN13llama_context13graph_computeEP11ggml_cgraphb, symObjAddr: 0x319C, symBinAddr: 0x1F2B8, symSize: 0xE0 }
  - { offsetInCU: 0x39E78, offset: 0xE463B, size: 0x8, addend: 0x0, symName: __ZN13llama_context10graph_initEv, symObjAddr: 0x2FF8, symBinAddr: 0x1F114, symSize: 0x84 }
  - { offsetInCU: 0x39F7C, offset: 0xE473F, size: 0x8, addend: 0x0, symName: __ZN13llama_context11graph_buildEP12ggml_contextP11ggml_cgraphRK12llama_ubatch14llm_graph_typePK20llama_memory_state_i, symObjAddr: 0x307C, symBinAddr: 0x1F198, symSize: 0x120 }
  - { offsetInCU: 0x3AD7B, offset: 0xE553E, size: 0x8, addend: 0x0, symName: __ZN13llama_context6encodeERK11llama_batch, symObjAddr: 0x327C, symBinAddr: 0x1F398, symSize: 0xCE4 }
  - { offsetInCU: 0x3DCDF, offset: 0xE84A2, size: 0x8, addend: 0x0, symName: __ZN12llama_sbatchD1Ev, symObjAddr: 0x3F60, symBinAddr: 0x2007C, symSize: 0x98 }
  - { offsetInCU: 0x3E60E, offset: 0xE8DD1, size: 0x8, addend: 0x0, symName: __ZN13llama_context6decodeERK11llama_batch, symObjAddr: 0x3FF8, symBinAddr: 0x20114, symSize: 0x1B2C }
  - { offsetInCU: 0x41529, offset: 0xEBCEC, size: 0x8, addend: 0x0, symName: __ZN13llama_context14state_get_sizeEv, symObjAddr: 0x5B38, symBinAddr: 0x21C54, symSize: 0xA0 }
  - { offsetInCU: 0x415EC, offset: 0xEBDAF, size: 0x8, addend: 0x0, symName: __ZN13llama_context16state_write_dataER16llama_io_write_i, symObjAddr: 0x5BD8, symBinAddr: 0x21CF4, symSize: 0x344 }
  - { offsetInCU: 0x422D8, offset: 0xECA9B, size: 0x8, addend: 0x0, symName: __ZN20llama_io_write_dummyD1Ev, symObjAddr: 0x5F1C, symBinAddr: 0x22038, symSize: 0x4 }
  - { offsetInCU: 0x4244F, offset: 0xECC12, size: 0x8, addend: 0x0, symName: __ZN13llama_context14state_get_dataEPhm, symObjAddr: 0x5F20, symBinAddr: 0x2203C, symSize: 0xA4 }
  - { offsetInCU: 0x4254E, offset: 0xECD11, size: 0x8, addend: 0x0, symName: __ZN21llama_io_write_bufferD1Ev, symObjAddr: 0x5FC4, symBinAddr: 0x220E0, symSize: 0x4 }
  - { offsetInCU: 0x426BF, offset: 0xECE82, size: 0x8, addend: 0x0, symName: __ZN13llama_context14state_set_dataEPKhm, symObjAddr: 0x5FC8, symBinAddr: 0x220E4, symSize: 0xA4 }
  - { offsetInCU: 0x427BE, offset: 0xECF81, size: 0x8, addend: 0x0, symName: __ZN13llama_context15state_read_dataER15llama_io_read_i, symObjAddr: 0x606C, symBinAddr: 0x22188, symSize: 0x570 }
  - { offsetInCU: 0x43B66, offset: 0xEE329, size: 0x8, addend: 0x0, symName: __ZN20llama_io_read_bufferD1Ev, symObjAddr: 0x65DC, symBinAddr: 0x226F8, symSize: 0x4 }
  - { offsetInCU: 0x43BC3, offset: 0xEE386, size: 0x8, addend: 0x0, symName: __ZN13llama_context18state_seq_get_sizeEi, symObjAddr: 0x65E0, symBinAddr: 0x226FC, symSize: 0xC4 }
  - { offsetInCU: 0x43CE9, offset: 0xEE4AC, size: 0x8, addend: 0x0, symName: __ZN13llama_context20state_seq_write_dataER16llama_io_write_ii, symObjAddr: 0x66A4, symBinAddr: 0x227C0, symSize: 0x40 }
  - { offsetInCU: 0x43D63, offset: 0xEE526, size: 0x8, addend: 0x0, symName: __ZN13llama_context18state_seq_get_dataEiPhm, symObjAddr: 0x66E4, symBinAddr: 0x22800, symSize: 0xCC }
  - { offsetInCU: 0x43EF6, offset: 0xEE6B9, size: 0x8, addend: 0x0, symName: __ZN13llama_context18state_seq_set_dataEiPKhm, symObjAddr: 0x67B0, symBinAddr: 0x228CC, symSize: 0xCC }
  - { offsetInCU: 0x44058, offset: 0xEE81B, size: 0x8, addend: 0x0, symName: __ZN13llama_context19state_seq_read_dataER15llama_io_read_ii, symObjAddr: 0x687C, symBinAddr: 0x22998, symSize: 0x40 }
  - { offsetInCU: 0x44377, offset: 0xEEB3A, size: 0x8, addend: 0x0, symName: __ZN13llama_context15state_load_fileEPKcPimPm, symObjAddr: 0x68BC, symBinAddr: 0x229D8, symSize: 0x1C4 }
  - { offsetInCU: 0x44854, offset: 0xEF017, size: 0x8, addend: 0x0, symName: __ZN18llama_io_read_fileD1Ev, symObjAddr: 0x6A80, symBinAddr: 0x22B9C, symSize: 0x40 }
  - { offsetInCU: 0x44B3E, offset: 0xEF301, size: 0x8, addend: 0x0, symName: __ZN13llama_context15state_save_fileEPKcPKim, symObjAddr: 0x6AC0, symBinAddr: 0x22BDC, symSize: 0xF8 }
  - { offsetInCU: 0x44F27, offset: 0xEF6EA, size: 0x8, addend: 0x0, symName: __ZN19llama_io_write_fileD1Ev, symObjAddr: 0x6BB8, symBinAddr: 0x22CD4, symSize: 0x40 }
  - { offsetInCU: 0x450A9, offset: 0xEF86C, size: 0x8, addend: 0x0, symName: __ZN13llama_context19state_seq_load_fileEiPKcPimPm, symObjAddr: 0x6BF8, symBinAddr: 0x22D14, symSize: 0x264 }
  - { offsetInCU: 0x45603, offset: 0xEFDC6, size: 0x8, addend: 0x0, symName: __ZN13llama_context19state_seq_save_fileEiPKcPKim, symObjAddr: 0x6E5C, symBinAddr: 0x22F78, symSize: 0x184 }
  - { offsetInCU: 0x45ACB, offset: 0xF028E, size: 0x8, addend: 0x0, symName: __ZN19llama_io_write_file7n_bytesEv, symObjAddr: 0x6FE0, symBinAddr: 0x230FC, symSize: 0x8 }
  - { offsetInCU: 0x45AED, offset: 0xF02B0, size: 0x8, addend: 0x0, symName: __ZNK13llama_context13perf_get_dataEv, symObjAddr: 0x6FE8, symBinAddr: 0x23104, symSize: 0x40 }
  - { offsetInCU: 0x45B76, offset: 0xF0339, size: 0x8, addend: 0x0, symName: __ZN13llama_context10perf_resetEv, symObjAddr: 0x7028, symBinAddr: 0x23144, symSize: 0x30 }
  - { offsetInCU: 0x45C42, offset: 0xF0405, size: 0x8, addend: 0x0, symName: __ZN13llama_context8opt_initEP11llama_model16llama_opt_params, symObjAddr: 0x7058, symBinAddr: 0x23174, symSize: 0x610 }
  - { offsetInCU: 0x46328, offset: 0xF0AEB, size: 0x8, addend: 0x0, symName: __ZN13llama_context14opt_epoch_iterEP16ggml_opt_datasetP15ggml_opt_resultRKNSt3__16vectorIiNS4_9allocatorIiEEEESA_R11llama_batchPFvbP16ggml_opt_contextS1_S3_xxxEbxxx, symObjAddr: 0x7668, symBinAddr: 0x23784, symSize: 0x6AC }
  - { offsetInCU: 0x46409, offset: 0xF0BCC, size: 0x8, addend: 0x0, symName: __ZN13llama_context14opt_epoch_iterEP16ggml_opt_datasetP15ggml_opt_resultRKNSt3__16vectorIiNS4_9allocatorIiEEEESA_R11llama_batchPFvbP16ggml_opt_contextS1_S3_xxxEbxxx, symObjAddr: 0x7668, symBinAddr: 0x23784, symSize: 0x6AC }
  - { offsetInCU: 0x473CC, offset: 0xF1B8F, size: 0x8, addend: 0x0, symName: __ZN13llama_context9opt_epochEP16ggml_opt_datasetP15ggml_opt_resultS3_xPFvbP16ggml_opt_contextS1_S3_xxxES7_, symObjAddr: 0x7D14, symBinAddr: 0x23E30, symSize: 0x2B0 }
  - { offsetInCU: 0x47FCD, offset: 0xF2790, size: 0x8, addend: 0x0, symName: _llama_context_default_params, symObjAddr: 0x7FC4, symBinAddr: 0x240E0, symSize: 0x34 }
  - { offsetInCU: 0x4802B, offset: 0xF27EE, size: 0x8, addend: 0x0, symName: _llama_init_from_model, symObjAddr: 0x7FF8, symBinAddr: 0x24114, symSize: 0x1D0 }
  - { offsetInCU: 0x48136, offset: 0xF28F9, size: 0x8, addend: 0x0, symName: _llama_new_context_with_model, symObjAddr: 0x81C8, symBinAddr: 0x242E4, symSize: 0x48 }
  - { offsetInCU: 0x481AA, offset: 0xF296D, size: 0x8, addend: 0x0, symName: _llama_free, symObjAddr: 0x8210, symBinAddr: 0x2432C, symSize: 0x1C }
  - { offsetInCU: 0x481FC, offset: 0xF29BF, size: 0x8, addend: 0x0, symName: _llama_n_ctx, symObjAddr: 0x822C, symBinAddr: 0x24348, symSize: 0x8 }
  - { offsetInCU: 0x4822B, offset: 0xF29EE, size: 0x8, addend: 0x0, symName: _llama_n_ctx, symObjAddr: 0x822C, symBinAddr: 0x24348, symSize: 0x8 }
  - { offsetInCU: 0x48245, offset: 0xF2A08, size: 0x8, addend: 0x0, symName: _llama_n_batch, symObjAddr: 0x8234, symBinAddr: 0x24350, symSize: 0x8 }
  - { offsetInCU: 0x48274, offset: 0xF2A37, size: 0x8, addend: 0x0, symName: _llama_n_batch, symObjAddr: 0x8234, symBinAddr: 0x24350, symSize: 0x8 }
  - { offsetInCU: 0x482A7, offset: 0xF2A6A, size: 0x8, addend: 0x0, symName: _llama_n_ubatch, symObjAddr: 0x823C, symBinAddr: 0x24358, symSize: 0x8 }
  - { offsetInCU: 0x482D6, offset: 0xF2A99, size: 0x8, addend: 0x0, symName: _llama_n_ubatch, symObjAddr: 0x823C, symBinAddr: 0x24358, symSize: 0x8 }
  - { offsetInCU: 0x482F0, offset: 0xF2AB3, size: 0x8, addend: 0x0, symName: _llama_n_seq_max, symObjAddr: 0x8244, symBinAddr: 0x24360, symSize: 0x8 }
  - { offsetInCU: 0x4831F, offset: 0xF2AE2, size: 0x8, addend: 0x0, symName: _llama_n_seq_max, symObjAddr: 0x8244, symBinAddr: 0x24360, symSize: 0x8 }
  - { offsetInCU: 0x48352, offset: 0xF2B15, size: 0x8, addend: 0x0, symName: _llama_get_model, symObjAddr: 0x824C, symBinAddr: 0x24368, symSize: 0x8 }
  - { offsetInCU: 0x48381, offset: 0xF2B44, size: 0x8, addend: 0x0, symName: _llama_get_model, symObjAddr: 0x824C, symBinAddr: 0x24368, symSize: 0x8 }
  - { offsetInCU: 0x483B4, offset: 0xF2B77, size: 0x8, addend: 0x0, symName: _llama_get_kv_self, symObjAddr: 0x8254, symBinAddr: 0x24370, symSize: 0x24 }
  - { offsetInCU: 0x483E3, offset: 0xF2BA6, size: 0x8, addend: 0x0, symName: _llama_get_kv_self, symObjAddr: 0x8254, symBinAddr: 0x24370, symSize: 0x24 }
  - { offsetInCU: 0x483FF, offset: 0xF2BC2, size: 0x8, addend: 0x0, symName: _llama_get_kv_self, symObjAddr: 0x8254, symBinAddr: 0x24370, symSize: 0x24 }
  - { offsetInCU: 0x4841D, offset: 0xF2BE0, size: 0x8, addend: 0x0, symName: _llama_kv_self_update, symObjAddr: 0x8278, symBinAddr: 0x24394, symSize: 0x8 }
  - { offsetInCU: 0x48478, offset: 0xF2C3B, size: 0x8, addend: 0x0, symName: _llama_pooling_type, symObjAddr: 0x8280, symBinAddr: 0x2439C, symSize: 0x8 }
  - { offsetInCU: 0x484A7, offset: 0xF2C6A, size: 0x8, addend: 0x0, symName: _llama_pooling_type, symObjAddr: 0x8280, symBinAddr: 0x2439C, symSize: 0x8 }
  - { offsetInCU: 0x484F2, offset: 0xF2CB5, size: 0x8, addend: 0x0, symName: _llama_attach_threadpool, symObjAddr: 0x8288, symBinAddr: 0x243A4, symSize: 0x5C }
  - { offsetInCU: 0x48591, offset: 0xF2D54, size: 0x8, addend: 0x0, symName: _llama_detach_threadpool, symObjAddr: 0x82E4, symBinAddr: 0x24400, symSize: 0x44 }
  - { offsetInCU: 0x4861A, offset: 0xF2DDD, size: 0x8, addend: 0x0, symName: _llama_set_n_threads, symObjAddr: 0x8328, symBinAddr: 0x24444, symSize: 0x58 }
  - { offsetInCU: 0x486B9, offset: 0xF2E7C, size: 0x8, addend: 0x0, symName: _llama_n_threads, symObjAddr: 0x8380, symBinAddr: 0x2449C, symSize: 0x8 }
  - { offsetInCU: 0x486E8, offset: 0xF2EAB, size: 0x8, addend: 0x0, symName: _llama_n_threads, symObjAddr: 0x8380, symBinAddr: 0x2449C, symSize: 0x8 }
  - { offsetInCU: 0x4871B, offset: 0xF2EDE, size: 0x8, addend: 0x0, symName: _llama_n_threads_batch, symObjAddr: 0x8388, symBinAddr: 0x244A4, symSize: 0x8 }
  - { offsetInCU: 0x4874A, offset: 0xF2F0D, size: 0x8, addend: 0x0, symName: _llama_n_threads_batch, symObjAddr: 0x8388, symBinAddr: 0x244A4, symSize: 0x8 }
  - { offsetInCU: 0x48789, offset: 0xF2F4C, size: 0x8, addend: 0x0, symName: _llama_set_embeddings, symObjAddr: 0x8390, symBinAddr: 0x244AC, symSize: 0x4C }
  - { offsetInCU: 0x48816, offset: 0xF2FD9, size: 0x8, addend: 0x0, symName: _llama_set_causal_attn, symObjAddr: 0x83DC, symBinAddr: 0x244F8, symSize: 0x4C }
  - { offsetInCU: 0x488A3, offset: 0xF3066, size: 0x8, addend: 0x0, symName: _llama_set_warmup, symObjAddr: 0x8428, symBinAddr: 0x24544, symSize: 0x4C }
  - { offsetInCU: 0x4890B, offset: 0xF30CE, size: 0x8, addend: 0x0, symName: _llama_synchronize, symObjAddr: 0x8474, symBinAddr: 0x24590, symSize: 0x4 }
  - { offsetInCU: 0x48935, offset: 0xF30F8, size: 0x8, addend: 0x0, symName: _llama_synchronize, symObjAddr: 0x8474, symBinAddr: 0x24590, symSize: 0x4 }
  - { offsetInCU: 0x48961, offset: 0xF3124, size: 0x8, addend: 0x0, symName: _llama_get_logits, symObjAddr: 0x8478, symBinAddr: 0x24594, symSize: 0x24 }
  - { offsetInCU: 0x489BF, offset: 0xF3182, size: 0x8, addend: 0x0, symName: _llama_get_logits_ith, symObjAddr: 0x849C, symBinAddr: 0x245B8, symSize: 0x2C }
  - { offsetInCU: 0x48A44, offset: 0xF3207, size: 0x8, addend: 0x0, symName: _llama_get_embeddings, symObjAddr: 0x84C8, symBinAddr: 0x245E4, symSize: 0x24 }
  - { offsetInCU: 0x48AA2, offset: 0xF3265, size: 0x8, addend: 0x0, symName: _llama_get_embeddings_ith, symObjAddr: 0x84EC, symBinAddr: 0x24608, symSize: 0x2C }
  - { offsetInCU: 0x48B3F, offset: 0xF3302, size: 0x8, addend: 0x0, symName: _llama_get_embeddings_seq, symObjAddr: 0x8518, symBinAddr: 0x24634, symSize: 0x78 }
  - { offsetInCU: 0x48D15, offset: 0xF34D8, size: 0x8, addend: 0x0, symName: _llama_set_adapter_lora, symObjAddr: 0x8590, symBinAddr: 0x246AC, symSize: 0x84 }
  - { offsetInCU: 0x48E20, offset: 0xF35E3, size: 0x8, addend: 0x0, symName: _llama_rm_adapter_lora, symObjAddr: 0x8614, symBinAddr: 0x24730, symSize: 0x84 }
  - { offsetInCU: 0x490C4, offset: 0xF3887, size: 0x8, addend: 0x0, symName: _llama_clear_adapter_lora, symObjAddr: 0x8698, symBinAddr: 0x247B4, symSize: 0x88 }
  - { offsetInCU: 0x4937B, offset: 0xF3B3E, size: 0x8, addend: 0x0, symName: _llama_apply_adapter_cvec, symObjAddr: 0x8720, symBinAddr: 0x2483C, symSize: 0x8C }
  - { offsetInCU: 0x4945E, offset: 0xF3C21, size: 0x8, addend: 0x0, symName: _llama_get_memory, symObjAddr: 0x87AC, symBinAddr: 0x248C8, symSize: 0x8 }
  - { offsetInCU: 0x4947E, offset: 0xF3C41, size: 0x8, addend: 0x0, symName: _llama_get_memory, symObjAddr: 0x87AC, symBinAddr: 0x248C8, symSize: 0x8 }
  - { offsetInCU: 0x4949A, offset: 0xF3C5D, size: 0x8, addend: 0x0, symName: _llama_get_memory, symObjAddr: 0x87AC, symBinAddr: 0x248C8, symSize: 0x8 }
  - { offsetInCU: 0x494B8, offset: 0xF3C7B, size: 0x8, addend: 0x0, symName: _llama_memory_clear, symObjAddr: 0x87B4, symBinAddr: 0x248D0, symSize: 0x14 }
  - { offsetInCU: 0x494EB, offset: 0xF3CAE, size: 0x8, addend: 0x0, symName: _llama_memory_seq_rm, symObjAddr: 0x87C8, symBinAddr: 0x248E4, symSize: 0x18 }
  - { offsetInCU: 0x49529, offset: 0xF3CEC, size: 0x8, addend: 0x0, symName: _llama_memory_seq_cp, symObjAddr: 0x87E0, symBinAddr: 0x248FC, symSize: 0x14 }
  - { offsetInCU: 0x4956C, offset: 0xF3D2F, size: 0x8, addend: 0x0, symName: _llama_memory_seq_keep, symObjAddr: 0x87F4, symBinAddr: 0x24910, symSize: 0x14 }
  - { offsetInCU: 0x4959A, offset: 0xF3D5D, size: 0x8, addend: 0x0, symName: _llama_memory_seq_add, symObjAddr: 0x8808, symBinAddr: 0x24924, symSize: 0x14 }
  - { offsetInCU: 0x495DD, offset: 0xF3DA0, size: 0x8, addend: 0x0, symName: _llama_memory_seq_div, symObjAddr: 0x881C, symBinAddr: 0x24938, symSize: 0x14 }
  - { offsetInCU: 0x49620, offset: 0xF3DE3, size: 0x8, addend: 0x0, symName: _llama_memory_seq_pos_min, symObjAddr: 0x8830, symBinAddr: 0x2494C, symSize: 0x18 }
  - { offsetInCU: 0x49650, offset: 0xF3E13, size: 0x8, addend: 0x0, symName: _llama_memory_seq_pos_max, symObjAddr: 0x8848, symBinAddr: 0x24964, symSize: 0x18 }
  - { offsetInCU: 0x49680, offset: 0xF3E43, size: 0x8, addend: 0x0, symName: _llama_memory_can_shift, symObjAddr: 0x8860, symBinAddr: 0x2497C, symSize: 0x14 }
  - { offsetInCU: 0x496C2, offset: 0xF3E85, size: 0x8, addend: 0x0, symName: _llama_kv_self_n_tokens, symObjAddr: 0x8874, symBinAddr: 0x24990, symSize: 0xB0 }
  - { offsetInCU: 0x497ED, offset: 0xF3FB0, size: 0x8, addend: 0x0, symName: _llama_kv_self_used_cells, symObjAddr: 0x8924, symBinAddr: 0x24A40, symSize: 0xB0 }
  - { offsetInCU: 0x4993B, offset: 0xF40FE, size: 0x8, addend: 0x0, symName: _llama_kv_self_clear, symObjAddr: 0x89D4, symBinAddr: 0x24AF0, symSize: 0x1C }
  - { offsetInCU: 0x49977, offset: 0xF413A, size: 0x8, addend: 0x0, symName: _llama_kv_self_clear, symObjAddr: 0x89D4, symBinAddr: 0x24AF0, symSize: 0x1C }
  - { offsetInCU: 0x49993, offset: 0xF4156, size: 0x8, addend: 0x0, symName: _llama_kv_self_clear, symObjAddr: 0x89D4, symBinAddr: 0x24AF0, symSize: 0x1C }
  - { offsetInCU: 0x499AF, offset: 0xF4172, size: 0x8, addend: 0x0, symName: _llama_kv_self_clear, symObjAddr: 0x89D4, symBinAddr: 0x24AF0, symSize: 0x1C }
  - { offsetInCU: 0x49A44, offset: 0xF4207, size: 0x8, addend: 0x0, symName: _llama_kv_self_seq_rm, symObjAddr: 0x89F0, symBinAddr: 0x24B0C, symSize: 0x1C }
  - { offsetInCU: 0x49AB1, offset: 0xF4274, size: 0x8, addend: 0x0, symName: _llama_kv_self_seq_rm, symObjAddr: 0x89F0, symBinAddr: 0x24B0C, symSize: 0x1C }
  - { offsetInCU: 0x49ACD, offset: 0xF4290, size: 0x8, addend: 0x0, symName: _llama_kv_self_seq_rm, symObjAddr: 0x89F0, symBinAddr: 0x24B0C, symSize: 0x1C }
  - { offsetInCU: 0x49AE9, offset: 0xF42AC, size: 0x8, addend: 0x0, symName: _llama_kv_self_seq_rm, symObjAddr: 0x89F0, symBinAddr: 0x24B0C, symSize: 0x1C }
  - { offsetInCU: 0x49B8D, offset: 0xF4350, size: 0x8, addend: 0x0, symName: _llama_kv_self_seq_cp, symObjAddr: 0x8A0C, symBinAddr: 0x24B28, symSize: 0x18 }
  - { offsetInCU: 0x49C05, offset: 0xF43C8, size: 0x8, addend: 0x0, symName: _llama_kv_self_seq_cp, symObjAddr: 0x8A0C, symBinAddr: 0x24B28, symSize: 0x18 }
  - { offsetInCU: 0x49C21, offset: 0xF43E4, size: 0x8, addend: 0x0, symName: _llama_kv_self_seq_cp, symObjAddr: 0x8A0C, symBinAddr: 0x24B28, symSize: 0x18 }
  - { offsetInCU: 0x49C3D, offset: 0xF4400, size: 0x8, addend: 0x0, symName: _llama_kv_self_seq_cp, symObjAddr: 0x8A0C, symBinAddr: 0x24B28, symSize: 0x18 }
  - { offsetInCU: 0x49CC4, offset: 0xF4487, size: 0x8, addend: 0x0, symName: _llama_kv_self_seq_keep, symObjAddr: 0x8A24, symBinAddr: 0x24B40, symSize: 0x18 }
  - { offsetInCU: 0x49D0F, offset: 0xF44D2, size: 0x8, addend: 0x0, symName: _llama_kv_self_seq_keep, symObjAddr: 0x8A24, symBinAddr: 0x24B40, symSize: 0x18 }
  - { offsetInCU: 0x49D2B, offset: 0xF44EE, size: 0x8, addend: 0x0, symName: _llama_kv_self_seq_keep, symObjAddr: 0x8A24, symBinAddr: 0x24B40, symSize: 0x18 }
  - { offsetInCU: 0x49D47, offset: 0xF450A, size: 0x8, addend: 0x0, symName: _llama_kv_self_seq_keep, symObjAddr: 0x8A24, symBinAddr: 0x24B40, symSize: 0x18 }
  - { offsetInCU: 0x49DDD, offset: 0xF45A0, size: 0x8, addend: 0x0, symName: _llama_kv_self_seq_add, symObjAddr: 0x8A3C, symBinAddr: 0x24B58, symSize: 0x18 }
  - { offsetInCU: 0x49E55, offset: 0xF4618, size: 0x8, addend: 0x0, symName: _llama_kv_self_seq_add, symObjAddr: 0x8A3C, symBinAddr: 0x24B58, symSize: 0x18 }
  - { offsetInCU: 0x49E71, offset: 0xF4634, size: 0x8, addend: 0x0, symName: _llama_kv_self_seq_add, symObjAddr: 0x8A3C, symBinAddr: 0x24B58, symSize: 0x18 }
  - { offsetInCU: 0x49E8D, offset: 0xF4650, size: 0x8, addend: 0x0, symName: _llama_kv_self_seq_add, symObjAddr: 0x8A3C, symBinAddr: 0x24B58, symSize: 0x18 }
  - { offsetInCU: 0x49F38, offset: 0xF46FB, size: 0x8, addend: 0x0, symName: _llama_kv_self_seq_div, symObjAddr: 0x8A54, symBinAddr: 0x24B70, symSize: 0x18 }
  - { offsetInCU: 0x49FB0, offset: 0xF4773, size: 0x8, addend: 0x0, symName: _llama_kv_self_seq_div, symObjAddr: 0x8A54, symBinAddr: 0x24B70, symSize: 0x18 }
  - { offsetInCU: 0x49FCC, offset: 0xF478F, size: 0x8, addend: 0x0, symName: _llama_kv_self_seq_div, symObjAddr: 0x8A54, symBinAddr: 0x24B70, symSize: 0x18 }
  - { offsetInCU: 0x49FE8, offset: 0xF47AB, size: 0x8, addend: 0x0, symName: _llama_kv_self_seq_div, symObjAddr: 0x8A54, symBinAddr: 0x24B70, symSize: 0x18 }
  - { offsetInCU: 0x4A073, offset: 0xF4836, size: 0x8, addend: 0x0, symName: _llama_kv_self_seq_pos_min, symObjAddr: 0x8A6C, symBinAddr: 0x24B88, symSize: 0x1C }
  - { offsetInCU: 0x4A0C2, offset: 0xF4885, size: 0x8, addend: 0x0, symName: _llama_kv_self_seq_pos_min, symObjAddr: 0x8A6C, symBinAddr: 0x24B88, symSize: 0x1C }
  - { offsetInCU: 0x4A0DE, offset: 0xF48A1, size: 0x8, addend: 0x0, symName: _llama_kv_self_seq_pos_min, symObjAddr: 0x8A6C, symBinAddr: 0x24B88, symSize: 0x1C }
  - { offsetInCU: 0x4A0FA, offset: 0xF48BD, size: 0x8, addend: 0x0, symName: _llama_kv_self_seq_pos_min, symObjAddr: 0x8A6C, symBinAddr: 0x24B88, symSize: 0x1C }
  - { offsetInCU: 0x4A170, offset: 0xF4933, size: 0x8, addend: 0x0, symName: _llama_kv_self_seq_pos_max, symObjAddr: 0x8A88, symBinAddr: 0x24BA4, symSize: 0x1C }
  - { offsetInCU: 0x4A1BF, offset: 0xF4982, size: 0x8, addend: 0x0, symName: _llama_kv_self_seq_pos_max, symObjAddr: 0x8A88, symBinAddr: 0x24BA4, symSize: 0x1C }
  - { offsetInCU: 0x4A1DB, offset: 0xF499E, size: 0x8, addend: 0x0, symName: _llama_kv_self_seq_pos_max, symObjAddr: 0x8A88, symBinAddr: 0x24BA4, symSize: 0x1C }
  - { offsetInCU: 0x4A1F7, offset: 0xF49BA, size: 0x8, addend: 0x0, symName: _llama_kv_self_seq_pos_max, symObjAddr: 0x8A88, symBinAddr: 0x24BA4, symSize: 0x1C }
  - { offsetInCU: 0x4A25F, offset: 0xF4A22, size: 0x8, addend: 0x0, symName: _llama_kv_self_defrag, symObjAddr: 0x8AA4, symBinAddr: 0x24BC0, symSize: 0x14 }
  - { offsetInCU: 0x4A289, offset: 0xF4A4C, size: 0x8, addend: 0x0, symName: _llama_kv_self_defrag, symObjAddr: 0x8AA4, symBinAddr: 0x24BC0, symSize: 0x14 }
  - { offsetInCU: 0x4A2A5, offset: 0xF4A68, size: 0x8, addend: 0x0, symName: _llama_kv_self_defrag, symObjAddr: 0x8AA4, symBinAddr: 0x24BC0, symSize: 0x14 }
  - { offsetInCU: 0x4A2DE, offset: 0xF4AA1, size: 0x8, addend: 0x0, symName: _llama_kv_self_can_shift, symObjAddr: 0x8AB8, symBinAddr: 0x24BD4, symSize: 0x18 }
  - { offsetInCU: 0x4A31E, offset: 0xF4AE1, size: 0x8, addend: 0x0, symName: _llama_kv_self_can_shift, symObjAddr: 0x8AB8, symBinAddr: 0x24BD4, symSize: 0x18 }
  - { offsetInCU: 0x4A33A, offset: 0xF4AFD, size: 0x8, addend: 0x0, symName: _llama_kv_self_can_shift, symObjAddr: 0x8AB8, symBinAddr: 0x24BD4, symSize: 0x18 }
  - { offsetInCU: 0x4A356, offset: 0xF4B19, size: 0x8, addend: 0x0, symName: _llama_kv_self_can_shift, symObjAddr: 0x8AB8, symBinAddr: 0x24BD4, symSize: 0x18 }
  - { offsetInCU: 0x4A3B9, offset: 0xF4B7C, size: 0x8, addend: 0x0, symName: _llama_get_state_size, symObjAddr: 0x8AD0, symBinAddr: 0x24BEC, symSize: 0x4 }
  - { offsetInCU: 0x4A3E7, offset: 0xF4BAA, size: 0x8, addend: 0x0, symName: _llama_get_state_size, symObjAddr: 0x8AD0, symBinAddr: 0x24BEC, symSize: 0x4 }
  - { offsetInCU: 0x4A404, offset: 0xF4BC7, size: 0x8, addend: 0x0, symName: _llama_get_state_size, symObjAddr: 0x8AD0, symBinAddr: 0x24BEC, symSize: 0x4 }
  - { offsetInCU: 0x4A417, offset: 0xF4BDA, size: 0x8, addend: 0x0, symName: _llama_state_get_size, symObjAddr: 0x8AD4, symBinAddr: 0x24BF0, symSize: 0x4 }
  - { offsetInCU: 0x4A435, offset: 0xF4BF8, size: 0x8, addend: 0x0, symName: _llama_state_get_size, symObjAddr: 0x8AD4, symBinAddr: 0x24BF0, symSize: 0x4 }
  - { offsetInCU: 0x4A47B, offset: 0xF4C3E, size: 0x8, addend: 0x0, symName: _llama_copy_state_data, symObjAddr: 0x8AD8, symBinAddr: 0x24BF4, symSize: 0x30 }
  - { offsetInCU: 0x4A51F, offset: 0xF4CE2, size: 0x8, addend: 0x0, symName: _llama_state_get_data, symObjAddr: 0x8B08, symBinAddr: 0x24C24, symSize: 0x3C }
  - { offsetInCU: 0x4A5B8, offset: 0xF4D7B, size: 0x8, addend: 0x0, symName: _llama_set_state_data, symObjAddr: 0x8B44, symBinAddr: 0x24C60, symSize: 0x30 }
  - { offsetInCU: 0x4A65C, offset: 0xF4E1F, size: 0x8, addend: 0x0, symName: _llama_state_set_data, symObjAddr: 0x8B74, symBinAddr: 0x24C90, symSize: 0x3C }
  - { offsetInCU: 0x4A6C2, offset: 0xF4E85, size: 0x8, addend: 0x0, symName: _llama_load_session_file, symObjAddr: 0x8BB0, symBinAddr: 0x24CCC, symSize: 0x4 }
  - { offsetInCU: 0x4A72C, offset: 0xF4EEF, size: 0x8, addend: 0x0, symName: _llama_load_session_file, symObjAddr: 0x8BB0, symBinAddr: 0x24CCC, symSize: 0x4 }
  - { offsetInCU: 0x4A75B, offset: 0xF4F1E, size: 0x8, addend: 0x0, symName: _llama_state_load_file, symObjAddr: 0x8BB4, symBinAddr: 0x24CD0, symSize: 0x18C }
  - { offsetInCU: 0x4A8B1, offset: 0xF5074, size: 0x8, addend: 0x0, symName: _llama_save_session_file, symObjAddr: 0x8D40, symBinAddr: 0x24E5C, symSize: 0x4 }
  - { offsetInCU: 0x4A90C, offset: 0xF50CF, size: 0x8, addend: 0x0, symName: _llama_save_session_file, symObjAddr: 0x8D40, symBinAddr: 0x24E5C, symSize: 0x4 }
  - { offsetInCU: 0x4A934, offset: 0xF50F7, size: 0x8, addend: 0x0, symName: _llama_state_save_file, symObjAddr: 0x8D44, symBinAddr: 0x24E60, symSize: 0x234 }
  - { offsetInCU: 0x4AE68, offset: 0xF562B, size: 0x8, addend: 0x0, symName: _llama_state_seq_get_size, symObjAddr: 0x8F78, symBinAddr: 0x25094, symSize: 0x4 }
  - { offsetInCU: 0x4AEA5, offset: 0xF5668, size: 0x8, addend: 0x0, symName: _llama_state_seq_get_size, symObjAddr: 0x8F78, symBinAddr: 0x25094, symSize: 0x4 }
  - { offsetInCU: 0x4AEBF, offset: 0xF5682, size: 0x8, addend: 0x0, symName: _llama_state_seq_get_data, symObjAddr: 0x8F7C, symBinAddr: 0x25098, symSize: 0x44 }
  - { offsetInCU: 0x4AF57, offset: 0xF571A, size: 0x8, addend: 0x0, symName: _llama_state_seq_set_data, symObjAddr: 0x8FC0, symBinAddr: 0x250DC, symSize: 0x44 }
  - { offsetInCU: 0x4AFEF, offset: 0xF57B2, size: 0x8, addend: 0x0, symName: _llama_state_seq_save_file, symObjAddr: 0x9004, symBinAddr: 0x25120, symSize: 0x18C }
  - { offsetInCU: 0x4B12C, offset: 0xF58EF, size: 0x8, addend: 0x0, symName: _llama_state_seq_load_file, symObjAddr: 0x9190, symBinAddr: 0x252AC, symSize: 0x194 }
  - { offsetInCU: 0x4B27F, offset: 0xF5A42, size: 0x8, addend: 0x0, symName: _llama_encode, symObjAddr: 0x9324, symBinAddr: 0x25440, symSize: 0x4C }
  - { offsetInCU: 0x4B2FB, offset: 0xF5ABE, size: 0x8, addend: 0x0, symName: _llama_decode, symObjAddr: 0x9370, symBinAddr: 0x2548C, symSize: 0x50 }
  - { offsetInCU: 0x4B39C, offset: 0xF5B5F, size: 0x8, addend: 0x0, symName: _llama_perf_context, symObjAddr: 0x93C0, symBinAddr: 0x254DC, symSize: 0x50 }
  - { offsetInCU: 0x4B45C, offset: 0xF5C1F, size: 0x8, addend: 0x0, symName: _llama_perf_context_print, symObjAddr: 0x9410, symBinAddr: 0x2552C, symSize: 0x180 }
  - { offsetInCU: 0x4B5BC, offset: 0xF5D7F, size: 0x8, addend: 0x0, symName: _llama_perf_context_reset, symObjAddr: 0x9590, symBinAddr: 0x256AC, symSize: 0x30 }
  - { offsetInCU: 0x4B60F, offset: 0xF5DD2, size: 0x8, addend: 0x0, symName: _llama_opt_param_filter_all, symObjAddr: 0x95C0, symBinAddr: 0x256DC, symSize: 0x8 }
  - { offsetInCU: 0x4B64A, offset: 0xF5E0D, size: 0x8, addend: 0x0, symName: _llama_opt_init, symObjAddr: 0x95C8, symBinAddr: 0x256E4, symSize: 0x30 }
  - { offsetInCU: 0x4B6B4, offset: 0xF5E77, size: 0x8, addend: 0x0, symName: _llama_opt_epoch, symObjAddr: 0x95F8, symBinAddr: 0x25714, symSize: 0x4 }
  - { offsetInCU: 0x4B738, offset: 0xF5EFB, size: 0x8, addend: 0x0, symName: _llama_opt_epoch, symObjAddr: 0x95F8, symBinAddr: 0x25714, symSize: 0x4 }
  - { offsetInCU: 0x4BD69, offset: 0xF652C, size: 0x8, addend: 0x0, symName: __ZN20llama_io_write_dummyD0Ev, symObjAddr: 0x9788, symBinAddr: 0x257E0, symSize: 0x4 }
  - { offsetInCU: 0x4BD95, offset: 0xF6558, size: 0x8, addend: 0x0, symName: __ZN20llama_io_write_dummy5writeEPKvm, symObjAddr: 0x978C, symBinAddr: 0x257E4, symSize: 0x10 }
  - { offsetInCU: 0x4BDD4, offset: 0xF6597, size: 0x8, addend: 0x0, symName: __ZN20llama_io_write_dummy12write_tensorEPK11ggml_tensormm, symObjAddr: 0x979C, symBinAddr: 0x257F4, symSize: 0x10 }
  - { offsetInCU: 0x4BE1E, offset: 0xF65E1, size: 0x8, addend: 0x0, symName: __ZN20llama_io_write_dummy7n_bytesEv, symObjAddr: 0x97AC, symBinAddr: 0x25804, symSize: 0x8 }
  - { offsetInCU: 0x4BE45, offset: 0xF6608, size: 0x8, addend: 0x0, symName: __ZN21llama_io_write_bufferD0Ev, symObjAddr: 0x97B4, symBinAddr: 0x2580C, symSize: 0x4 }
  - { offsetInCU: 0x4BE71, offset: 0xF6634, size: 0x8, addend: 0x0, symName: __ZN21llama_io_write_buffer5writeEPKvm, symObjAddr: 0x97B8, symBinAddr: 0x25810, symSize: 0x94 }
  - { offsetInCU: 0x4BEB8, offset: 0xF667B, size: 0x8, addend: 0x0, symName: __ZN21llama_io_write_buffer12write_tensorEPK11ggml_tensormm, symObjAddr: 0x984C, symBinAddr: 0x258A4, symSize: 0x9C }
  - { offsetInCU: 0x4BF39, offset: 0xF66FC, size: 0x8, addend: 0x0, symName: __ZN21llama_io_write_buffer7n_bytesEv, symObjAddr: 0x98E8, symBinAddr: 0x25940, symSize: 0x8 }
  - { offsetInCU: 0x4BF60, offset: 0xF6723, size: 0x8, addend: 0x0, symName: __ZN20llama_io_read_bufferD0Ev, symObjAddr: 0x98F0, symBinAddr: 0x25948, symSize: 0x4 }
  - { offsetInCU: 0x4BF8C, offset: 0xF674F, size: 0x8, addend: 0x0, symName: __ZN20llama_io_read_buffer4readEm, symObjAddr: 0x98F4, symBinAddr: 0x2594C, symSize: 0x84 }
  - { offsetInCU: 0x4BFD4, offset: 0xF6797, size: 0x8, addend: 0x0, symName: __ZN20llama_io_read_buffer7read_toEPvm, symObjAddr: 0x9978, symBinAddr: 0x259D0, symSize: 0x3C }
  - { offsetInCU: 0x4C036, offset: 0xF67F9, size: 0x8, addend: 0x0, symName: __ZN20llama_io_read_buffer7n_bytesEv, symObjAddr: 0x99B4, symBinAddr: 0x25A0C, symSize: 0x8 }
  - { offsetInCU: 0x4C05D, offset: 0xF6820, size: 0x8, addend: 0x0, symName: __ZN18llama_io_read_fileD0Ev, symObjAddr: 0x99BC, symBinAddr: 0x25A14, symSize: 0x40 }
  - { offsetInCU: 0x4C21E, offset: 0xF69E1, size: 0x8, addend: 0x0, symName: __ZN18llama_io_read_file4readEm, symObjAddr: 0x99FC, symBinAddr: 0x25A54, symSize: 0x1DC }
  - { offsetInCU: 0x4C781, offset: 0xF6F44, size: 0x8, addend: 0x0, symName: __ZN18llama_io_read_file7read_toEPvm, symObjAddr: 0x9BD8, symBinAddr: 0x25C30, symSize: 0x34 }
  - { offsetInCU: 0x4C78C, offset: 0xF6F4F, size: 0x8, addend: 0x0, symName: __ZN18llama_io_read_file7read_toEPvm, symObjAddr: 0x9BD8, symBinAddr: 0x25C30, symSize: 0x34 }
  - { offsetInCU: 0x4C7D3, offset: 0xF6F96, size: 0x8, addend: 0x0, symName: __ZN18llama_io_read_file7n_bytesEv, symObjAddr: 0x9C0C, symBinAddr: 0x25C64, symSize: 0x8 }
  - { offsetInCU: 0x4C7FA, offset: 0xF6FBD, size: 0x8, addend: 0x0, symName: __ZN19llama_io_write_fileD0Ev, symObjAddr: 0x9C14, symBinAddr: 0x25C6C, symSize: 0x40 }
  - { offsetInCU: 0x4C9A5, offset: 0xF7168, size: 0x8, addend: 0x0, symName: __ZN19llama_io_write_file5writeEPKvm, symObjAddr: 0x9C54, symBinAddr: 0x25CAC, symSize: 0x34 }
  - { offsetInCU: 0x4C9EC, offset: 0xF71AF, size: 0x8, addend: 0x0, symName: __ZN19llama_io_write_file12write_tensorEPK11ggml_tensormm, symObjAddr: 0x9C88, symBinAddr: 0x25CE0, symSize: 0x22C }
  - { offsetInCU: 0x4D61F, offset: 0xF7DE2, size: 0x8, addend: 0x0, symName: __ZNKSt3__16vectorINS_10unique_ptrI12ggml_backend20ggml_backend_deleterEENS_9allocatorIS4_EEE20__throw_length_errorB8ue170006Ev, symObjAddr: 0xA1C4, symBinAddr: 0x2616C, symSize: 0x14 }
  - { offsetInCU: 0x4D649, offset: 0xF7E0C, size: 0x8, addend: 0x0, symName: __ZNKSt3__16vectorINS_4pairIP12ggml_backendPFvS3_iEEENS_9allocatorIS6_EEE20__throw_length_errorB8ue170006Ev, symObjAddr: 0xA1D8, symBinAddr: 0x26180, symSize: 0x14 }
  - { offsetInCU: 0x4DB94, offset: 0xF8357, size: 0x8, addend: 0x0, symName: __ZNSt3__112__hash_tableINS_17__hash_value_typeIP18llama_adapter_lorafEENS_22__unordered_map_hasherIS3_S4_NS_4hashIS3_EENS_8equal_toIS3_EELb1EEENS_21__unordered_map_equalIS3_S4_S9_S7_Lb1EEENS_9allocatorIS4_EEE11__do_rehashILb1EEEvm, symObjAddr: 0xA578, symBinAddr: 0x264F8, symSize: 0x1AC }
  - { offsetInCU: 0x4DFF4, offset: 0xF87B7, size: 0x8, addend: 0x0, symName: __ZNSt3__112__hash_tableINS_17__hash_value_typeIP18llama_adapter_lorafEENS_22__unordered_map_hasherIS3_S4_NS_4hashIS3_EENS_8equal_toIS3_EELb1EEENS_21__unordered_map_equalIS3_S4_S9_S7_Lb1EEENS_9allocatorIS4_EEE4findIS3_EENS_15__hash_iteratorIPNS_11__hash_nodeIS4_PvEEEERKT_, symObjAddr: 0xA724, symBinAddr: 0x266A4, symSize: 0x114 }
  - { offsetInCU: 0x4E9E1, offset: 0xF91A4, size: 0x8, addend: 0x0, symName: '__ZNSt3__110__function6__funcIZNK13llama_context12graph_get_cbEvE3$_0NS_9allocatorIS3_EEFvRK12llama_ubatchP11ggml_tensorPKciEED1Ev', symObjAddr: 0xB09C, symBinAddr: 0x268EC, symSize: 0x4 }
  - { offsetInCU: 0x4E9EC, offset: 0xF91AF, size: 0x8, addend: 0x0, symName: '__ZNSt3__110__function6__funcIZNK13llama_context12graph_get_cbEvE3$_0NS_9allocatorIS3_EEFvRK12llama_ubatchP11ggml_tensorPKciEED1Ev', symObjAddr: 0xB09C, symBinAddr: 0x268EC, symSize: 0x4 }
  - { offsetInCU: 0x4EA18, offset: 0xF91DB, size: 0x8, addend: 0x0, symName: '__ZNSt3__110__function6__funcIZNK13llama_context12graph_get_cbEvE3$_0NS_9allocatorIS3_EEFvRK12llama_ubatchP11ggml_tensorPKciEED0Ev', symObjAddr: 0xB0A0, symBinAddr: 0x268F0, symSize: 0x4 }
  - { offsetInCU: 0x4EACE, offset: 0xF9291, size: 0x8, addend: 0x0, symName: '__ZNKSt3__110__function6__funcIZNK13llama_context12graph_get_cbEvE3$_0NS_9allocatorIS3_EEFvRK12llama_ubatchP11ggml_tensorPKciEE7__cloneEv', symObjAddr: 0xB0A4, symBinAddr: 0x268F4, symSize: 0x34 }
  - { offsetInCU: 0x4EC1C, offset: 0xF93DF, size: 0x8, addend: 0x0, symName: '__ZNKSt3__110__function6__funcIZNK13llama_context12graph_get_cbEvE3$_0NS_9allocatorIS3_EEFvRK12llama_ubatchP11ggml_tensorPKciEE7__cloneEPNS0_6__baseISD_EE', symObjAddr: 0xB0D8, symBinAddr: 0x26928, symSize: 0x14 }
  - { offsetInCU: 0x4EC8C, offset: 0xF944F, size: 0x8, addend: 0x0, symName: '__ZNSt3__110__function6__funcIZNK13llama_context12graph_get_cbEvE3$_0NS_9allocatorIS3_EEFvRK12llama_ubatchP11ggml_tensorPKciEE7destroyEv', symObjAddr: 0xB0EC, symBinAddr: 0x2693C, symSize: 0x4 }
  - { offsetInCU: 0x4ECDD, offset: 0xF94A0, size: 0x8, addend: 0x0, symName: '__ZNSt3__110__function6__funcIZNK13llama_context12graph_get_cbEvE3$_0NS_9allocatorIS3_EEFvRK12llama_ubatchP11ggml_tensorPKciEE18destroy_deallocateEv', symObjAddr: 0xB0F0, symBinAddr: 0x26940, symSize: 0x4 }
  - { offsetInCU: 0x4ED13, offset: 0xF94D6, size: 0x8, addend: 0x0, symName: '__ZNSt3__110__function6__funcIZNK13llama_context12graph_get_cbEvE3$_0NS_9allocatorIS3_EEFvRK12llama_ubatchP11ggml_tensorPKciEE18destroy_deallocateEv', symObjAddr: 0xB0F0, symBinAddr: 0x26940, symSize: 0x4 }
  - { offsetInCU: 0x4ED36, offset: 0xF94F9, size: 0x8, addend: 0x0, symName: '__ZNSt3__110__function6__funcIZNK13llama_context12graph_get_cbEvE3$_0NS_9allocatorIS3_EEFvRK12llama_ubatchP11ggml_tensorPKciEE18destroy_deallocateEv', symObjAddr: 0xB0F0, symBinAddr: 0x26940, symSize: 0x4 }
  - { offsetInCU: 0x4ED63, offset: 0xF9526, size: 0x8, addend: 0x0, symName: '__ZNSt3__110__function6__funcIZNK13llama_context12graph_get_cbEvE3$_0NS_9allocatorIS3_EEFvRK12llama_ubatchP11ggml_tensorPKciEE18destroy_deallocateEv', symObjAddr: 0xB0F0, symBinAddr: 0x26940, symSize: 0x4 }
  - { offsetInCU: 0x4ED89, offset: 0xF954C, size: 0x8, addend: 0x0, symName: '__ZNSt3__110__function6__funcIZNK13llama_context12graph_get_cbEvE3$_0NS_9allocatorIS3_EEFvRK12llama_ubatchP11ggml_tensorPKciEE18destroy_deallocateEv', symObjAddr: 0xB0F0, symBinAddr: 0x26940, symSize: 0x4 }
  - { offsetInCU: 0x4EF2B, offset: 0xF96EE, size: 0x8, addend: 0x0, symName: '__ZNSt3__110__function6__funcIZNK13llama_context12graph_get_cbEvE3$_0NS_9allocatorIS3_EEFvRK12llama_ubatchP11ggml_tensorPKciEEclES8_OSA_OSC_Oi', symObjAddr: 0xB0F4, symBinAddr: 0x26944, symSize: 0x150 }
  - { offsetInCU: 0x4F21F, offset: 0xF99E2, size: 0x8, addend: 0x0, symName: '__ZNKSt3__110__function6__funcIZNK13llama_context12graph_get_cbEvE3$_0NS_9allocatorIS3_EEFvRK12llama_ubatchP11ggml_tensorPKciEE6targetERKSt9type_info', symObjAddr: 0xB244, symBinAddr: 0x26A94, symSize: 0x60 }
  - { offsetInCU: 0x4F2A4, offset: 0xF9A67, size: 0x8, addend: 0x0, symName: '__ZNKSt3__110__function6__funcIZNK13llama_context12graph_get_cbEvE3$_0NS_9allocatorIS3_EEFvRK12llama_ubatchP11ggml_tensorPKciEE11target_typeEv', symObjAddr: 0xB2A4, symBinAddr: 0x26AF4, symSize: 0xC }
  - { offsetInCU: 0x26, offset: 0xF9B8F, size: 0x8, addend: 0x0, symName: _llama_max_parallel_sequences, symObjAddr: 0x0, symBinAddr: 0x26B00, symSize: 0x8 }
  - { offsetInCU: 0x14A, offset: 0xF9CB3, size: 0x8, addend: 0x0, symName: _llama_max_parallel_sequences, symObjAddr: 0x0, symBinAddr: 0x26B00, symSize: 0x8 }
  - { offsetInCU: 0x26, offset: 0xF9CF3, size: 0x8, addend: 0x0, symName: __ZN20llama_grammar_parser13get_symbol_idEPKcm, symObjAddr: 0x0, symBinAddr: 0x26B08, symSize: 0xEC }
  - { offsetInCU: 0x5F, offset: 0xF9D2C, size: 0x8, addend: 0x0, symName: __ZL11decode_utf8RKNSt3__112basic_stringIcNS_11char_traitsIcEENS_9allocatorIcEEEE18llama_partial_utf8, symObjAddr: 0x8254, symBinAddr: 0x2ECBC, symSize: 0x948 }
  - { offsetInCU: 0x89, offset: 0xF9D56, size: 0x8, addend: 0x0, symName: __ZZL11decode_utf8RKNSt3__112basic_stringIcNS_11char_traitsIcEENS_9allocatorIcEEEE18llama_partial_utf8E6lookup, symObjAddr: 0x18458, symBinAddr: 0x1DED30, symSize: 0x0 }
  - { offsetInCU: 0x2EC6D, offset: 0x12893A, size: 0x8, addend: 0x0, symName: __ZNSt3__119__throw_regex_errorB8ue170006ILNS_15regex_constants10error_typeE17EEEvv, symObjAddr: 0xAF28, symBinAddr: 0x31690, symSize: 0x4C }
  - { offsetInCU: 0x2F9B0, offset: 0x12967D, size: 0x8, addend: 0x0, symName: __ZNSt3__119__throw_regex_errorB8ue170006ILNS_15regex_constants10error_typeE14EEEvv, symObjAddr: 0xB830, symBinAddr: 0x31F98, symSize: 0x4C }
  - { offsetInCU: 0x2FD6C, offset: 0x129A39, size: 0x8, addend: 0x0, symName: __ZNSt3__119__throw_regex_errorB8ue170006ILNS_15regex_constants10error_typeE15EEEvv, symObjAddr: 0x13448, symBinAddr: 0x39B9C, symSize: 0x4C }
  - { offsetInCU: 0x300D8, offset: 0x129DA5, size: 0x8, addend: 0x0, symName: __ZNSt3__119__throw_regex_errorB8ue170006ILNS_15regex_constants10error_typeE6EEEvv, symObjAddr: 0xC474, symBinAddr: 0x32BDC, symSize: 0x4C }
  - { offsetInCU: 0x30286, offset: 0x129F53, size: 0x8, addend: 0x0, symName: __ZNSt3__119__throw_regex_errorB8ue170006ILNS_15regex_constants10error_typeE11EEEvv, symObjAddr: 0xDBB4, symBinAddr: 0x3431C, symSize: 0x4C }
  - { offsetInCU: 0x302C9, offset: 0x129F96, size: 0x8, addend: 0x0, symName: __ZNSt3__119__throw_regex_errorB8ue170006ILNS_15regex_constants10error_typeE8EEEvv, symObjAddr: 0x12E2C, symBinAddr: 0x39580, symSize: 0x4C }
  - { offsetInCU: 0x302EE, offset: 0x129FBB, size: 0x8, addend: 0x0, symName: __ZNSt3__119__throw_regex_errorB8ue170006ILNS_15regex_constants10error_typeE7EEEvv, symObjAddr: 0x12E78, symBinAddr: 0x395CC, symSize: 0x4C }
  - { offsetInCU: 0x3041C, offset: 0x12A0E9, size: 0x8, addend: 0x0, symName: __ZNSt3__119__throw_regex_errorB8ue170006ILNS_15regex_constants10error_typeE12EEEvv, symObjAddr: 0xD198, symBinAddr: 0x33900, symSize: 0x4C }
  - { offsetInCU: 0x30441, offset: 0x12A10E, size: 0x8, addend: 0x0, symName: __ZNSt3__119__throw_regex_errorB8ue170006ILNS_15regex_constants10error_typeE16EEEvv, symObjAddr: 0xD1E4, symBinAddr: 0x3394C, symSize: 0x4C }
  - { offsetInCU: 0x30DB9, offset: 0x12AA86, size: 0x8, addend: 0x0, symName: __ZNSt3__119__throw_regex_errorB8ue170006ILNS_15regex_constants10error_typeE4EEEvv, symObjAddr: 0xE43C, symBinAddr: 0x34BA4, symSize: 0x4C }
  - { offsetInCU: 0x30DDE, offset: 0x12AAAB, size: 0x8, addend: 0x0, symName: __ZNSt3__119__throw_regex_errorB8ue170006ILNS_15regex_constants10error_typeE3EEEvv, symObjAddr: 0xDCF8, symBinAddr: 0x34460, symSize: 0x4C }
  - { offsetInCU: 0x30E03, offset: 0x12AAD0, size: 0x8, addend: 0x0, symName: __ZNSt3__119__throw_regex_errorB8ue170006ILNS_15regex_constants10error_typeE5EEEvv, symObjAddr: 0x104C8, symBinAddr: 0x36C1C, symSize: 0x4C }
  - { offsetInCU: 0x31BA8, offset: 0x12B875, size: 0x8, addend: 0x0, symName: __ZNSt3__119__throw_regex_errorB8ue170006ILNS_15regex_constants10error_typeE1EEEvv, symObjAddr: 0x11A00, symBinAddr: 0x38154, symSize: 0x4C }
  - { offsetInCU: 0x31BCD, offset: 0x12B89A, size: 0x8, addend: 0x0, symName: __ZNSt3__119__throw_regex_errorB8ue170006ILNS_15regex_constants10error_typeE2EEEvv, symObjAddr: 0x12168, symBinAddr: 0x388BC, symSize: 0x4C }
  - { offsetInCU: 0x31C2E, offset: 0x12B8FB, size: 0x8, addend: 0x0, symName: __ZNSt3__119__throw_regex_errorB8ue170006ILNS_15regex_constants10error_typeE9EEEvv, symObjAddr: 0x1293C, symBinAddr: 0x39090, symSize: 0x4C }
  - { offsetInCU: 0x327DC, offset: 0x12C4A9, size: 0x8, addend: 0x0, symName: __ZNSt3__135__uninitialized_allocator_copy_implB8ue170006INS_9allocatorINS_6vectorI21llama_grammar_elementNS1_IS3_EEEEEEPS5_S7_S7_EET2_RT_T0_T1_S8_, symObjAddr: 0x14068, symBinAddr: 0x3A7BC, symSize: 0xF4 }
  - { offsetInCU: 0x32F15, offset: 0x12CBE2, size: 0x8, addend: 0x0, symName: __ZNSt3__135__uninitialized_allocator_copy_implB8ue170006INS_9allocatorINS_6vectorIPK21llama_grammar_elementNS1_IS5_EEEEEEPS7_S9_S9_EET2_RT_T0_T1_SA_, symObjAddr: 0x1429C, symBinAddr: 0x3A9F0, symSize: 0xF4 }
  - { offsetInCU: 0x3364E, offset: 0x12D31B, size: 0x8, addend: 0x0, symName: __ZNSt3__135__uninitialized_allocator_copy_implB8ue170006INS_9allocatorI29llama_grammar_trigger_patternEEPS2_S4_S4_EET2_RT_T0_T1_S5_, symObjAddr: 0x144DC, symBinAddr: 0x3AC30, symSize: 0x160 }
  - { offsetInCU: 0x3A1E9, offset: 0x133EB6, size: 0x8, addend: 0x0, symName: __ZN20llama_grammar_parser13get_symbol_idEPKcm, symObjAddr: 0x0, symBinAddr: 0x26B08, symSize: 0xEC }
  - { offsetInCU: 0x3A863, offset: 0x134530, size: 0x8, addend: 0x0, symName: __ZNSt3__16__treeINS_12__value_typeINS_12basic_stringIcNS_11char_traitsIcEENS_9allocatorIcEEEEjEENS_19__map_value_compareIS7_S8_NS_4lessIS7_EELb1EEENS5_IS8_EEE25__emplace_unique_key_argsIS7_JS7_RjEEENS_4pairINS_15__tree_iteratorIS8_PNS_11__tree_nodeIS8_PvEElEEbEERKT_DpOT0_, symObjAddr: 0x9FE8, symBinAddr: 0x3092C, symSize: 0x184 }
  - { offsetInCU: 0x3ADCD, offset: 0x134A9A, size: 0x8, addend: 0x0, symName: __ZNSt3__16__treeINS_12__value_typeINS_12basic_stringIcNS_11char_traitsIcEENS_9allocatorIcEEEEjEENS_19__map_value_compareIS7_S8_NS_4lessIS7_EELb1EEENS5_IS8_EEE25__emplace_unique_key_argsIS7_JS7_RjEEENS_4pairINS_15__tree_iteratorIS8_PNS_11__tree_nodeIS8_PvEElEEbEERKT_DpOT0_, symObjAddr: 0x9FE8, symBinAddr: 0x3092C, symSize: 0x184 }
  - { offsetInCU: 0x3AF9A, offset: 0x134C67, size: 0x8, addend: 0x0, symName: __ZN20llama_grammar_parser18generate_symbol_idERKNSt3__112basic_stringIcNS0_11char_traitsIcEENS0_9allocatorIcEEEE, symObjAddr: 0xEC, symBinAddr: 0x26BF4, symSize: 0x1FC }
  - { offsetInCU: 0x3BBB0, offset: 0x13587D, size: 0x8, addend: 0x0, symName: __ZNSt3__16__treeINS_12__value_typeINS_12basic_stringIcNS_11char_traitsIcEENS_9allocatorIcEEEEjEENS_19__map_value_compareIS7_S8_NS_4lessIS7_EELb1EEENS5_IS8_EEE25__emplace_unique_key_argsIS7_JRKNS_21piecewise_construct_tENS_5tupleIJOS7_EEENSJ_IJEEEEEENS_4pairINS_15__tree_iteratorIS8_PNS_11__tree_nodeIS8_PvEElEEbEERKT_DpOT0_, symObjAddr: 0xA320, symBinAddr: 0x30AB0, symSize: 0x178 }
  - { offsetInCU: 0x3C380, offset: 0x13604D, size: 0x8, addend: 0x0, symName: __ZN20llama_grammar_parser8add_ruleEjRKNSt3__16vectorI21llama_grammar_elementNS0_9allocatorIS2_EEEE, symObjAddr: 0x2E8, symBinAddr: 0x26DF0, symSize: 0xE8 }
  - { offsetInCU: 0x3C6C1, offset: 0x13638E, size: 0x8, addend: 0x0, symName: __ZNSt3__16vectorINS0_I21llama_grammar_elementNS_9allocatorIS1_EEEENS2_IS4_EEE8__appendEm, symObjAddr: 0xA498, symBinAddr: 0x30C28, symSize: 0x1F0 }
  - { offsetInCU: 0x3CD97, offset: 0x136A64, size: 0x8, addend: 0x0, symName: __ZNKSt3__16vectorINS0_I21llama_grammar_elementNS_9allocatorIS1_EEEENS2_IS4_EEE20__throw_length_errorB8ue170006Ev, symObjAddr: 0xA688, symBinAddr: 0x30E18, symSize: 0x14 }
  - { offsetInCU: 0x3CDA3, offset: 0x136A70, size: 0x8, addend: 0x0, symName: __ZNSt3__16vectorI21llama_grammar_elementNS_9allocatorIS1_EEE18__assign_with_sizeB8ue170006IPS1_S6_EEvT_T0_l, symObjAddr: 0xA69C, symBinAddr: 0x30E2C, symSize: 0x144 }
  - { offsetInCU: 0x3D7CC, offset: 0x137499, size: 0x8, addend: 0x0, symName: __ZNSt3__16__treeINS_12__value_typeIjNS_12basic_stringIcNS_11char_traitsIcEENS_9allocatorIcEEEEEENS_19__map_value_compareIjS8_NS_4lessIjEELb1EEENS5_IS8_EEE7destroyEPNS_11__tree_nodeIS8_PvEE, symObjAddr: 0xA7E0, symBinAddr: 0x30F70, symSize: 0x60 }
  - { offsetInCU: 0x3DBF8, offset: 0x1378C5, size: 0x8, addend: 0x0, symName: __ZN20llama_grammar_parser16parse_alternatesEPKcRKNSt3__112basic_stringIcNS2_11char_traitsIcEENS2_9allocatorIcEEEEjb, symObjAddr: 0x3D0, symBinAddr: 0x26ED8, symSize: 0x494 }
  - { offsetInCU: 0x3EB5F, offset: 0x13882C, size: 0x8, addend: 0x0, symName: __ZN20llama_grammar_parser14parse_sequenceEPKcRKNSt3__112basic_stringIcNS2_11char_traitsIcEENS2_9allocatorIcEEEERNS2_6vectorI21llama_grammar_elementNS6_ISC_EEEEb, symObjAddr: 0x864, symBinAddr: 0x2736C, symSize: 0x194C }
  - { offsetInCU: 0x418D0, offset: 0x13B59D, size: 0x8, addend: 0x0, symName: __ZNKSt3__16vectorI21llama_grammar_elementNS_9allocatorIS1_EEE20__throw_length_errorB8ue170006Ev, symObjAddr: 0x9420, symBinAddr: 0x2FE88, symSize: 0x14 }
  - { offsetInCU: 0x4193E, offset: 0x13B60B, size: 0x8, addend: 0x0, symName: __ZL10parse_namePKc, symObjAddr: 0x23EC, symBinAddr: 0x28EF4, symSize: 0x138 }
  - { offsetInCU: 0x41C45, offset: 0x13B912, size: 0x8, addend: 0x0, symName: __ZL10parse_charPKc, symObjAddr: 0x21B0, symBinAddr: 0x28CB8, symSize: 0x23C }
  - { offsetInCU: 0x41FA1, offset: 0x13BC6E, size: 0x8, addend: 0x0, symName: __ZL9parse_intPKc, symObjAddr: 0x2F64, symBinAddr: 0x299CC, symSize: 0x118 }
  - { offsetInCU: 0x422C2, offset: 0x13BF8F, size: 0x8, addend: 0x0, symName: '__ZZN20llama_grammar_parser14parse_sequenceEPKcRKNSt3__112basic_stringIcNS2_11char_traitsIcEENS2_9allocatorIcEEEERNS2_6vectorI21llama_grammar_elementNS6_ISC_EEEEbENK3$_0clEii', symObjAddr: 0x25C4, symBinAddr: 0x2902C, symSize: 0x9A0 }
  - { offsetInCU: 0x4498A, offset: 0x13E657, size: 0x8, addend: 0x0, symName: '__ZZN20llama_grammar_parser14parse_sequenceEPKcRKNSt3__112basic_stringIcNS2_11char_traitsIcEENS2_9allocatorIcEEEERNS2_6vectorI21llama_grammar_elementNS6_ISC_EEEEbENK3$_0clEii', symObjAddr: 0x25C4, symBinAddr: 0x2902C, symSize: 0x9A0 }
  - { offsetInCU: 0x44A1D, offset: 0x13E6EA, size: 0x8, addend: 0x0, symName: __ZL9parse_hexPKci, symObjAddr: 0x91FC, symBinAddr: 0x2FC64, symSize: 0x224 }
  - { offsetInCU: 0x45513, offset: 0x13F1E0, size: 0x8, addend: 0x0, symName: __ZNSt3__16vectorI21llama_grammar_elementNS_9allocatorIS1_EEE18__insert_with_sizeB8ue170006INS_11__wrap_iterIPS1_EES8_EES8_NS6_IPKS1_EET_T0_l, symObjAddr: 0x9670, symBinAddr: 0x3003C, symSize: 0x3B4 }
  - { offsetInCU: 0x461A8, offset: 0x13FE75, size: 0x8, addend: 0x0, symName: __ZNSt3__16vectorI21llama_grammar_elementNS_9allocatorIS1_EEE8__appendEm, symObjAddr: 0x94D0, symBinAddr: 0x2FE9C, symSize: 0x1A0 }
  - { offsetInCU: 0x46636, offset: 0x140303, size: 0x8, addend: 0x0, symName: __ZNSt3__16vectorI21llama_grammar_elementNS_9allocatorIS1_EEE18__insert_with_sizeB8ue170006INS_11__wrap_iterIPS1_EES8_EES8_NS6_IPKS1_EET_T0_l, symObjAddr: 0x9670, symBinAddr: 0x3003C, symSize: 0x3B4 }
  - { offsetInCU: 0x46642, offset: 0x14030F, size: 0x8, addend: 0x0, symName: __ZN20llama_grammar_parser10parse_ruleEPKc, symObjAddr: 0x307C, symBinAddr: 0x29AE4, symSize: 0x434 }
  - { offsetInCU: 0x473E6, offset: 0x1410B3, size: 0x8, addend: 0x0, symName: __ZN20llama_grammar_parser5parseEPKc, symObjAddr: 0x34B0, symBinAddr: 0x29F18, symSize: 0x368 }
  - { offsetInCU: 0x48360, offset: 0x14202D, size: 0x8, addend: 0x0, symName: __ZN20llama_grammar_parser5printEP7__sFILE, symObjAddr: 0x3818, symBinAddr: 0x2A280, symSize: 0x998 }
  - { offsetInCU: 0x49D85, offset: 0x143A52, size: 0x8, addend: 0x0, symName: __ZNSt3__16__treeINS_12__value_typeIjNS_12basic_stringIcNS_11char_traitsIcEENS_9allocatorIcEEEEEENS_19__map_value_compareIjS8_NS_4lessIjEELb1EEENS5_IS8_EEE7destroyEPNS_11__tree_nodeIS8_PvEE, symObjAddr: 0xA7E0, symBinAddr: 0x30F70, symSize: 0x60 }
  - { offsetInCU: 0x4A4E4, offset: 0x1441B1, size: 0x8, addend: 0x0, symName: __ZNK20llama_grammar_parser7c_rulesEv, symObjAddr: 0x41B0, symBinAddr: 0x2AC18, symSize: 0x1C8 }
  - { offsetInCU: 0x4ACC2, offset: 0x14498F, size: 0x8, addend: 0x0, symName: __ZNKSt3__16vectorIPK21llama_grammar_elementNS_9allocatorIS3_EEE20__throw_length_errorB8ue170006Ev, symObjAddr: 0x9CB8, symBinAddr: 0x30610, symSize: 0x14 }
  - { offsetInCU: 0x4ACEB, offset: 0x1449B8, size: 0x8, addend: 0x0, symName: __ZNSt3__114__split_bufferINS_6vectorIPK21llama_grammar_elementNS_9allocatorIS4_EEEERNS5_IS7_EEED1Ev, symObjAddr: 0x9CCC, symBinAddr: 0x30624, symSize: 0x6C }
  - { offsetInCU: 0x4ACF7, offset: 0x1449C4, size: 0x8, addend: 0x0, symName: __Z23llama_grammar_get_rulesPK13llama_grammar, symObjAddr: 0x4378, symBinAddr: 0x2ADE0, symSize: 0x8 }
  - { offsetInCU: 0x4AD27, offset: 0x1449F4, size: 0x8, addend: 0x0, symName: __Z24llama_grammar_get_stacksP13llama_grammar, symObjAddr: 0x4380, symBinAddr: 0x2ADE8, symSize: 0x8 }
  - { offsetInCU: 0x4B2B4, offset: 0x144F81, size: 0x8, addend: 0x0, symName: __Z20llama_grammar_acceptP13llama_grammarj, symObjAddr: 0x4388, symBinAddr: 0x2ADF0, symSize: 0x428 }
  - { offsetInCU: 0x4C011, offset: 0x145CDE, size: 0x8, addend: 0x0, symName: __ZNSt3__16vectorINS0_IPK21llama_grammar_elementNS_9allocatorIS3_EEEENS4_IS6_EEE7reserveEm, symObjAddr: 0x47B0, symBinAddr: 0x2B218, symSize: 0x134 }
  - { offsetInCU: 0x4C55D, offset: 0x14622A, size: 0x8, addend: 0x0, symName: __ZL27llama_grammar_advance_stackRKNSt3__16vectorINS0_I21llama_grammar_elementNS_9allocatorIS1_EEEENS2_IS4_EEEERKNS0_IPKS1_NS2_ISA_EEEERNS0_ISC_NS2_ISC_EEEE, symObjAddr: 0x48E4, symBinAddr: 0x2B34C, symSize: 0x510 }
  - { offsetInCU: 0x4C56F, offset: 0x14623C, size: 0x8, addend: 0x0, symName: __ZL27llama_grammar_advance_stackRKNSt3__16vectorINS0_I21llama_grammar_elementNS_9allocatorIS1_EEEENS2_IS4_EEEERKNS0_IPKS1_NS2_ISA_EEEERNS0_ISC_NS2_ISC_EEEE, symObjAddr: 0x48E4, symBinAddr: 0x2B34C, symSize: 0x510 }
  - { offsetInCU: 0x4D90A, offset: 0x1475D7, size: 0x8, addend: 0x0, symName: __ZNSt3__16vectorINS0_IPK21llama_grammar_elementNS_9allocatorIS3_EEEENS4_IS6_EEED1B8ue170006Ev, symObjAddr: 0x4DF4, symBinAddr: 0x2B85C, symSize: 0x74 }
  - { offsetInCU: 0x4DE2B, offset: 0x147AF8, size: 0x8, addend: 0x0, symName: __ZNKSt3__16vectorINS0_IPK21llama_grammar_elementNS_9allocatorIS3_EEEENS4_IS6_EEE20__throw_length_errorB8ue170006Ev, symObjAddr: 0x9D38, symBinAddr: 0x30690, symSize: 0x14 }
  - { offsetInCU: 0x4DE54, offset: 0x147B21, size: 0x8, addend: 0x0, symName: __ZNSt3__110shared_ptrINS_13__empty_stateIcEEED1B8ue170006Ev, symObjAddr: 0x9D4C, symBinAddr: 0x306A4, symSize: 0x68 }
  - { offsetInCU: 0x4E101, offset: 0x147DCE, size: 0x8, addend: 0x0, symName: __ZNSt3__16vectorINS0_IPK21llama_grammar_elementNS_9allocatorIS3_EEEENS4_IS6_EEE24__emplace_back_slow_pathIJRKS6_EEEvDpOT_, symObjAddr: 0x9A98, symBinAddr: 0x303F0, symSize: 0x220 }
  - { offsetInCU: 0x4F324, offset: 0x148FF1, size: 0x8, addend: 0x0, symName: __Z41llama_grammar_reject_candidates_for_stackRKNSt3__16vectorINS0_I21llama_grammar_elementNS_9allocatorIS1_EEEENS2_IS4_EEEERKNS0_IPKS1_NS2_ISA_EEEERKNS0_I23llama_grammar_candidateNS2_ISF_EEEE, symObjAddr: 0x4E68, symBinAddr: 0x2B8D0, symSize: 0xDF0 }
  - { offsetInCU: 0x52019, offset: 0x14BCE6, size: 0x8, addend: 0x0, symName: __ZL31llama_grammar_reject_candidatesRKNSt3__16vectorINS0_I21llama_grammar_elementNS_9allocatorIS1_EEEENS2_IS4_EEEERKNS0_INS0_IPKS1_NS2_ISA_EEEENS2_ISC_EEEERKNS0_I23llama_grammar_candidateNS2_ISH_EEEE, symObjAddr: 0x5C58, symBinAddr: 0x2C6C0, symSize: 0x128 }
  - { offsetInCU: 0x5246D, offset: 0x14C13A, size: 0x8, addend: 0x0, symName: __ZNKSt3__16vectorI23llama_grammar_candidateNS_9allocatorIS1_EEE20__throw_length_errorB8ue170006Ev, symObjAddr: 0xA840, symBinAddr: 0x30FD0, symSize: 0x14 }
  - { offsetInCU: 0x52A27, offset: 0x14C6F4, size: 0x8, addend: 0x0, symName: __Z23llama_grammar_init_implPK11llama_vocabPPK21llama_grammar_elementmm, symObjAddr: 0x5D80, symBinAddr: 0x2C7E8, symSize: 0x7AC }
  - { offsetInCU: 0x54A31, offset: 0x14E6FE, size: 0x8, addend: 0x0, symName: __ZNSt3__16vectorINS0_I21llama_grammar_elementNS_9allocatorIS1_EEEENS2_IS4_EEEC1Em, symObjAddr: 0x652C, symBinAddr: 0x2CF94, symSize: 0xCC }
  - { offsetInCU: 0x54C9E, offset: 0x14E96B, size: 0x8, addend: 0x0, symName: __ZL35llama_grammar_detect_left_recursionRKNSt3__16vectorINS0_I21llama_grammar_elementNS_9allocatorIS1_EEEENS2_IS4_EEEEmPNS0_IbNS2_IbEEEESB_SB_, symObjAddr: 0x65F8, symBinAddr: 0x2D060, symSize: 0x198 }
  - { offsetInCU: 0x55035, offset: 0x14ED02, size: 0x8, addend: 0x0, symName: __ZNSt3__16vectorINS0_I21llama_grammar_elementNS_9allocatorIS1_EEEENS2_IS4_EEED1B8ue170006Ev, symObjAddr: 0x6790, symBinAddr: 0x2D1F8, symSize: 0x74 }
  - { offsetInCU: 0x554BB, offset: 0x14F188, size: 0x8, addend: 0x0, symName: __ZNKSt3__16vectorINS0_I21llama_grammar_elementNS_9allocatorIS1_EEEENS2_IS4_EEE20__throw_length_errorB8ue170006Ev, symObjAddr: 0xA688, symBinAddr: 0x30E18, symSize: 0x14 }
  - { offsetInCU: 0x554E4, offset: 0x14F1B1, size: 0x8, addend: 0x0, symName: __ZNSt3__16vectorI21llama_grammar_elementNS_9allocatorIS1_EEE18__assign_with_sizeB8ue170006IPS1_S6_EEvT_T0_l, symObjAddr: 0xA69C, symBinAddr: 0x30E2C, symSize: 0x144 }
  - { offsetInCU: 0x554F0, offset: 0x14F1BD, size: 0x8, addend: 0x0, symName: __ZNSt3__16vectorINS0_I21llama_grammar_elementNS_9allocatorIS1_EEEENS2_IS4_EEEC1Em.cold.1, symObjAddr: 0x17218, symBinAddr: 0x1CE718, symSize: 0x48 }
  - { offsetInCU: 0x5656B, offset: 0x150238, size: 0x8, addend: 0x0, symName: __Z23llama_grammar_init_implPK11llama_vocabPKcS3_bPS3_mPKim, symObjAddr: 0x6804, symBinAddr: 0x2D26C, symSize: 0xF5C }
  - { offsetInCU: 0x5AA6E, offset: 0x15473B, size: 0x8, addend: 0x0, symName: __ZNSt3__16__treeINS_12__value_typeINS_12basic_stringIcNS_11char_traitsIcEENS_9allocatorIcEEEEjEENS_19__map_value_compareIS7_S8_NS_4lessIS7_EELb1EEENS5_IS8_EEE7destroyEPNS_11__tree_nodeIS8_PvEE, symObjAddr: 0x9DB4, symBinAddr: 0x3070C, symSize: 0x60 }
  - { offsetInCU: 0x5ACD6, offset: 0x1549A3, size: 0x8, addend: 0x0, symName: __ZNSt3__16vectorI29llama_grammar_trigger_patternNS_9allocatorIS1_EEE24__emplace_back_slow_pathIJEEEvDpOT_, symObjAddr: 0xA87C, symBinAddr: 0x30FE4, symSize: 0x2B4 }
  - { offsetInCU: 0x5B861, offset: 0x15552E, size: 0x8, addend: 0x0, symName: __ZNSt3__111basic_regexIcNS_12regex_traitsIcEEEC2B8ue170006INS_11char_traitsIcEENS_9allocatorIcEEEERKNS_12basic_stringIcT_T0_EENS_15regex_constants18syntax_option_typeE, symObjAddr: 0xAC64, symBinAddr: 0x313CC, symSize: 0xCC }
  - { offsetInCU: 0x5BA37, offset: 0x155704, size: 0x8, addend: 0x0, symName: __ZNSt3__16vectorI29llama_grammar_trigger_patternNS_9allocatorIS1_EEE24__emplace_back_slow_pathIJEEEvDpOT_, symObjAddr: 0xA87C, symBinAddr: 0x30FE4, symSize: 0x2B4 }
  - { offsetInCU: 0x5BA43, offset: 0x155710, size: 0x8, addend: 0x0, symName: __ZN20llama_grammar_parserD1Ev, symObjAddr: 0x7894, symBinAddr: 0x2E2FC, symSize: 0x80 }
  - { offsetInCU: 0x5BDF4, offset: 0x155AC1, size: 0x8, addend: 0x0, symName: __ZNSt3__16vectorI29llama_grammar_trigger_patternNS_9allocatorIS1_EEED1B8ue170006Ev, symObjAddr: 0x77C8, symBinAddr: 0x2E230, symSize: 0xCC }
  - { offsetInCU: 0x5C1CF, offset: 0x155E9C, size: 0x8, addend: 0x0, symName: __ZNSt3__111basic_regexIcNS_12regex_traitsIcEEED1Ev, symObjAddr: 0x7760, symBinAddr: 0x2E1C8, symSize: 0x68 }
  - { offsetInCU: 0x5CB06, offset: 0x1567D3, size: 0x8, addend: 0x0, symName: __Z23llama_grammar_free_implP13llama_grammar, symObjAddr: 0x7914, symBinAddr: 0x2E37C, symSize: 0x1C }
  - { offsetInCU: 0x5CB5C, offset: 0x156829, size: 0x8, addend: 0x0, symName: __ZN13llama_grammarD2Ev, symObjAddr: 0x9E14, symBinAddr: 0x3076C, symSize: 0x1AC }
  - { offsetInCU: 0x5DA1C, offset: 0x1576E9, size: 0x8, addend: 0x0, symName: __Z24llama_grammar_clone_implRK13llama_grammar, symObjAddr: 0x7930, symBinAddr: 0x2E398, symSize: 0x334 }
  - { offsetInCU: 0x5E4E3, offset: 0x1581B0, size: 0x8, addend: 0x0, symName: __ZNSt3__16vectorINS0_I21llama_grammar_elementNS_9allocatorIS1_EEEENS2_IS4_EEEC2ERKS6_, symObjAddr: 0x13F94, symBinAddr: 0x3A6E8, symSize: 0xD4 }
  - { offsetInCU: 0x5E796, offset: 0x158463, size: 0x8, addend: 0x0, symName: __ZNSt3__16vectorINS0_IPK21llama_grammar_elementNS_9allocatorIS3_EEEENS4_IS6_EEEC2ERKS8_, symObjAddr: 0x141C8, symBinAddr: 0x3A91C, symSize: 0xD4 }
  - { offsetInCU: 0x5EA49, offset: 0x158716, size: 0x8, addend: 0x0, symName: __ZNSt3__16vectorI29llama_grammar_trigger_patternNS_9allocatorIS1_EEEC2ERKS4_, symObjAddr: 0x143FC, symBinAddr: 0x3AB50, symSize: 0xE0 }
  - { offsetInCU: 0x5F223, offset: 0x158EF0, size: 0x8, addend: 0x0, symName: __Z24llama_grammar_apply_implRK13llama_grammarP22llama_token_data_array, symObjAddr: 0x7C64, symBinAddr: 0x2E6CC, symSize: 0x4F0 }
  - { offsetInCU: 0x60853, offset: 0x15A520, size: 0x8, addend: 0x0, symName: __ZNSt3__16vectorINS_4pairINS0_IjNS_9allocatorIjEEEE18llama_partial_utf8EENS2_IS6_EEE7reserveEm, symObjAddr: 0x8154, symBinAddr: 0x2EBBC, symSize: 0x100 }
  - { offsetInCU: 0x60DE6, offset: 0x15AAB3, size: 0x8, addend: 0x0, symName: __ZL11decode_utf8RKNSt3__112basic_stringIcNS_11char_traitsIcEENS_9allocatorIcEEEE18llama_partial_utf8, symObjAddr: 0x8254, symBinAddr: 0x2ECBC, symSize: 0x948 }
  - { offsetInCU: 0x60DF8, offset: 0x15AAC5, size: 0x8, addend: 0x0, symName: __ZNSt3__16vectorINS_4pairINS0_IjNS_9allocatorIjEEEE18llama_partial_utf8EENS2_IS6_EEE21__push_back_slow_pathIS6_EEvOT_, symObjAddr: 0x14714, symBinAddr: 0x3AE68, symSize: 0x15C }
  - { offsetInCU: 0x614AA, offset: 0x15B177, size: 0x8, addend: 0x0, symName: __ZNKSt3__111basic_regexIcNS_12regex_traitsIcEEE8__searchINS_9allocatorINS_9sub_matchIPKcEEEEEEbS8_S8_RNS_13match_resultsIS8_T_EENS_15regex_constants15match_flag_typeE, symObjAddr: 0x14870, symBinAddr: 0x3AFC4, symSize: 0x274 }
  - { offsetInCU: 0x614BF, offset: 0x15B18C, size: 0x8, addend: 0x0, symName: __ZNSt3__16vectorINS_4pairINS0_IjNS_9allocatorIjEEEE18llama_partial_utf8EENS2_IS6_EEED1B8ue170006Ev, symObjAddr: 0x8B9C, symBinAddr: 0x2F604, symSize: 0x74 }
  - { offsetInCU: 0x61958, offset: 0x15B625, size: 0x8, addend: 0x0, symName: __ZNKSt3__16vectorINS_4pairINS0_IjNS_9allocatorIjEEEE18llama_partial_utf8EENS2_IS6_EEE20__throw_length_errorB8ue170006Ev, symObjAddr: 0x14700, symBinAddr: 0x3AE54, symSize: 0x14 }
  - { offsetInCU: 0x61981, offset: 0x15B64E, size: 0x8, addend: 0x0, symName: __ZNSt3__16vectorINS_4pairINS0_IjNS_9allocatorIjEEEE18llama_partial_utf8EENS2_IS6_EEE21__push_back_slow_pathIS6_EEvOT_, symObjAddr: 0x14714, symBinAddr: 0x3AE68, symSize: 0x15C }
  - { offsetInCU: 0x61F3A, offset: 0x15BC07, size: 0x8, addend: 0x0, symName: __ZNKSt3__16vectorIjNS_9allocatorIjEEE20__throw_length_errorB8ue170006Ev, symObjAddr: 0x9FC0, symBinAddr: 0x30918, symSize: 0x14 }
  - { offsetInCU: 0x62640, offset: 0x15C30D, size: 0x8, addend: 0x0, symName: __Z25llama_grammar_accept_implR13llama_grammari, symObjAddr: 0x8C10, symBinAddr: 0x2F678, symSize: 0x4AC }
  - { offsetInCU: 0x63E88, offset: 0x15DB55, size: 0x8, addend: 0x0, symName: __ZNKSt3__111basic_regexIcNS_12regex_traitsIcEEE8__searchINS_9allocatorINS_9sub_matchIPKcEEEEEEbS8_S8_RNS_13match_resultsIS8_T_EENS_15regex_constants15match_flag_typeE, symObjAddr: 0x14870, symBinAddr: 0x3AFC4, symSize: 0x274 }
  - { offsetInCU: 0x6429D, offset: 0x15DF6A, size: 0x8, addend: 0x0, symName: __ZNSt3__113match_resultsINS_11__wrap_iterIPKcEENS_9allocatorINS_9sub_matchIS4_EEEEE8__assignB8ue170006IS3_NS5_INS6_IS3_EEEEEEvS4_S4_RKNS0_IT_T0_EEb, symObjAddr: 0x14AE4, symBinAddr: 0x3B238, symSize: 0x1BC }
  - { offsetInCU: 0x64A31, offset: 0x15E6FE, size: 0x8, addend: 0x0, symName: __Z24llama_grammar_accept_strR13llama_grammarRKNSt3__112basic_stringIcNS1_11char_traitsIcEENS1_9allocatorIcEEEE, symObjAddr: 0x90BC, symBinAddr: 0x2FB24, symSize: 0x140 }
  - { offsetInCU: 0x64FAE, offset: 0x15EC7B, size: 0x8, addend: 0x0, symName: __ZNSt3__14pairINS_12basic_stringIcNS_11char_traitsIcEENS_9allocatorIcEEEES6_ED1Ev, symObjAddr: 0xFE38, symBinAddr: 0x3658C, symSize: 0x58 }
  - { offsetInCU: 0x656B8, offset: 0x15F385, size: 0x8, addend: 0x0, symName: __ZNSt3__114__split_bufferINS_6vectorIPK21llama_grammar_elementNS_9allocatorIS4_EEEERNS5_IS7_EEED1Ev, symObjAddr: 0x9CCC, symBinAddr: 0x30624, symSize: 0x6C }
  - { offsetInCU: 0x65959, offset: 0x15F626, size: 0x8, addend: 0x0, symName: __ZNSt3__110shared_ptrINS_13__empty_stateIcEEED1B8ue170006Ev, symObjAddr: 0x9D4C, symBinAddr: 0x306A4, symSize: 0x68 }
  - { offsetInCU: 0x66732, offset: 0x1603FF, size: 0x8, addend: 0x0, symName: __ZNKSt3__16vectorI29llama_grammar_trigger_patternNS_9allocatorIS1_EEE20__throw_length_errorB8ue170006Ev, symObjAddr: 0xAC50, symBinAddr: 0x313B8, symSize: 0x14 }
  - { offsetInCU: 0x6675B, offset: 0x160428, size: 0x8, addend: 0x0, symName: __ZNSt3__111basic_regexIcNS_12regex_traitsIcEEEC2B8ue170006INS_11char_traitsIcEENS_9allocatorIcEEEERKNS_12basic_stringIcT_T0_EENS_15regex_constants18syntax_option_typeE, symObjAddr: 0xAC64, symBinAddr: 0x313CC, symSize: 0xCC }
  - { offsetInCU: 0x66767, offset: 0x160434, size: 0x8, addend: 0x0, symName: __ZNSt3__114__split_bufferI29llama_grammar_trigger_patternRNS_9allocatorIS1_EEED1Ev, symObjAddr: 0xAB9C, symBinAddr: 0x31304, symSize: 0xB4 }
  - { offsetInCU: 0x66B31, offset: 0x1607FE, size: 0x8, addend: 0x0, symName: __ZNSt3__111basic_regexIcNS_12regex_traitsIcEEEC1B8ue170006Ev, symObjAddr: 0xAB30, symBinAddr: 0x31298, symSize: 0x6C }
  - { offsetInCU: 0x66C34, offset: 0x160901, size: 0x8, addend: 0x0, symName: __ZNSt3__111basic_regexIcNS_12regex_traitsIcEEE7__parseINS_11__wrap_iterIPKcEEEET_S9_S9_, symObjAddr: 0xAD30, symBinAddr: 0x31498, symSize: 0x1F8 }
  - { offsetInCU: 0x6772E, offset: 0x1613FB, size: 0x8, addend: 0x0, symName: __ZNSt3__111basic_regexIcNS_12regex_traitsIcEEE13__parse_egrepINS_11__wrap_iterIPKcEEEET_S9_S9_, symObjAddr: 0xB678, symBinAddr: 0x31DE0, symSize: 0x1B8 }
  - { offsetInCU: 0x67C82, offset: 0x16194F, size: 0x8, addend: 0x0, symName: __ZNSt3__111basic_regexIcNS_12regex_traitsIcEEE24__parse_extended_reg_expINS_11__wrap_iterIPKcEEEET_S9_S9_, symObjAddr: 0xB358, symBinAddr: 0x31AC0, symSize: 0x168 }
  - { offsetInCU: 0x67FBB, offset: 0x161C88, size: 0x8, addend: 0x0, symName: __ZNSt3__111basic_regexIcNS_12regex_traitsIcEEE12__parse_grepINS_11__wrap_iterIPKcEEEET_S9_S9_, symObjAddr: 0xB4C0, symBinAddr: 0x31C28, symSize: 0x1B8 }
  - { offsetInCU: 0x67FD0, offset: 0x161C9D, size: 0x8, addend: 0x0, symName: __ZNSt3__111basic_regexIcNS_12regex_traitsIcEEE16__parse_ecma_expINS_11__wrap_iterIPKcEEEET_S9_S9_, symObjAddr: 0xAF74, symBinAddr: 0x316DC, symSize: 0x26C }
  - { offsetInCU: 0x68563, offset: 0x162230, size: 0x8, addend: 0x0, symName: __ZNSt3__111basic_regexIcNS_12regex_traitsIcEEE21__parse_basic_reg_expINS_11__wrap_iterIPKcEEEET_S9_S9_, symObjAddr: 0xB1E0, symBinAddr: 0x31948, symSize: 0x178 }
  - { offsetInCU: 0x688F7, offset: 0x1625C4, size: 0x8, addend: 0x0, symName: __ZNSt3__111basic_regexIcNS_12regex_traitsIcEEE24__parse_extended_reg_expINS_11__wrap_iterIPKcEEEET_S9_S9_, symObjAddr: 0xB358, symBinAddr: 0x31AC0, symSize: 0x168 }
  - { offsetInCU: 0x6890C, offset: 0x1625D9, size: 0x8, addend: 0x0, symName: __ZNSt3__111basic_regexIcNS_12regex_traitsIcEEE12__parse_grepINS_11__wrap_iterIPKcEEEET_S9_S9_, symObjAddr: 0xB4C0, symBinAddr: 0x31C28, symSize: 0x1B8 }
  - { offsetInCU: 0x69096, offset: 0x162D63, size: 0x8, addend: 0x0, symName: __ZNSt3__111basic_regexIcNS_12regex_traitsIcEEE17__parse_assertionINS_11__wrap_iterIPKcEEEET_S9_S9_, symObjAddr: 0xBA64, symBinAddr: 0x321CC, symSize: 0x2F4 }
  - { offsetInCU: 0x69704, offset: 0x1633D1, size: 0x8, addend: 0x0, symName: __ZNSt3__111basic_regexIcNS_12regex_traitsIcEEE12__parse_atomINS_11__wrap_iterIPKcEEEET_S9_S9_, symObjAddr: 0xBD58, symBinAddr: 0x324C0, symSize: 0x268 }
  - { offsetInCU: 0x69B42, offset: 0x16380F, size: 0x8, addend: 0x0, symName: __ZNSt3__111basic_regexIcNS_12regex_traitsIcEEE23__parse_ERE_dupl_symbolINS_11__wrap_iterIPKcEEEET_S9_S9_PNS_16__owns_one_stateIcEEjj, symObjAddr: 0xBFC0, symBinAddr: 0x32728, symSize: 0x3FC }
  - { offsetInCU: 0x69B57, offset: 0x163824, size: 0x8, addend: 0x0, symName: __ZNSt3__111basic_regexIcNS_12regex_traitsIcEEE23__parse_ERE_dupl_symbolINS_11__wrap_iterIPKcEEEET_S9_S9_PNS_16__owns_one_stateIcEEjj, symObjAddr: 0xBFC0, symBinAddr: 0x32728, symSize: 0x3FC }
  - { offsetInCU: 0x6A1A8, offset: 0x163E75, size: 0x8, addend: 0x0, symName: __ZNSt3__111basic_regexIcNS_12regex_traitsIcEEE16__push_lookaheadERKS3_bj, symObjAddr: 0xC3BC, symBinAddr: 0x32B24, symSize: 0xB8 }
  - { offsetInCU: 0x6A3C9, offset: 0x164096, size: 0x8, addend: 0x0, symName: __ZNSt3__111basic_regexIcNS_12regex_traitsIcEEE18__parse_nondupl_REINS_11__wrap_iterIPKcEEEET_S9_S9_, symObjAddr: 0x13494, symBinAddr: 0x39BE8, symSize: 0x1FC }
  - { offsetInCU: 0x6A978, offset: 0x164645, size: 0x8, addend: 0x0, symName: __ZNSt3__111basic_regexIcNS_12regex_traitsIcEEE22__parse_RE_dupl_symbolINS_11__wrap_iterIPKcEEEET_S9_S9_PNS_16__owns_one_stateIcEEjj, symObjAddr: 0x13690, symBinAddr: 0x39DE4, symSize: 0x2BC }
  - { offsetInCU: 0x6A98D, offset: 0x16465A, size: 0x8, addend: 0x0, symName: __ZNSt3__111basic_regexIcNS_12regex_traitsIcEEE22__parse_RE_dupl_symbolINS_11__wrap_iterIPKcEEEET_S9_S9_PNS_16__owns_one_stateIcEEjj, symObjAddr: 0x13690, symBinAddr: 0x39DE4, symSize: 0x2BC }
  - { offsetInCU: 0x6AF31, offset: 0x164BFE, size: 0x8, addend: 0x0, symName: __ZNSt3__111basic_regexIcNS_12regex_traitsIcEEE32__parse_one_char_or_coll_elem_REINS_11__wrap_iterIPKcEEEET_S9_S9_, symObjAddr: 0x1394C, symBinAddr: 0x3A0A0, symSize: 0x15C }
  - { offsetInCU: 0x6AF8B, offset: 0x164C58, size: 0x8, addend: 0x0, symName: __ZNSt3__111basic_regexIcNS_12regex_traitsIcEEE22__parse_ERE_expressionINS_11__wrap_iterIPKcEEEET_S9_S9_, symObjAddr: 0x13BD0, symBinAddr: 0x3A324, symSize: 0x288 }
  - { offsetInCU: 0x6B475, offset: 0x165142, size: 0x8, addend: 0x0, symName: __ZNSt3__111basic_regexIcNS_12regex_traitsIcEEE20__parse_ORD_CHAR_EREINS_11__wrap_iterIPKcEEEET_S9_S9_, symObjAddr: 0x13E58, symBinAddr: 0x3A5AC, symSize: 0x78 }
  - { offsetInCU: 0x6B48A, offset: 0x165157, size: 0x8, addend: 0x0, symName: __ZNSt3__111__end_stateIcED1Ev, symObjAddr: 0xB87C, symBinAddr: 0x31FE4, symSize: 0x4 }
  - { offsetInCU: 0x6B4B6, offset: 0x165183, size: 0x8, addend: 0x0, symName: __ZNSt3__111__end_stateIcED0Ev, symObjAddr: 0xB880, symBinAddr: 0x31FE8, symSize: 0x4 }
  - { offsetInCU: 0x6B4D6, offset: 0x1651A3, size: 0x8, addend: 0x0, symName: __ZNKSt3__111__end_stateIcE6__execERNS_7__stateIcEE, symObjAddr: 0xB884, symBinAddr: 0x31FEC, symSize: 0xC }
  - { offsetInCU: 0x6B50C, offset: 0x1651D9, size: 0x8, addend: 0x0, symName: __ZNKSt3__16__nodeIcE12__exec_splitEbRNS_7__stateIcEE, symObjAddr: 0xB890, symBinAddr: 0x31FF8, symSize: 0x4 }
  - { offsetInCU: 0x6B54C, offset: 0x165219, size: 0x8, addend: 0x0, symName: __ZNKSt3__16__nodeIcE6__execERNS_7__stateIcEE, symObjAddr: 0xB894, symBinAddr: 0x31FFC, symSize: 0x4 }
  - { offsetInCU: 0x6B598, offset: 0x165265, size: 0x8, addend: 0x0, symName: __ZNSt3__120__shared_ptr_pointerIPNS_13__empty_stateIcEENS_10shared_ptrIS2_E27__shared_ptr_default_deleteIS2_S2_EENS_9allocatorIS2_EEED1Ev, symObjAddr: 0xB898, symBinAddr: 0x32000, symSize: 0x4 }
  - { offsetInCU: 0x6B5BA, offset: 0x165287, size: 0x8, addend: 0x0, symName: __ZNSt3__120__shared_ptr_pointerIPNS_13__empty_stateIcEENS_10shared_ptrIS2_E27__shared_ptr_default_deleteIS2_S2_EENS_9allocatorIS2_EEED1Ev, symObjAddr: 0xB898, symBinAddr: 0x32000, symSize: 0x4 }
  - { offsetInCU: 0x6B5F1, offset: 0x1652BE, size: 0x8, addend: 0x0, symName: __ZNSt3__120__shared_ptr_pointerIPNS_13__empty_stateIcEENS_10shared_ptrIS2_E27__shared_ptr_default_deleteIS2_S2_EENS_9allocatorIS2_EEED0Ev, symObjAddr: 0xB89C, symBinAddr: 0x32004, symSize: 0x14 }
  - { offsetInCU: 0x6B656, offset: 0x165323, size: 0x8, addend: 0x0, symName: __ZNSt3__120__shared_ptr_pointerIPNS_13__empty_stateIcEENS_10shared_ptrIS2_E27__shared_ptr_default_deleteIS2_S2_EENS_9allocatorIS2_EEE16__on_zero_sharedEv, symObjAddr: 0xB8B0, symBinAddr: 0x32018, symSize: 0x18 }
  - { offsetInCU: 0x6B702, offset: 0x1653CF, size: 0x8, addend: 0x0, symName: __ZNKSt3__120__shared_ptr_pointerIPNS_13__empty_stateIcEENS_10shared_ptrIS2_E27__shared_ptr_default_deleteIS2_S2_EENS_9allocatorIS2_EEE13__get_deleterERKSt9type_info, symObjAddr: 0xB8C8, symBinAddr: 0x32030, symSize: 0x74 }
  - { offsetInCU: 0x6B7DA, offset: 0x1654A7, size: 0x8, addend: 0x0, symName: __ZNSt3__120__shared_ptr_pointerIPNS_13__empty_stateIcEENS_10shared_ptrIS2_E27__shared_ptr_default_deleteIS2_S2_EENS_9allocatorIS2_EEE21__on_zero_shared_weakEv, symObjAddr: 0xB93C, symBinAddr: 0x320A4, symSize: 0x4 }
  - { offsetInCU: 0x6B80F, offset: 0x1654DC, size: 0x8, addend: 0x0, symName: __ZNSt3__120__shared_ptr_pointerIPNS_13__empty_stateIcEENS_10shared_ptrIS2_E27__shared_ptr_default_deleteIS2_S2_EENS_9allocatorIS2_EEE21__on_zero_shared_weakEv, symObjAddr: 0xB93C, symBinAddr: 0x320A4, symSize: 0x4 }
  - { offsetInCU: 0x6B832, offset: 0x1654FF, size: 0x8, addend: 0x0, symName: __ZNSt3__120__shared_ptr_pointerIPNS_13__empty_stateIcEENS_10shared_ptrIS2_E27__shared_ptr_default_deleteIS2_S2_EENS_9allocatorIS2_EEE21__on_zero_shared_weakEv, symObjAddr: 0xB93C, symBinAddr: 0x320A4, symSize: 0x4 }
  - { offsetInCU: 0x6B85F, offset: 0x16552C, size: 0x8, addend: 0x0, symName: __ZNSt3__120__shared_ptr_pointerIPNS_13__empty_stateIcEENS_10shared_ptrIS2_E27__shared_ptr_default_deleteIS2_S2_EENS_9allocatorIS2_EEE21__on_zero_shared_weakEv, symObjAddr: 0xB93C, symBinAddr: 0x320A4, symSize: 0x4 }
  - { offsetInCU: 0x6B885, offset: 0x165552, size: 0x8, addend: 0x0, symName: __ZNSt3__120__shared_ptr_pointerIPNS_13__empty_stateIcEENS_10shared_ptrIS2_E27__shared_ptr_default_deleteIS2_S2_EENS_9allocatorIS2_EEE21__on_zero_shared_weakEv, symObjAddr: 0xB93C, symBinAddr: 0x320A4, symSize: 0x4 }
  - { offsetInCU: 0x6B8AF, offset: 0x16557C, size: 0x8, addend: 0x0, symName: __ZNSt3__113__empty_stateIcED1Ev, symObjAddr: 0xB940, symBinAddr: 0x320A8, symSize: 0x44 }
  - { offsetInCU: 0x6B917, offset: 0x1655E4, size: 0x8, addend: 0x0, symName: __ZNSt3__113__empty_stateIcED0Ev, symObjAddr: 0xB984, symBinAddr: 0x320EC, symSize: 0x44 }
  - { offsetInCU: 0x6B9B7, offset: 0x165684, size: 0x8, addend: 0x0, symName: __ZNKSt3__113__empty_stateIcE6__execERNS_7__stateIcEE, symObjAddr: 0xB9C8, symBinAddr: 0x32130, symSize: 0x14 }
  - { offsetInCU: 0x6BA0A, offset: 0x1656D7, size: 0x8, addend: 0x0, symName: __ZNSt3__116__owns_one_stateIcED1Ev, symObjAddr: 0xB9DC, symBinAddr: 0x32144, symSize: 0x44 }
  - { offsetInCU: 0x6BA71, offset: 0x16573E, size: 0x8, addend: 0x0, symName: __ZNSt3__116__owns_one_stateIcED0Ev, symObjAddr: 0xBA20, symBinAddr: 0x32188, symSize: 0x44 }
  - { offsetInCU: 0x6BBE1, offset: 0x1658AE, size: 0x8, addend: 0x0, symName: __ZNSt3__111basic_regexIcNS_12regex_traitsIcEEE16__push_lookaheadERKS3_bj, symObjAddr: 0xC3BC, symBinAddr: 0x32B24, symSize: 0xB8 }
  - { offsetInCU: 0x6BFCA, offset: 0x165C97, size: 0x8, addend: 0x0, symName: __ZNSt3__111basic_regexIcNS_12regex_traitsIcEEE26__parse_bracket_expressionINS_11__wrap_iterIPKcEEEET_S9_S9_, symObjAddr: 0xDA64, symBinAddr: 0x341CC, symSize: 0x150 }
  - { offsetInCU: 0x6C1F8, offset: 0x165EC5, size: 0x8, addend: 0x0, symName: __ZNSt3__111basic_regexIcNS_12regex_traitsIcEEE19__parse_atom_escapeINS_11__wrap_iterIPKcEEEET_S9_S9_, symObjAddr: 0xD900, symBinAddr: 0x34068, symSize: 0x164 }
  - { offsetInCU: 0x6C3D4, offset: 0x1660A1, size: 0x8, addend: 0x0, symName: __ZNSt3__111basic_regexIcNS_12regex_traitsIcEEE26__parse_bracket_expressionINS_11__wrap_iterIPKcEEEET_S9_S9_, symObjAddr: 0xDA64, symBinAddr: 0x341CC, symSize: 0x150 }
  - { offsetInCU: 0x6C3E9, offset: 0x1660B6, size: 0x8, addend: 0x0, symName: __ZNSt3__111basic_regexIcNS_12regex_traitsIcEEE25__parse_pattern_characterINS_11__wrap_iterIPKcEEEET_S9_S9_, symObjAddr: 0xDC00, symBinAddr: 0x34368, symSize: 0x70 }
  - { offsetInCU: 0x6C5C0, offset: 0x16628D, size: 0x8, addend: 0x0, symName: __ZNSt3__111basic_regexIcNS_12regex_traitsIcEEE11__push_loopEmmPNS_16__owns_one_stateIcEEmmb, symObjAddr: 0x12CF4, symBinAddr: 0x39448, symSize: 0x138 }
  - { offsetInCU: 0x6CB5C, offset: 0x166829, size: 0x8, addend: 0x0, symName: __ZNSt3__120__l_anchor_multilineIcED1Ev, symObjAddr: 0xC4C0, symBinAddr: 0x32C28, symSize: 0x44 }
  - { offsetInCU: 0x6CBE1, offset: 0x1668AE, size: 0x8, addend: 0x0, symName: __ZNSt3__120__l_anchor_multilineIcED0Ev, symObjAddr: 0xC504, symBinAddr: 0x32C6C, symSize: 0x44 }
  - { offsetInCU: 0x6CC72, offset: 0x16693F, size: 0x8, addend: 0x0, symName: __ZNKSt3__120__l_anchor_multilineIcE6__execERNS_7__stateIcEE, symObjAddr: 0xC548, symBinAddr: 0x32CB0, symSize: 0x60 }
  - { offsetInCU: 0x6CCC5, offset: 0x166992, size: 0x8, addend: 0x0, symName: __ZNSt3__120__r_anchor_multilineIcED1Ev, symObjAddr: 0xC5A8, symBinAddr: 0x32D10, symSize: 0x44 }
  - { offsetInCU: 0x6CD4A, offset: 0x166A17, size: 0x8, addend: 0x0, symName: __ZNSt3__120__r_anchor_multilineIcED0Ev, symObjAddr: 0xC5EC, symBinAddr: 0x32D54, symSize: 0x44 }
  - { offsetInCU: 0x6CDDB, offset: 0x166AA8, size: 0x8, addend: 0x0, symName: __ZNKSt3__120__r_anchor_multilineIcE6__execERNS_7__stateIcEE, symObjAddr: 0xC630, symBinAddr: 0x32D98, symSize: 0x50 }
  - { offsetInCU: 0x6CE2E, offset: 0x166AFB, size: 0x8, addend: 0x0, symName: __ZNSt3__115__word_boundaryIcNS_12regex_traitsIcEEED1Ev, symObjAddr: 0xC680, symBinAddr: 0x32DE8, symSize: 0x58 }
  - { offsetInCU: 0x6CEED, offset: 0x166BBA, size: 0x8, addend: 0x0, symName: __ZNSt3__115__word_boundaryIcNS_12regex_traitsIcEEED0Ev, symObjAddr: 0xC6D8, symBinAddr: 0x32E40, symSize: 0x58 }
  - { offsetInCU: 0x6D016, offset: 0x166CE3, size: 0x8, addend: 0x0, symName: __ZNKSt3__115__word_boundaryIcNS_12regex_traitsIcEEE6__execERNS_7__stateIcEE, symObjAddr: 0xC730, symBinAddr: 0x32E98, symSize: 0x150 }
  - { offsetInCU: 0x6D18F, offset: 0x166E5C, size: 0x8, addend: 0x0, symName: __ZNSt3__111__lookaheadIcNS_12regex_traitsIcEEED1Ev, symObjAddr: 0xC880, symBinAddr: 0x32FE8, symSize: 0xA0 }
  - { offsetInCU: 0x6D330, offset: 0x166FFD, size: 0x8, addend: 0x0, symName: __ZNSt3__111__lookaheadIcNS_12regex_traitsIcEEED0Ev, symObjAddr: 0xC920, symBinAddr: 0x33088, symSize: 0xA0 }
  - { offsetInCU: 0x6D5A4, offset: 0x167271, size: 0x8, addend: 0x0, symName: __ZNKSt3__111__lookaheadIcNS_12regex_traitsIcEEE6__execERNS_7__stateIcEE, symObjAddr: 0xC9C0, symBinAddr: 0x33128, symSize: 0x18C }
  - { offsetInCU: 0x6DB19, offset: 0x1677E6, size: 0x8, addend: 0x0, symName: __ZNSt3__16vectorINS_9sub_matchIPKcEENS_9allocatorIS4_EEE6assignEmRKS4_, symObjAddr: 0xCFA8, symBinAddr: 0x33710, symSize: 0x19C }
  - { offsetInCU: 0x6E0D6, offset: 0x167DA3, size: 0x8, addend: 0x0, symName: __ZNKSt3__16vectorINS_9sub_matchIPKcEENS_9allocatorIS4_EEE20__throw_length_errorB8ue170006Ev, symObjAddr: 0xD144, symBinAddr: 0x338AC, symSize: 0x14 }
  - { offsetInCU: 0x6E0E8, offset: 0x167DB5, size: 0x8, addend: 0x0, symName: __ZNKSt3__111basic_regexIcNS_12regex_traitsIcEEE21__match_at_start_ecmaINS_9allocatorINS_9sub_matchIPKcEEEEEEbS8_S8_RNS_13match_resultsIS8_T_EENS_15regex_constants15match_flag_typeEb, symObjAddr: 0xCB4C, symBinAddr: 0x332B4, symSize: 0x45C }
  - { offsetInCU: 0x6F8A0, offset: 0x16956D, size: 0x8, addend: 0x0, symName: __ZNSt3__16vectorINS_7__stateIcEENS_9allocatorIS2_EEE21__push_back_slow_pathIS2_EEvOT_, symObjAddr: 0xD2B4, symBinAddr: 0x33A1C, symSize: 0x1E4 }
  - { offsetInCU: 0x70184, offset: 0x169E51, size: 0x8, addend: 0x0, symName: __ZNKSt3__16vectorINS_7__stateIcEENS_9allocatorIS2_EEE20__throw_length_errorB8ue170006Ev, symObjAddr: 0xD498, symBinAddr: 0x33C00, symSize: 0x14 }
  - { offsetInCU: 0x70199, offset: 0x169E66, size: 0x8, addend: 0x0, symName: __ZNSt3__16vectorINS_9sub_matchIPKcEENS_9allocatorIS4_EEE8__appendEmRKS4_, symObjAddr: 0xD4AC, symBinAddr: 0x33C14, symSize: 0x198 }
  - { offsetInCU: 0x70715, offset: 0x16A3E2, size: 0x8, addend: 0x0, symName: __ZNSt3__16vectorINS_4pairImPKcEENS_9allocatorIS4_EEE8__appendEm, symObjAddr: 0xD644, symBinAddr: 0x33DAC, symSize: 0x128 }
  - { offsetInCU: 0x70721, offset: 0x16A3EE, size: 0x8, addend: 0x0, symName: __ZNSt3__16vectorINS_4pairImPKcEENS_9allocatorIS4_EEE8__appendEm, symObjAddr: 0xD644, symBinAddr: 0x33DAC, symSize: 0x128 }
  - { offsetInCU: 0x70C45, offset: 0x16A912, size: 0x8, addend: 0x0, symName: __ZNKSt3__16vectorINS_4pairImPKcEENS_9allocatorIS4_EEE20__throw_length_errorB8ue170006Ev, symObjAddr: 0xD76C, symBinAddr: 0x33ED4, symSize: 0x14 }
  - { offsetInCU: 0x70C51, offset: 0x16A91E, size: 0x8, addend: 0x0, symName: __ZNSt3__17__stateIcEC2ERKS1_, symObjAddr: 0xD780, symBinAddr: 0x33EE8, symSize: 0x180 }
  - { offsetInCU: 0x712DE, offset: 0x16AFAB, size: 0x8, addend: 0x0, symName: __ZNSt3__17__stateIcED1Ev, symObjAddr: 0xD158, symBinAddr: 0x338C0, symSize: 0x40 }
  - { offsetInCU: 0x715A3, offset: 0x16B270, size: 0x8, addend: 0x0, symName: __ZNSt3__16vectorINS_7__stateIcEENS_9allocatorIS2_EEED1B8ue170006Ev, symObjAddr: 0xD230, symBinAddr: 0x33998, symSize: 0x84 }
  - { offsetInCU: 0x71C75, offset: 0x16B942, size: 0x8, addend: 0x0, symName: __ZNKSt3__16vectorINS_9sub_matchIPKcEENS_9allocatorIS4_EEE20__throw_length_errorB8ue170006Ev, symObjAddr: 0xD144, symBinAddr: 0x338AC, symSize: 0x14 }
  - { offsetInCU: 0x71C9E, offset: 0x16B96B, size: 0x8, addend: 0x0, symName: __ZNSt3__17__stateIcED1Ev, symObjAddr: 0xD158, symBinAddr: 0x338C0, symSize: 0x40 }
  - { offsetInCU: 0x71ED7, offset: 0x16BBA4, size: 0x8, addend: 0x0, symName: __ZNKSt3__16vectorINS_7__stateIcEENS_9allocatorIS2_EEE20__throw_length_errorB8ue170006Ev, symObjAddr: 0xD498, symBinAddr: 0x33C00, symSize: 0x14 }
  - { offsetInCU: 0x71F00, offset: 0x16BBCD, size: 0x8, addend: 0x0, symName: __ZNSt3__16vectorINS_9sub_matchIPKcEENS_9allocatorIS4_EEE8__appendEmRKS4_, symObjAddr: 0xD4AC, symBinAddr: 0x33C14, symSize: 0x198 }
  - { offsetInCU: 0x72535, offset: 0x16C202, size: 0x8, addend: 0x0, symName: __ZNKSt3__16vectorINS_4pairImPKcEENS_9allocatorIS4_EEE20__throw_length_errorB8ue170006Ev, symObjAddr: 0xD76C, symBinAddr: 0x33ED4, symSize: 0x14 }
  - { offsetInCU: 0x7255E, offset: 0x16C22B, size: 0x8, addend: 0x0, symName: __ZNSt3__17__stateIcEC2ERKS1_, symObjAddr: 0xD780, symBinAddr: 0x33EE8, symSize: 0x180 }
  - { offsetInCU: 0x7298C, offset: 0x16C659, size: 0x8, addend: 0x0, symName: __ZNSt3__111basic_regexIcNS_12regex_traitsIcEEE11__push_charEc, symObjAddr: 0xE2F8, symBinAddr: 0x34A60, symSize: 0x144 }
  - { offsetInCU: 0x72D22, offset: 0x16C9EF, size: 0x8, addend: 0x0, symName: __ZNSt3__111basic_regexIcNS_12regex_traitsIcEEE15__push_back_refEi, symObjAddr: 0xE488, symBinAddr: 0x34BF0, symSize: 0xCC }
  - { offsetInCU: 0x72ED6, offset: 0x16CBA3, size: 0x8, addend: 0x0, symName: __ZNSt3__111basic_regexIcNS_12regex_traitsIcEEE30__parse_character_class_escapeINS_11__wrap_iterIPKcEEEET_S9_S9_, symObjAddr: 0xDD44, symBinAddr: 0x344AC, symSize: 0x1F8 }
  - { offsetInCU: 0x7331C, offset: 0x16CFE9, size: 0x8, addend: 0x0, symName: __ZNSt3__111basic_regexIcNS_12regex_traitsIcEEE24__parse_character_escapeINS_11__wrap_iterIPKcEEEET_S9_S9_PNS_12basic_stringIcNS_11char_traitsIcEENS_9allocatorIcEEEE, symObjAddr: 0xDF3C, symBinAddr: 0x346A4, symSize: 0x3BC }
  - { offsetInCU: 0x737F5, offset: 0x16D4C2, size: 0x8, addend: 0x0, symName: __ZNSt3__111basic_regexIcNS_12regex_traitsIcEEE11__push_charEc, symObjAddr: 0xE2F8, symBinAddr: 0x34A60, symSize: 0x144 }
  - { offsetInCU: 0x738E3, offset: 0x16D5B0, size: 0x8, addend: 0x0, symName: __ZNSt3__120__bracket_expressionIcNS_12regex_traitsIcEEEC2B8ue170006ERKS2_PNS_6__nodeIcEEbbb, symObjAddr: 0xF118, symBinAddr: 0x35880, symSize: 0x1B0 }
  - { offsetInCU: 0x74040, offset: 0x16DD0D, size: 0x8, addend: 0x0, symName: __ZNSt3__120__bracket_expressionIcNS_12regex_traitsIcEEE10__add_charB8ue170006Ec, symObjAddr: 0xEC94, symBinAddr: 0x353FC, symSize: 0x484 }
  - { offsetInCU: 0x747D2, offset: 0x16E49F, size: 0x8, addend: 0x0, symName: __ZNSt3__120__bracket_expressionIcNS_12regex_traitsIcEEEC2B8ue170006ERKS2_PNS_6__nodeIcEEbbb, symObjAddr: 0xF118, symBinAddr: 0x35880, symSize: 0x1B0 }
  - { offsetInCU: 0x747E4, offset: 0x16E4B1, size: 0x8, addend: 0x0, symName: __ZNSt3__111basic_regexIcNS_12regex_traitsIcEEE23__parse_expression_termINS_11__wrap_iterIPKcEEEET_S9_S9_PNS_20__bracket_expressionIcS2_EE, symObjAddr: 0x10514, symBinAddr: 0x36C68, symSize: 0x44C }
  - { offsetInCU: 0x7564D, offset: 0x16F31A, size: 0x8, addend: 0x0, symName: __ZNSt3__123__match_any_but_newlineIcED1Ev, symObjAddr: 0xDC70, symBinAddr: 0x343D8, symSize: 0x44 }
  - { offsetInCU: 0x756D2, offset: 0x16F39F, size: 0x8, addend: 0x0, symName: __ZNSt3__123__match_any_but_newlineIcED0Ev, symObjAddr: 0xDCB4, symBinAddr: 0x3441C, symSize: 0x44 }
  - { offsetInCU: 0x75B48, offset: 0x16F815, size: 0x8, addend: 0x0, symName: __ZNSt3__118__match_char_icaseIcNS_12regex_traitsIcEEED1Ev, symObjAddr: 0xE554, symBinAddr: 0x34CBC, symSize: 0x58 }
  - { offsetInCU: 0x75C07, offset: 0x16F8D4, size: 0x8, addend: 0x0, symName: __ZNSt3__118__match_char_icaseIcNS_12regex_traitsIcEEED0Ev, symObjAddr: 0xE5AC, symBinAddr: 0x34D14, symSize: 0x58 }
  - { offsetInCU: 0x75CD2, offset: 0x16F99F, size: 0x8, addend: 0x0, symName: __ZNKSt3__118__match_char_icaseIcNS_12regex_traitsIcEEE6__execERNS_7__stateIcEE, symObjAddr: 0xE604, symBinAddr: 0x34D6C, symSize: 0x84 }
  - { offsetInCU: 0x75D8D, offset: 0x16FA5A, size: 0x8, addend: 0x0, symName: __ZNSt3__120__match_char_collateIcNS_12regex_traitsIcEEED1Ev, symObjAddr: 0xE688, symBinAddr: 0x34DF0, symSize: 0x58 }
  - { offsetInCU: 0x75E4C, offset: 0x16FB19, size: 0x8, addend: 0x0, symName: __ZNSt3__120__match_char_collateIcNS_12regex_traitsIcEEED0Ev, symObjAddr: 0xE6E0, symBinAddr: 0x34E48, symSize: 0x58 }
  - { offsetInCU: 0x75F17, offset: 0x16FBE4, size: 0x8, addend: 0x0, symName: __ZNKSt3__120__match_char_collateIcNS_12regex_traitsIcEEE6__execERNS_7__stateIcEE, symObjAddr: 0xE738, symBinAddr: 0x34EA0, symSize: 0x48 }
  - { offsetInCU: 0x75F87, offset: 0x16FC54, size: 0x8, addend: 0x0, symName: __ZNSt3__112__match_charIcED1Ev, symObjAddr: 0xE780, symBinAddr: 0x34EE8, symSize: 0x44 }
  - { offsetInCU: 0x7600C, offset: 0x16FCD9, size: 0x8, addend: 0x0, symName: __ZNSt3__112__match_charIcED0Ev, symObjAddr: 0xE7C4, symBinAddr: 0x34F2C, symSize: 0x44 }
  - { offsetInCU: 0x7609D, offset: 0x16FD6A, size: 0x8, addend: 0x0, symName: __ZNKSt3__112__match_charIcE6__execERNS_7__stateIcEE, symObjAddr: 0xE808, symBinAddr: 0x34F70, symSize: 0x48 }
  - { offsetInCU: 0x7610D, offset: 0x16FDDA, size: 0x8, addend: 0x0, symName: __ZNSt3__116__back_ref_icaseIcNS_12regex_traitsIcEEED1Ev, symObjAddr: 0xE850, symBinAddr: 0x34FB8, symSize: 0x58 }
  - { offsetInCU: 0x761CC, offset: 0x16FE99, size: 0x8, addend: 0x0, symName: __ZNSt3__116__back_ref_icaseIcNS_12regex_traitsIcEEED0Ev, symObjAddr: 0xE8A8, symBinAddr: 0x35010, symSize: 0x58 }
  - { offsetInCU: 0x76297, offset: 0x16FF64, size: 0x8, addend: 0x0, symName: __ZNKSt3__116__back_ref_icaseIcNS_12regex_traitsIcEEE6__execERNS_7__stateIcEE, symObjAddr: 0xE900, symBinAddr: 0x35068, symSize: 0xF8 }
  - { offsetInCU: 0x76403, offset: 0x1700D0, size: 0x8, addend: 0x0, symName: __ZNSt3__118__back_ref_collateIcNS_12regex_traitsIcEEED1Ev, symObjAddr: 0xE9F8, symBinAddr: 0x35160, symSize: 0x58 }
  - { offsetInCU: 0x764C2, offset: 0x17018F, size: 0x8, addend: 0x0, symName: __ZNSt3__118__back_ref_collateIcNS_12regex_traitsIcEEED0Ev, symObjAddr: 0xEA50, symBinAddr: 0x351B8, symSize: 0x58 }
  - { offsetInCU: 0x7658D, offset: 0x17025A, size: 0x8, addend: 0x0, symName: __ZNKSt3__118__back_ref_collateIcNS_12regex_traitsIcEEE6__execERNS_7__stateIcEE, symObjAddr: 0xEAA8, symBinAddr: 0x35210, symSize: 0x98 }
  - { offsetInCU: 0x76665, offset: 0x170332, size: 0x8, addend: 0x0, symName: __ZNSt3__110__back_refIcED1Ev, symObjAddr: 0xEB40, symBinAddr: 0x352A8, symSize: 0x44 }
  - { offsetInCU: 0x766EA, offset: 0x1703B7, size: 0x8, addend: 0x0, symName: __ZNSt3__110__back_refIcED0Ev, symObjAddr: 0xEB84, symBinAddr: 0x352EC, symSize: 0x44 }
  - { offsetInCU: 0x7677B, offset: 0x170448, size: 0x8, addend: 0x0, symName: __ZNKSt3__110__back_refIcE6__execERNS_7__stateIcEE, symObjAddr: 0xEBC8, symBinAddr: 0x35330, symSize: 0xCC }
  - { offsetInCU: 0x768DF, offset: 0x1705AC, size: 0x8, addend: 0x0, symName: __ZNSt3__120__bracket_expressionIcNS_12regex_traitsIcEEE10__add_charB8ue170006Ec, symObjAddr: 0xEC94, symBinAddr: 0x353FC, symSize: 0x484 }
  - { offsetInCU: 0x76C57, offset: 0x170924, size: 0x8, addend: 0x0, symName: __ZNKSt3__16vectorIcNS_9allocatorIcEEE20__throw_length_errorB8ue170006Ev, symObjAddr: 0x104B4, symBinAddr: 0x36C08, symSize: 0x14 }
  - { offsetInCU: 0x76C80, offset: 0x17094D, size: 0x8, addend: 0x0, symName: __ZNSt3__119__throw_regex_errorB8ue170006ILNS_15regex_constants10error_typeE5EEEvv, symObjAddr: 0x104C8, symBinAddr: 0x36C1C, symSize: 0x4C }
  - { offsetInCU: 0x76ECA, offset: 0x170B97, size: 0x8, addend: 0x0, symName: __ZNSt3__16vectorINS_12basic_stringIcNS_11char_traitsIcEENS_9allocatorIcEEEENS4_IS6_EEED1B8ue170006Ev, symObjAddr: 0xF2C8, symBinAddr: 0x35A30, symSize: 0x74 }
  - { offsetInCU: 0x7717F, offset: 0x170E4C, size: 0x8, addend: 0x0, symName: __ZNSt3__16vectorINS_4pairINS_12basic_stringIcNS_11char_traitsIcEENS_9allocatorIcEEEES7_EENS5_IS8_EEED1B8ue170006Ev, symObjAddr: 0xF33C, symBinAddr: 0x35AA4, symSize: 0x94 }
  - { offsetInCU: 0x777B8, offset: 0x171485, size: 0x8, addend: 0x0, symName: __ZNSt3__120__bracket_expressionIcNS_12regex_traitsIcEEED1Ev, symObjAddr: 0xF3D0, symBinAddr: 0x35B38, symSize: 0x4 }
  - { offsetInCU: 0x777DB, offset: 0x1714A8, size: 0x8, addend: 0x0, symName: __ZNSt3__120__bracket_expressionIcNS_12regex_traitsIcEEED1Ev, symObjAddr: 0xF3D0, symBinAddr: 0x35B38, symSize: 0x4 }
  - { offsetInCU: 0x777EE, offset: 0x1714BB, size: 0x8, addend: 0x0, symName: __ZNSt3__120__bracket_expressionIcNS_12regex_traitsIcEEED2Ev, symObjAddr: 0xFE90, symBinAddr: 0x365E4, symSize: 0x14C }
  - { offsetInCU: 0x782D5, offset: 0x171FA2, size: 0x8, addend: 0x0, symName: __ZNSt3__120__bracket_expressionIcNS_12regex_traitsIcEEED0Ev, symObjAddr: 0xF3D4, symBinAddr: 0x35B3C, symSize: 0x14 }
  - { offsetInCU: 0x786FD, offset: 0x1723CA, size: 0x8, addend: 0x0, symName: __ZNKSt3__120__bracket_expressionIcNS_12regex_traitsIcEEE6__execERNS_7__stateIcEE, symObjAddr: 0xF3E8, symBinAddr: 0x35B50, symSize: 0xA3C }
  - { offsetInCU: 0x7A013, offset: 0x173CE0, size: 0x8, addend: 0x0, symName: __ZNKSt3__112regex_traitsIcE20__lookup_collatenameIPcEENS_12basic_stringIcNS_11char_traitsIcEENS_9allocatorIcEEEET_SA_c, symObjAddr: 0x100F8, symBinAddr: 0x3684C, symSize: 0x238 }
  - { offsetInCU: 0x7AB06, offset: 0x1747D3, size: 0x8, addend: 0x0, symName: __ZNKSt3__112regex_traitsIcE9transformIPcEENS_12basic_stringIcNS_11char_traitsIcEENS_9allocatorIcEEEET_SA_, symObjAddr: 0xFFDC, symBinAddr: 0x36730, symSize: 0x11C }
  - { offsetInCU: 0x7B093, offset: 0x174D60, size: 0x8, addend: 0x0, symName: __ZNKSt3__112regex_traitsIcE19__transform_primaryIPcEENS_12basic_stringIcNS_11char_traitsIcEENS_9allocatorIcEEEET_SA_c, symObjAddr: 0x10330, symBinAddr: 0x36A84, symSize: 0x184 }
  - { offsetInCU: 0x7B777, offset: 0x175444, size: 0x8, addend: 0x0, symName: __ZNSt3__14pairINS_12basic_stringIcNS_11char_traitsIcEENS_9allocatorIcEEEES6_ED1Ev, symObjAddr: 0xFE38, symBinAddr: 0x3658C, symSize: 0x58 }
  - { offsetInCU: 0x7BA9E, offset: 0x17576B, size: 0x8, addend: 0x0, symName: __ZNSt3__111basic_regexIcNS_12regex_traitsIcEEE25__parse_equivalence_classINS_11__wrap_iterIPKcEEEET_S9_S9_PNS_20__bracket_expressionIcS2_EE, symObjAddr: 0x10960, symBinAddr: 0x370B4, symSize: 0x2B0 }
  - { offsetInCU: 0x7C97F, offset: 0x17664C, size: 0x8, addend: 0x0, symName: __ZNSt3__111basic_regexIcNS_12regex_traitsIcEEE18__parse_awk_escapeINS_11__wrap_iterIPKcEEEET_S9_S9_PNS_12basic_stringIcNS_11char_traitsIcEENS_9allocatorIcEEEE, symObjAddr: 0x10EEC, symBinAddr: 0x37640, symSize: 0x2EC }
  - { offsetInCU: 0x7CB5E, offset: 0x17682B, size: 0x8, addend: 0x0, symName: __ZNSt3__120__bracket_expressionIcNS_12regex_traitsIcEEE11__add_rangeB8ue170006ENS_12basic_stringIcNS_11char_traitsIcEENS_9allocatorIcEEEES9_, symObjAddr: 0x111D8, symBinAddr: 0x3792C, symSize: 0x450 }
  - { offsetInCU: 0x7CB73, offset: 0x176840, size: 0x8, addend: 0x0, symName: __ZNSt3__111basic_regexIcNS_12regex_traitsIcEEE24__parse_collating_symbolINS_11__wrap_iterIPKcEEEET_S9_S9_RNS_12basic_stringIcNS_11char_traitsIcEENS_9allocatorIcEEEE, symObjAddr: 0x10CC4, symBinAddr: 0x37418, symSize: 0xE8 }
  - { offsetInCU: 0x7D031, offset: 0x176CFE, size: 0x8, addend: 0x0, symName: __ZNSt3__111basic_regexIcNS_12regex_traitsIcEEE20__parse_class_escapeINS_11__wrap_iterIPKcEEEET_S9_S9_RNS_12basic_stringIcNS_11char_traitsIcEENS_9allocatorIcEEEEPNS_20__bracket_expressionIcS2_EE, symObjAddr: 0x10DAC, symBinAddr: 0x37500, symSize: 0x140 }
  - { offsetInCU: 0x7D046, offset: 0x176D13, size: 0x8, addend: 0x0, symName: __ZNSt3__111basic_regexIcNS_12regex_traitsIcEEE20__parse_class_escapeINS_11__wrap_iterIPKcEEEET_S9_S9_RNS_12basic_stringIcNS_11char_traitsIcEENS_9allocatorIcEEEEPNS_20__bracket_expressionIcS2_EE, symObjAddr: 0x10DAC, symBinAddr: 0x37500, symSize: 0x140 }
  - { offsetInCU: 0x7D1F7, offset: 0x176EC4, size: 0x8, addend: 0x0, symName: __ZNSt3__111basic_regexIcNS_12regex_traitsIcEEE18__parse_awk_escapeINS_11__wrap_iterIPKcEEEET_S9_S9_PNS_12basic_stringIcNS_11char_traitsIcEENS_9allocatorIcEEEE, symObjAddr: 0x10EEC, symBinAddr: 0x37640, symSize: 0x2EC }
  - { offsetInCU: 0x7D20C, offset: 0x176ED9, size: 0x8, addend: 0x0, symName: __ZNSt3__120__bracket_expressionIcNS_12regex_traitsIcEEE13__add_digraphB8ue170006Ecc, symObjAddr: 0x11628, symBinAddr: 0x37D7C, symSize: 0x3D8 }
  - { offsetInCU: 0x7DA42, offset: 0x17770F, size: 0x8, addend: 0x0, symName: __ZNSt3__119__throw_regex_errorB8ue170006ILNS_15regex_constants10error_typeE1EEEvv, symObjAddr: 0x11A00, symBinAddr: 0x38154, symSize: 0x4C }
  - { offsetInCU: 0x7DA4E, offset: 0x17771B, size: 0x8, addend: 0x0, symName: __ZNSt3__111basic_regexIcNS_12regex_traitsIcEEE23__parse_character_classINS_11__wrap_iterIPKcEEEET_S9_S9_PNS_20__bracket_expressionIcS2_EE, symObjAddr: 0x10C10, symBinAddr: 0x37364, symSize: 0xB4 }
  - { offsetInCU: 0x7DDF9, offset: 0x177AC6, size: 0x8, addend: 0x0, symName: __ZNSt3__111basic_regexIcNS_12regex_traitsIcEEE24__parse_collating_symbolINS_11__wrap_iterIPKcEEEET_S9_S9_RNS_12basic_stringIcNS_11char_traitsIcEENS_9allocatorIcEEEE, symObjAddr: 0x10CC4, symBinAddr: 0x37418, symSize: 0xE8 }
  - { offsetInCU: 0x7DE1A, offset: 0x177AE7, size: 0x8, addend: 0x0, symName: __ZNSt3__120__bracket_expressionIcNS_12regex_traitsIcEEE11__add_rangeB8ue170006ENS_12basic_stringIcNS_11char_traitsIcEENS_9allocatorIcEEEES9_, symObjAddr: 0x111D8, symBinAddr: 0x3792C, symSize: 0x450 }
  - { offsetInCU: 0x7F735, offset: 0x179402, size: 0x8, addend: 0x0, symName: __ZNKSt3__112regex_traitsIcE20__lookup_collatenameINS_11__wrap_iterIPKcEEEENS_12basic_stringIcNS_11char_traitsIcEENS_9allocatorIcEEEET_SD_c, symObjAddr: 0x11A4C, symBinAddr: 0x381A0, symSize: 0x298 }
  - { offsetInCU: 0x8022E, offset: 0x179EFB, size: 0x8, addend: 0x0, symName: __ZNKSt3__112regex_traitsIcE19__transform_primaryINS_11__wrap_iterIPcEEEENS_12basic_stringIcNS_11char_traitsIcEENS_9allocatorIcEEEET_SC_c, symObjAddr: 0x11CE4, symBinAddr: 0x38438, symSize: 0x1E4 }
  - { offsetInCU: 0x80932, offset: 0x17A5FF, size: 0x8, addend: 0x0, symName: __ZNSt3__16vectorINS_12basic_stringIcNS_11char_traitsIcEENS_9allocatorIcEEEENS4_IS6_EEE21__push_back_slow_pathIRKS6_EEvOT_, symObjAddr: 0x11EC8, symBinAddr: 0x3861C, symSize: 0x228 }
  - { offsetInCU: 0x813C1, offset: 0x17B08E, size: 0x8, addend: 0x0, symName: __ZNKSt3__112regex_traitsIcE18__lookup_classnameINS_11__wrap_iterIPKcEEEEjT_S7_bc, symObjAddr: 0x121B4, symBinAddr: 0x38908, symSize: 0x184 }
  - { offsetInCU: 0x81A4E, offset: 0x17B71B, size: 0x8, addend: 0x0, symName: __ZNSt3__120__bracket_expressionIcNS_12regex_traitsIcEEE14__add_neg_charB8ue170006Ec, symObjAddr: 0x12338, symBinAddr: 0x38A8C, symSize: 0x484 }
  - { offsetInCU: 0x821E0, offset: 0x17BEAD, size: 0x8, addend: 0x0, symName: __ZNKSt3__112regex_traitsIcE9transformINS_11__wrap_iterIPcEEEENS_12basic_stringIcNS_11char_traitsIcEENS_9allocatorIcEEEET_SC_, symObjAddr: 0x127BC, symBinAddr: 0x38F10, symSize: 0x180 }
  - { offsetInCU: 0x8241F, offset: 0x17C0EC, size: 0x8, addend: 0x0, symName: __ZNKSt3__112regex_traitsIcE9transformINS_11__wrap_iterIPcEEEENS_12basic_stringIcNS_11char_traitsIcEENS_9allocatorIcEEEET_SC_, symObjAddr: 0x127BC, symBinAddr: 0x38F10, symSize: 0x180 }
  - { offsetInCU: 0x829E1, offset: 0x17C6AE, size: 0x8, addend: 0x0, symName: __ZNSt3__16vectorINS_4pairINS_12basic_stringIcNS_11char_traitsIcEENS_9allocatorIcEEEES7_EENS5_IS8_EEE21__push_back_slow_pathIS8_EEvOT_, symObjAddr: 0x12988, symBinAddr: 0x390DC, symSize: 0x1CC }
  - { offsetInCU: 0x83229, offset: 0x17CEF6, size: 0x8, addend: 0x0, symName: __ZNKSt3__16vectorINS_4pairINS_12basic_stringIcNS_11char_traitsIcEENS_9allocatorIcEEEES7_EENS5_IS8_EEE20__throw_length_errorB8ue170006Ev, symObjAddr: 0x12B54, symBinAddr: 0x392A8, symSize: 0x14 }
  - { offsetInCU: 0x8346C, offset: 0x17D139, size: 0x8, addend: 0x0, symName: __ZNKSt3__16vectorINS_4pairIccEENS_9allocatorIS2_EEE20__throw_length_errorB8ue170006Ev, symObjAddr: 0x12B68, symBinAddr: 0x392BC, symSize: 0x14 }
  - { offsetInCU: 0x83495, offset: 0x17D162, size: 0x8, addend: 0x0, symName: __ZNSt3__128__begin_marked_subexpressionIcED1Ev, symObjAddr: 0x12B7C, symBinAddr: 0x392D0, symSize: 0x44 }
  - { offsetInCU: 0x83A76, offset: 0x17D743, size: 0x8, addend: 0x0, symName: __ZNKSt3__16vectorINS_12basic_stringIcNS_11char_traitsIcEENS_9allocatorIcEEEENS4_IS6_EEE20__throw_length_errorB8ue170006Ev, symObjAddr: 0x12154, symBinAddr: 0x388A8, symSize: 0x14 }
  - { offsetInCU: 0x83A9F, offset: 0x17D76C, size: 0x8, addend: 0x0, symName: __ZNSt3__119__throw_regex_errorB8ue170006ILNS_15regex_constants10error_typeE2EEEvv, symObjAddr: 0x12168, symBinAddr: 0x388BC, symSize: 0x4C }
  - { offsetInCU: 0x83AAB, offset: 0x17D778, size: 0x8, addend: 0x0, symName: __ZNSt3__114__split_bufferINS_12basic_stringIcNS_11char_traitsIcEENS_9allocatorIcEEEERNS4_IS6_EEED1Ev, symObjAddr: 0x120F0, symBinAddr: 0x38844, symSize: 0x64 }
  - { offsetInCU: 0x83F68, offset: 0x17DC35, size: 0x8, addend: 0x0, symName: __ZNKSt3__16vectorINS_4pairINS_12basic_stringIcNS_11char_traitsIcEENS_9allocatorIcEEEES7_EENS5_IS8_EEE20__throw_length_errorB8ue170006Ev, symObjAddr: 0x12B54, symBinAddr: 0x392A8, symSize: 0x14 }
  - { offsetInCU: 0x83F91, offset: 0x17DC5E, size: 0x8, addend: 0x0, symName: __ZNKSt3__16vectorINS_4pairIccEENS_9allocatorIS2_EEE20__throw_length_errorB8ue170006Ev, symObjAddr: 0x12B68, symBinAddr: 0x392BC, symSize: 0x14 }
  - { offsetInCU: 0x83FBA, offset: 0x17DC87, size: 0x8, addend: 0x0, symName: __ZNSt3__128__begin_marked_subexpressionIcED1Ev, symObjAddr: 0x12B7C, symBinAddr: 0x392D0, symSize: 0x44 }
  - { offsetInCU: 0x8403F, offset: 0x17DD0C, size: 0x8, addend: 0x0, symName: __ZNSt3__128__begin_marked_subexpressionIcED0Ev, symObjAddr: 0x12BC0, symBinAddr: 0x39314, symSize: 0x44 }
  - { offsetInCU: 0x840D0, offset: 0x17DD9D, size: 0x8, addend: 0x0, symName: __ZNKSt3__128__begin_marked_subexpressionIcE6__execERNS_7__stateIcEE, symObjAddr: 0x12C04, symBinAddr: 0x39358, symSize: 0x30 }
  - { offsetInCU: 0x8415F, offset: 0x17DE2C, size: 0x8, addend: 0x0, symName: __ZNSt3__126__end_marked_subexpressionIcED1Ev, symObjAddr: 0x12C34, symBinAddr: 0x39388, symSize: 0x44 }
  - { offsetInCU: 0x841E4, offset: 0x17DEB1, size: 0x8, addend: 0x0, symName: __ZNSt3__126__end_marked_subexpressionIcED0Ev, symObjAddr: 0x12C78, symBinAddr: 0x393CC, symSize: 0x44 }
  - { offsetInCU: 0x84275, offset: 0x17DF42, size: 0x8, addend: 0x0, symName: __ZNKSt3__126__end_marked_subexpressionIcE6__execERNS_7__stateIcEE, symObjAddr: 0x12CBC, symBinAddr: 0x39410, symSize: 0x38 }
  - { offsetInCU: 0x8457C, offset: 0x17E249, size: 0x8, addend: 0x0, symName: __ZNSt3__16__loopIcED0Ev, symObjAddr: 0x12F2C, symBinAddr: 0x39680, symSize: 0x68 }
  - { offsetInCU: 0x8466F, offset: 0x17E33C, size: 0x8, addend: 0x0, symName: __ZNSt3__16__loopIcED1Ev, symObjAddr: 0x12EC4, symBinAddr: 0x39618, symSize: 0x68 }
  - { offsetInCU: 0x84752, offset: 0x17E41F, size: 0x8, addend: 0x0, symName: __ZNKSt3__16__loopIcE6__execERNS_7__stateIcEE, symObjAddr: 0x12F94, symBinAddr: 0x396E8, symSize: 0x1E4 }
  - { offsetInCU: 0x848A0, offset: 0x17E56D, size: 0x8, addend: 0x0, symName: __ZNKSt3__16__loopIcE12__exec_splitEbRNS_7__stateIcEE, symObjAddr: 0x13178, symBinAddr: 0x398CC, symSize: 0xC8 }
  - { offsetInCU: 0x84975, offset: 0x17E642, size: 0x8, addend: 0x0, symName: __ZNSt3__117__owns_two_statesIcED1Ev, symObjAddr: 0x13240, symBinAddr: 0x39994, symSize: 0x68 }
  - { offsetInCU: 0x84A05, offset: 0x17E6D2, size: 0x8, addend: 0x0, symName: __ZNSt3__117__owns_two_statesIcED0Ev, symObjAddr: 0x132A8, symBinAddr: 0x399FC, symSize: 0x68 }
  - { offsetInCU: 0x84AA1, offset: 0x17E76E, size: 0x8, addend: 0x0, symName: __ZNSt3__117__repeat_one_loopIcED1Ev, symObjAddr: 0x13310, symBinAddr: 0x39A64, symSize: 0x4 }
  - { offsetInCU: 0x84ACD, offset: 0x17E79A, size: 0x8, addend: 0x0, symName: __ZNSt3__117__repeat_one_loopIcED0Ev, symObjAddr: 0x13314, symBinAddr: 0x39A68, symSize: 0x4 }
  - { offsetInCU: 0x84AF9, offset: 0x17E7C6, size: 0x8, addend: 0x0, symName: __ZNKSt3__117__repeat_one_loopIcE6__execERNS_7__stateIcEE, symObjAddr: 0x13318, symBinAddr: 0x39A6C, symSize: 0x14 }
  - { offsetInCU: 0x84B69, offset: 0x17E836, size: 0x8, addend: 0x0, symName: __ZNSt3__111__alternateIcED1Ev, symObjAddr: 0x1332C, symBinAddr: 0x39A80, symSize: 0x68 }
  - { offsetInCU: 0x84C17, offset: 0x17E8E4, size: 0x8, addend: 0x0, symName: __ZNSt3__111__alternateIcED0Ev, symObjAddr: 0x13394, symBinAddr: 0x39AE8, symSize: 0x68 }
  - { offsetInCU: 0x84CD1, offset: 0x17E99E, size: 0x8, addend: 0x0, symName: __ZNKSt3__111__alternateIcE6__execERNS_7__stateIcEE, symObjAddr: 0x133FC, symBinAddr: 0x39B50, symSize: 0xC }
  - { offsetInCU: 0x84D07, offset: 0x17E9D4, size: 0x8, addend: 0x0, symName: __ZNKSt3__111__alternateIcE12__exec_splitEbRNS_7__stateIcEE, symObjAddr: 0x13408, symBinAddr: 0x39B5C, symSize: 0x24 }
  - { offsetInCU: 0x84D51, offset: 0x17EA1E, size: 0x8, addend: 0x0, symName: __ZNSt3__121__empty_non_own_stateIcED1Ev, symObjAddr: 0x1342C, symBinAddr: 0x39B80, symSize: 0x4 }
  - { offsetInCU: 0x84D7D, offset: 0x17EA4A, size: 0x8, addend: 0x0, symName: __ZNSt3__121__empty_non_own_stateIcED0Ev, symObjAddr: 0x13430, symBinAddr: 0x39B84, symSize: 0x4 }
  - { offsetInCU: 0x84DA9, offset: 0x17EA76, size: 0x8, addend: 0x0, symName: __ZNKSt3__121__empty_non_own_stateIcE6__execERNS_7__stateIcEE, symObjAddr: 0x13434, symBinAddr: 0x39B88, symSize: 0x14 }
  - { offsetInCU: 0x84F01, offset: 0x17EBCE, size: 0x8, addend: 0x0, symName: __ZNSt3__111basic_regexIcNS_12regex_traitsIcEEE32__parse_one_char_or_coll_elem_REINS_11__wrap_iterIPKcEEEET_S9_S9_, symObjAddr: 0x1394C, symBinAddr: 0x3A0A0, symSize: 0x15C }
  - { offsetInCU: 0x8529A, offset: 0x17EF67, size: 0x8, addend: 0x0, symName: __ZNSt3__111__match_anyIcED1Ev, symObjAddr: 0x13AA8, symBinAddr: 0x3A1FC, symSize: 0x44 }
  - { offsetInCU: 0x8531F, offset: 0x17EFEC, size: 0x8, addend: 0x0, symName: __ZNSt3__111__match_anyIcED0Ev, symObjAddr: 0x13AEC, symBinAddr: 0x3A240, symSize: 0x44 }
  - { offsetInCU: 0x853B0, offset: 0x17F07D, size: 0x8, addend: 0x0, symName: __ZNKSt3__111__match_anyIcE6__execERNS_7__stateIcEE, symObjAddr: 0x13B30, symBinAddr: 0x3A284, symSize: 0x40 }
  - { offsetInCU: 0x85403, offset: 0x17F0D0, size: 0x8, addend: 0x0, symName: __ZNSt3__111basic_regexIcNS_12regex_traitsIcEEE15__test_back_refEc, symObjAddr: 0x13B70, symBinAddr: 0x3A2C4, symSize: 0x60 }
  - { offsetInCU: 0x854D0, offset: 0x17F19D, size: 0x8, addend: 0x0, symName: __ZNSt3__111basic_regexIcNS_12regex_traitsIcEEE22__parse_ERE_expressionINS_11__wrap_iterIPKcEEEET_S9_S9_, symObjAddr: 0x13BD0, symBinAddr: 0x3A324, symSize: 0x288 }
  - { offsetInCU: 0x85521, offset: 0x17F1EE, size: 0x8, addend: 0x0, symName: __ZNSt3__111basic_regexIcNS_12regex_traitsIcEEE20__parse_ORD_CHAR_EREINS_11__wrap_iterIPKcEEEET_S9_S9_, symObjAddr: 0x13E58, symBinAddr: 0x3A5AC, symSize: 0x78 }
  - { offsetInCU: 0x85581, offset: 0x17F24E, size: 0x8, addend: 0x0, symName: __ZNSt3__111basic_regexIcNS_12regex_traitsIcEEE23__parse_QUOTED_CHAR_EREINS_11__wrap_iterIPKcEEEET_S9_S9_, symObjAddr: 0x13ED0, symBinAddr: 0x3A624, symSize: 0xC4 }
  - { offsetInCU: 0x8579A, offset: 0x17F467, size: 0x8, addend: 0x0, symName: __ZNSt3__16vectorINS0_I21llama_grammar_elementNS_9allocatorIS1_EEEENS2_IS4_EEEC2ERKS6_.cold.1, symObjAddr: 0x17260, symBinAddr: 0x1CE760, symSize: 0x48 }
  - { offsetInCU: 0x85A41, offset: 0x17F70E, size: 0x8, addend: 0x0, symName: __ZNSt3__128__exception_guard_exceptionsINS_29_AllocatorDestroyRangeReverseINS_9allocatorINS_6vectorI21llama_grammar_elementNS2_IS4_EEEEEEPS6_EEED1B8ue170006Ev, symObjAddr: 0x1415C, symBinAddr: 0x3A8B0, symSize: 0x6C }
  - { offsetInCU: 0x85DDF, offset: 0x17FAAC, size: 0x8, addend: 0x0, symName: __ZNSt3__16vectorINS0_IPK21llama_grammar_elementNS_9allocatorIS3_EEEENS4_IS6_EEEC2ERKS8_.cold.1, symObjAddr: 0x172A8, symBinAddr: 0x1CE7A8, symSize: 0x48 }
  - { offsetInCU: 0x86086, offset: 0x17FD53, size: 0x8, addend: 0x0, symName: __ZNSt3__128__exception_guard_exceptionsINS_29_AllocatorDestroyRangeReverseINS_9allocatorINS_6vectorIPK21llama_grammar_elementNS2_IS6_EEEEEEPS8_EEED1B8ue170006Ev, symObjAddr: 0x14390, symBinAddr: 0x3AAE4, symSize: 0x6C }
  - { offsetInCU: 0x863EB, offset: 0x1800B8, size: 0x8, addend: 0x0, symName: __ZNSt3__16vectorI29llama_grammar_trigger_patternNS_9allocatorIS1_EEEC2ERKS4_.cold.1, symObjAddr: 0x172F0, symBinAddr: 0x1CE7F0, symSize: 0xB8 }
  - { offsetInCU: 0x868DA, offset: 0x1805A7, size: 0x8, addend: 0x0, symName: __ZNSt3__128__exception_guard_exceptionsINS_29_AllocatorDestroyRangeReverseINS_9allocatorI29llama_grammar_trigger_patternEEPS3_EEED1B8ue170006Ev, symObjAddr: 0x1463C, symBinAddr: 0x3AD90, symSize: 0xC4 }
  - { offsetInCU: 0x86D3A, offset: 0x180A07, size: 0x8, addend: 0x0, symName: __ZNKSt3__111basic_regexIcNS_12regex_traitsIcEEE27__match_at_start_posix_subsINS_9allocatorINS_9sub_matchIPKcEEEEEEbS8_S8_RNS_13match_resultsIS8_T_EENS_15regex_constants15match_flag_typeEb, symObjAddr: 0x155D4, symBinAddr: 0x3BD28, symSize: 0x5F4 }
  - { offsetInCU: 0x88B19, offset: 0x1827E6, size: 0x8, addend: 0x0, symName: __ZNKSt3__111basic_regexIcNS_12regex_traitsIcEEE29__match_at_start_posix_nosubsINS_9allocatorINS_9sub_matchIPKcEEEEEEbS8_S8_RNS_13match_resultsIS8_T_EENS_15regex_constants15match_flag_typeEb, symObjAddr: 0x14CA0, symBinAddr: 0x3B3F4, symSize: 0x934 }
  - { offsetInCU: 0x8ABED, offset: 0x1848BA, size: 0x8, addend: 0x0, symName: __ZNSt3__16vectorINS_9sub_matchINS_11__wrap_iterIPKcEEEENS_9allocatorIS6_EEE8__appendEm, symObjAddr: 0x17078, symBinAddr: 0x3D7CC, symSize: 0x18C }
  - { offsetInCU: 0x8B1A3, offset: 0x184E70, size: 0x8, addend: 0x0, symName: __ZNKSt3__16vectorINS_9sub_matchINS_11__wrap_iterIPKcEEEENS_9allocatorIS6_EEE20__throw_length_errorB8ue170006Ev, symObjAddr: 0x17204, symBinAddr: 0x3D958, symSize: 0x14 }
  - { offsetInCU: 0x8B611, offset: 0x1852DE, size: 0x8, addend: 0x0, symName: __ZNSt3__15dequeINS_7__stateIcEENS_9allocatorIS2_EEE19__add_back_capacityEv, symObjAddr: 0x15D90, symBinAddr: 0x3C4E4, symSize: 0x5A8 }
  - { offsetInCU: 0x8C744, offset: 0x186411, size: 0x8, addend: 0x0, symName: __ZNSt3__15dequeINS_7__stateIcEENS_9allocatorIS2_EEE20__add_front_capacityEv, symObjAddr: 0x16664, symBinAddr: 0x3CDB8, symSize: 0x3BC }
  - { offsetInCU: 0x8D578, offset: 0x187245, size: 0x8, addend: 0x0, symName: __ZNSt3__15dequeINS_7__stateIcEENS_9allocatorIS2_EEED1B8ue170006Ev, symObjAddr: 0x15D1C, symBinAddr: 0x3C470, symSize: 0x74 }
  - { offsetInCU: 0x8D991, offset: 0x18765E, size: 0x8, addend: 0x0, symName: __ZNSt3__16vectorINS_9sub_matchIPKcEENS_9allocatorIS4_EEE18__assign_with_sizeB8ue170006IPS4_S9_EEvT_T0_l, symObjAddr: 0x16BBC, symBinAddr: 0x3D310, symSize: 0x1EC }
  - { offsetInCU: 0x8E251, offset: 0x187F1E, size: 0x8, addend: 0x0, symName: __ZNSt3__16vectorINS_4pairImPKcEENS_9allocatorIS4_EEE18__assign_with_sizeB8ue170006IPS4_S9_EEvT_T0_l, symObjAddr: 0x16DA8, symBinAddr: 0x3D4FC, symSize: 0x2D0 }
  - { offsetInCU: 0x8E275, offset: 0x187F42, size: 0x8, addend: 0x0, symName: __ZNSt3__16vectorINS_4pairImPKcEENS_9allocatorIS4_EEE18__assign_with_sizeB8ue170006IPS4_S9_EEvT_T0_l, symObjAddr: 0x16DA8, symBinAddr: 0x3D4FC, symSize: 0x2D0 }
  - { offsetInCU: 0x8EA8C, offset: 0x188759, size: 0x8, addend: 0x0, symName: __ZNSt3__16vectorINS_9sub_matchINS_11__wrap_iterIPKcEEEENS_9allocatorIS6_EEE8__appendEm, symObjAddr: 0x17078, symBinAddr: 0x3D7CC, symSize: 0x18C }
  - { offsetInCU: 0x8EAC6, offset: 0x188793, size: 0x8, addend: 0x0, symName: __ZNSt3__15dequeINS_7__stateIcEENS_9allocatorIS2_EEE5clearEv, symObjAddr: 0x15BC8, symBinAddr: 0x3C31C, symSize: 0x154 }
  - { offsetInCU: 0x8F517, offset: 0x1891E4, size: 0x8, addend: 0x0, symName: __ZNSt3__114__split_bufferIPNS_7__stateIcEENS_9allocatorIS3_EEE9push_backEOS3_, symObjAddr: 0x16338, symBinAddr: 0x3CA8C, symSize: 0x190 }
  - { offsetInCU: 0x8F9D5, offset: 0x1896A2, size: 0x8, addend: 0x0, symName: __ZNSt3__114__split_bufferIPNS_7__stateIcEENS_9allocatorIS3_EEE10push_frontEOS3_, symObjAddr: 0x164C8, symBinAddr: 0x3CC1C, symSize: 0x19C }
  - { offsetInCU: 0x8F9E1, offset: 0x1896AE, size: 0x8, addend: 0x0, symName: __ZNSt3__114__split_bufferIPNS_7__stateIcEENS_9allocatorIS3_EEE10push_frontEOS3_, symObjAddr: 0x164C8, symBinAddr: 0x3CC1C, symSize: 0x19C }
  - { offsetInCU: 0x8FE7B, offset: 0x189B48, size: 0x8, addend: 0x0, symName: __ZNSt3__15dequeINS_7__stateIcEENS_9allocatorIS2_EEE20__add_front_capacityEv, symObjAddr: 0x16664, symBinAddr: 0x3CDB8, symSize: 0x3BC }
  - { offsetInCU: 0x8FF37, offset: 0x189C04, size: 0x8, addend: 0x0, symName: __ZNSt3__114__split_bufferIPNS_7__stateIcEENS_9allocatorIS3_EEE10push_frontERKS3_, symObjAddr: 0x16A20, symBinAddr: 0x3D174, symSize: 0x19C }
  - { offsetInCU: 0x903D1, offset: 0x18A09E, size: 0x8, addend: 0x0, symName: __ZNSt3__16vectorINS_9sub_matchIPKcEENS_9allocatorIS4_EEE18__assign_with_sizeB8ue170006IPS4_S9_EEvT_T0_l, symObjAddr: 0x16BBC, symBinAddr: 0x3D310, symSize: 0x1EC }
  - { offsetInCU: 0x908C4, offset: 0x18A591, size: 0x8, addend: 0x0, symName: __ZNKSt3__16vectorINS_9sub_matchINS_11__wrap_iterIPKcEEEENS_9allocatorIS6_EEE20__throw_length_errorB8ue170006Ev, symObjAddr: 0x17204, symBinAddr: 0x3D958, symSize: 0x14 }
  - { offsetInCU: 0x908ED, offset: 0x18A5BA, size: 0x8, addend: 0x0, symName: __ZNSt3__16vectorINS0_I21llama_grammar_elementNS_9allocatorIS1_EEEENS2_IS4_EEEC1Em.cold.1, symObjAddr: 0x17218, symBinAddr: 0x1CE718, symSize: 0x48 }
  - { offsetInCU: 0x908F9, offset: 0x18A5C6, size: 0x8, addend: 0x0, symName: _OUTLINED_FUNCTION_0, symObjAddr: 0x173A8, symBinAddr: 0x3D96C, symSize: 0xC }
  - { offsetInCU: 0x90911, offset: 0x18A5DE, size: 0x8, addend: 0x0, symName: _OUTLINED_FUNCTION_1, symObjAddr: 0x173B4, symBinAddr: 0x3D978, symSize: 0x18 }
  - { offsetInCU: 0x90929, offset: 0x18A5F6, size: 0x8, addend: 0x0, symName: _OUTLINED_FUNCTION_2, symObjAddr: 0x173CC, symBinAddr: 0x3D990, symSize: 0x8 }
  - { offsetInCU: 0x26, offset: 0x18A79F, size: 0x8, addend: 0x0, symName: __ZN20llm_graph_input_embd9set_inputEPK12llama_ubatch, symObjAddr: 0x0, symBinAddr: 0x3D998, symSize: 0xA0 }
  - { offsetInCU: 0x26402, offset: 0x1B0B7B, size: 0x8, addend: 0x0, symName: __ZN20llm_graph_input_embd9set_inputEPK12llama_ubatch, symObjAddr: 0x0, symBinAddr: 0x3D998, symSize: 0xA0 }
  - { offsetInCU: 0x26763, offset: 0x1B0EDC, size: 0x8, addend: 0x0, symName: __ZN19llm_graph_input_pos9set_inputEPK12llama_ubatch, symObjAddr: 0xA0, symBinAddr: 0x3DA38, symSize: 0x210 }
  - { offsetInCU: 0x26D91, offset: 0x1B150A, size: 0x8, addend: 0x0, symName: __ZN25llm_graph_input_attn_temp9set_inputEPK12llama_ubatch, symObjAddr: 0x2B0, symBinAddr: 0x3DC48, symSize: 0x220 }
  - { offsetInCU: 0x271C4, offset: 0x1B193D, size: 0x8, addend: 0x0, symName: __ZN26llm_graph_input_pos_bucket9set_inputEPK12llama_ubatch, symObjAddr: 0x4D0, symBinAddr: 0x3DE68, symSize: 0x424 }
  - { offsetInCU: 0x272FE, offset: 0x1B1A77, size: 0x8, addend: 0x0, symName: __Z30llama_relative_position_bucketiiyb, symObjAddr: 0x8F4, symBinAddr: 0x3E28C, symSize: 0xB0 }
  - { offsetInCU: 0x27347, offset: 0x1B1AC0, size: 0x8, addend: 0x0, symName: __Z30llama_relative_position_bucketiiyb, symObjAddr: 0x8F4, symBinAddr: 0x3E28C, symSize: 0xB0 }
  - { offsetInCU: 0x273AC, offset: 0x1B1B25, size: 0x8, addend: 0x0, symName: __ZN29llm_graph_input_pos_bucket_kv9set_inputEPK12llama_ubatch, symObjAddr: 0x9A4, symBinAddr: 0x3E33C, symSize: 0x18 }
  - { offsetInCU: 0x273E5, offset: 0x1B1B5E, size: 0x8, addend: 0x0, symName: __ZN23llm_graph_input_out_ids9set_inputEPK12llama_ubatch, symObjAddr: 0x9BC, symBinAddr: 0x3E354, symSize: 0x1B4 }
  - { offsetInCU: 0x274CF, offset: 0x1B1C48, size: 0x8, addend: 0x0, symName: __ZN20llm_graph_input_mean9set_inputEPK12llama_ubatch, symObjAddr: 0xB70, symBinAddr: 0x3E508, symSize: 0x450 }
  - { offsetInCU: 0x27783, offset: 0x1B1EFC, size: 0x8, addend: 0x0, symName: __ZN20llm_graph_input_mean9set_inputEPK12llama_ubatch, symObjAddr: 0xB70, symBinAddr: 0x3E508, symSize: 0x450 }
  - { offsetInCU: 0x27FF5, offset: 0x1B276E, size: 0x8, addend: 0x0, symName: __ZN19llm_graph_input_cls9set_inputEPK12llama_ubatch, symObjAddr: 0xFC0, symBinAddr: 0x3E958, symSize: 0x560 }
  - { offsetInCU: 0x28811, offset: 0x1B2F8A, size: 0x8, addend: 0x0, symName: __ZN22llm_graph_input_s_copy9set_inputEPK12llama_ubatch, symObjAddr: 0x1520, symBinAddr: 0x3EEB8, symSize: 0xA0 }
  - { offsetInCU: 0x28891, offset: 0x1B300A, size: 0x8, addend: 0x0, symName: __ZN26llm_graph_input_cross_embd9set_inputEPK12llama_ubatch, symObjAddr: 0x15C0, symBinAddr: 0x3EF58, symSize: 0x54 }
  - { offsetInCU: 0x288BF, offset: 0x1B3038, size: 0x8, addend: 0x0, symName: __ZN26llm_graph_input_cross_embd9set_inputEPK12llama_ubatch, symObjAddr: 0x15C0, symBinAddr: 0x3EF58, symSize: 0x54 }
  - { offsetInCU: 0x2895B, offset: 0x1B30D4, size: 0x8, addend: 0x0, symName: __ZN29llm_graph_input_attn_no_cache9set_inputEPK12llama_ubatch, symObjAddr: 0x1614, symBinAddr: 0x3EFAC, symSize: 0x4A0 }
  - { offsetInCU: 0x28C7F, offset: 0x1B33F8, size: 0x8, addend: 0x0, symName: __ZN31llm_graph_input_attn_kv_unified9set_inputEPK12llama_ubatch, symObjAddr: 0x1AB4, symBinAddr: 0x3F44C, symSize: 0x20 }
  - { offsetInCU: 0x28C92, offset: 0x1B340B, size: 0x8, addend: 0x0, symName: __ZN31llm_graph_input_attn_kv_unified9set_inputEPK12llama_ubatch, symObjAddr: 0x1AB4, symBinAddr: 0x3F44C, symSize: 0x20 }
  - { offsetInCU: 0x28CCC, offset: 0x1B3445, size: 0x8, addend: 0x0, symName: __ZN36llm_graph_input_attn_kv_unified_iswa9set_inputEPK12llama_ubatch, symObjAddr: 0x1AD4, symBinAddr: 0x3F46C, symSize: 0x70 }
  - { offsetInCU: 0x28DDE, offset: 0x1B3557, size: 0x8, addend: 0x0, symName: __ZN26llm_graph_input_attn_cross9set_inputEPK12llama_ubatch, symObjAddr: 0x1B44, symBinAddr: 0x3F4DC, symSize: 0x214 }
  - { offsetInCU: 0x28FD3, offset: 0x1B374C, size: 0x8, addend: 0x0, symName: __ZN17llm_graph_contextC2ERK16llm_graph_params, symObjAddr: 0x1D58, symBinAddr: 0x3F6F0, symSize: 0x174 }
  - { offsetInCU: 0x29B07, offset: 0x1B4280, size: 0x8, addend: 0x0, symName: __ZN17llm_graph_contextC2ERK16llm_graph_params, symObjAddr: 0x1D58, symBinAddr: 0x3F6F0, symSize: 0x174 }
  - { offsetInCU: 0x29C43, offset: 0x1B43BC, size: 0x8, addend: 0x0, symName: __ZN17llm_graph_contextC1ERK16llm_graph_params, symObjAddr: 0x1ECC, symBinAddr: 0x3F864, symSize: 0x4 }
  - { offsetInCU: 0x29C81, offset: 0x1B43FA, size: 0x8, addend: 0x0, symName: __ZN17llm_graph_contextC1ERK16llm_graph_params, symObjAddr: 0x1ECC, symBinAddr: 0x3F864, symSize: 0x4 }
  - { offsetInCU: 0x29C9B, offset: 0x1B4414, size: 0x8, addend: 0x0, symName: __ZNK17llm_graph_context14n_pos_per_embdEv, symObjAddr: 0x1ED0, symBinAddr: 0x3F868, symSize: 0x18 }
  - { offsetInCU: 0x29D81, offset: 0x1B44FA, size: 0x8, addend: 0x0, symName: __ZNK17llm_graph_context2cbEP11ggml_tensorPKci, symObjAddr: 0x1EE8, symBinAddr: 0x3F880, symSize: 0x54 }
  - { offsetInCU: 0x29E84, offset: 0x1B45FD, size: 0x8, addend: 0x0, symName: __ZNK17llm_graph_context10build_cvecEP11ggml_tensori, symObjAddr: 0x1F3C, symBinAddr: 0x3F8D4, symSize: 0x18 }
  - { offsetInCU: 0x29F15, offset: 0x1B468E, size: 0x8, addend: 0x0, symName: __ZNK17llm_graph_context13build_lora_mmEP11ggml_tensorS1_, symObjAddr: 0x1F54, symBinAddr: 0x3F8EC, symSize: 0xEC }
  - { offsetInCU: 0x2A102, offset: 0x1B487B, size: 0x8, addend: 0x0, symName: __ZNK17llm_graph_context16build_lora_mm_idEP11ggml_tensorS1_S1_, symObjAddr: 0x2040, symBinAddr: 0x3F9D8, symSize: 0x100 }
  - { offsetInCU: 0x2A2F8, offset: 0x1B4A71, size: 0x8, addend: 0x0, symName: __ZNK17llm_graph_context10build_normEP11ggml_tensorS1_S1_13llm_norm_typei, symObjAddr: 0x2140, symBinAddr: 0x3FAD8, symSize: 0x180 }
  - { offsetInCU: 0x2A6AB, offset: 0x1B4E24, size: 0x8, addend: 0x0, symName: __ZNK17llm_graph_context9build_ffnEP11ggml_tensorS1_S1_S1_S1_S1_S1_S1_S1_S1_S1_15llm_ffn_op_type17llm_ffn_gate_typei, symObjAddr: 0x22C0, symBinAddr: 0x3FC58, symSize: 0x75C }
  - { offsetInCU: 0x2BA43, offset: 0x1B61BC, size: 0x8, addend: 0x0, symName: __ZNK17llm_graph_context13build_moe_ffnEP11ggml_tensorS1_S1_S1_S1_S1_xx15llm_ffn_op_typebbf29llama_expert_gating_func_typei, symObjAddr: 0x2A1C, symBinAddr: 0x403B4, symSize: 0x798 }
  - { offsetInCU: 0x2CF46, offset: 0x1B76BF, size: 0x8, addend: 0x0, symName: __ZNK17llm_graph_context14build_inp_embdEP11ggml_tensor, symObjAddr: 0x31B4, symBinAddr: 0x40B4C, symSize: 0x25C }
  - { offsetInCU: 0x2D544, offset: 0x1B7CBD, size: 0x8, addend: 0x0, symName: __ZNK17llm_graph_context14build_inp_embdEP11ggml_tensor, symObjAddr: 0x31B4, symBinAddr: 0x40B4C, symSize: 0x25C }
  - { offsetInCU: 0x2DD52, offset: 0x1B84CB, size: 0x8, addend: 0x0, symName: __ZNSt3__16vectorINS_10unique_ptrI17llm_graph_input_iNS_14default_deleteIS2_EEEENS_9allocatorIS5_EEE24__emplace_back_slow_pathIJS5_EEEvDpOT_, symObjAddr: 0x5380, symBinAddr: 0x42D18, symSize: 0x128 }
  - { offsetInCU: 0x2E3AA, offset: 0x1B8B23, size: 0x8, addend: 0x0, symName: __ZNKSt3__16vectorINS_10unique_ptrI17llm_graph_input_iNS_14default_deleteIS2_EEEENS_9allocatorIS5_EEE20__throw_length_errorB8ue170006Ev, symObjAddr: 0x54A8, symBinAddr: 0x42E40, symSize: 0x14 }
  - { offsetInCU: 0x2E5FE, offset: 0x1B8D77, size: 0x8, addend: 0x0, symName: __ZNK17llm_graph_context13build_inp_posEv, symObjAddr: 0x3410, symBinAddr: 0x40DA8, symSize: 0x110 }
  - { offsetInCU: 0x2EDB2, offset: 0x1B952B, size: 0x8, addend: 0x0, symName: __ZNK17llm_graph_context20build_inp_attn_scaleEv, symObjAddr: 0x3520, symBinAddr: 0x40EB8, symSize: 0xFC }
  - { offsetInCU: 0x2F597, offset: 0x1B9D10, size: 0x8, addend: 0x0, symName: __ZNK17llm_graph_context17build_inp_out_idsEv, symObjAddr: 0x361C, symBinAddr: 0x40FB4, symSize: 0xEC }
  - { offsetInCU: 0x2FD19, offset: 0x1BA492, size: 0x8, addend: 0x0, symName: __ZNK17llm_graph_context14build_inp_meanEv, symObjAddr: 0x3708, symBinAddr: 0x410A0, symSize: 0xEC }
  - { offsetInCU: 0x30484, offset: 0x1BABFD, size: 0x8, addend: 0x0, symName: __ZNK17llm_graph_context13build_inp_clsEv, symObjAddr: 0x37F4, symBinAddr: 0x4118C, symSize: 0xE8 }
  - { offsetInCU: 0x30BF4, offset: 0x1BB36D, size: 0x8, addend: 0x0, symName: __ZNK17llm_graph_context16build_inp_s_copyEv, symObjAddr: 0x38DC, symBinAddr: 0x41274, symSize: 0xF8 }
  - { offsetInCU: 0x31384, offset: 0x1BBAFD, size: 0x8, addend: 0x0, symName: __ZNK17llm_graph_context20build_inp_cross_embdEv, symObjAddr: 0x39D4, symBinAddr: 0x4136C, symSize: 0xF8 }
  - { offsetInCU: 0x31B27, offset: 0x1BC2A0, size: 0x8, addend: 0x0, symName: __ZNK17llm_graph_context24build_inp_pos_bucket_encEv, symObjAddr: 0x3ACC, symBinAddr: 0x41464, symSize: 0xEC }
  - { offsetInCU: 0x322AD, offset: 0x1BCA26, size: 0x8, addend: 0x0, symName: __ZNK17llm_graph_context24build_inp_pos_bucket_decEv, symObjAddr: 0x3BB8, symBinAddr: 0x41550, symSize: 0x100 }
  - { offsetInCU: 0x32828, offset: 0x1BCFA1, size: 0x8, addend: 0x0, symName: __ZNK17llm_graph_context14build_pos_biasEP11ggml_tensorS1_, symObjAddr: 0x3CB8, symBinAddr: 0x41650, symSize: 0x114 }
  - { offsetInCU: 0x32B2C, offset: 0x1BD2A5, size: 0x8, addend: 0x0, symName: __ZNK17llm_graph_context14build_attn_mhaEP11ggml_cgraphP11ggml_tensorS3_S3_S3_S3_S3_f, symObjAddr: 0x3DCC, symBinAddr: 0x41764, symSize: 0x3DC }
  - { offsetInCU: 0x332C8, offset: 0x1BDA41, size: 0x8, addend: 0x0, symName: __ZNK17llm_graph_context23build_attn_inp_no_cacheEv, symObjAddr: 0x41A8, symBinAddr: 0x41B40, symSize: 0x144 }
  - { offsetInCU: 0x33862, offset: 0x1BDFDB, size: 0x8, addend: 0x0, symName: __ZNK17llm_graph_context10build_attnEP29llm_graph_input_attn_no_cacheP11ggml_cgraphP11ggml_tensorS5_S5_S5_S5_S5_S5_fi, symObjAddr: 0x42EC, symBinAddr: 0x41C84, symSize: 0x130 }
  - { offsetInCU: 0x33DAA, offset: 0x1BE523, size: 0x8, addend: 0x0, symName: __ZNK17llm_graph_context25build_attn_inp_kv_unifiedEv, symObjAddr: 0x441C, symBinAddr: 0x41DB4, symSize: 0x18C }
  - { offsetInCU: 0x3438F, offset: 0x1BEB08, size: 0x8, addend: 0x0, symName: __ZNK17llm_graph_context10build_attnEP31llm_graph_input_attn_kv_unifiedP11ggml_cgraphP11ggml_tensorS5_S5_S5_S5_S5_S5_fi, symObjAddr: 0x45A8, symBinAddr: 0x41F40, symSize: 0x1B0 }
  - { offsetInCU: 0x34926, offset: 0x1BF09F, size: 0x8, addend: 0x0, symName: __ZNK17llm_graph_context30build_attn_inp_kv_unified_iswaEv, symObjAddr: 0x4758, symBinAddr: 0x420F0, symSize: 0x1FC }
  - { offsetInCU: 0x34F3B, offset: 0x1BF6B4, size: 0x8, addend: 0x0, symName: __ZNK17llm_graph_context10build_attnEP36llm_graph_input_attn_kv_unified_iswaP11ggml_cgraphP11ggml_tensorS5_S5_S5_S5_S5_S5_fi, symObjAddr: 0x4954, symBinAddr: 0x422EC, symSize: 0x1D8 }
  - { offsetInCU: 0x35486, offset: 0x1BFBFF, size: 0x8, addend: 0x0, symName: __ZNK17llm_graph_context20build_attn_inp_crossEv, symObjAddr: 0x4B2C, symBinAddr: 0x424C4, symSize: 0x158 }
  - { offsetInCU: 0x35A3E, offset: 0x1C01B7, size: 0x8, addend: 0x0, symName: __ZNK17llm_graph_context10build_attnEP26llm_graph_input_attn_crossP11ggml_cgraphP11ggml_tensorS5_S5_S5_S5_S5_S5_fi, symObjAddr: 0x4C84, symBinAddr: 0x4261C, symSize: 0x130 }
  - { offsetInCU: 0x35D3A, offset: 0x1C04B3, size: 0x8, addend: 0x0, symName: __ZNK17llm_graph_context21build_recurrent_stateEP11ggml_cgraphP11ggml_tensorS3_iib, symObjAddr: 0x4DB4, symBinAddr: 0x4274C, symSize: 0x1D0 }
  - { offsetInCU: 0x35FF3, offset: 0x1C076C, size: 0x8, addend: 0x0, symName: __ZNK17llm_graph_context27build_rwkv_token_shift_loadEP11ggml_cgraphP11ggml_tensorRK12llama_ubatchi, symObjAddr: 0x4F84, symBinAddr: 0x4291C, symSize: 0x90 }
  - { offsetInCU: 0x360F9, offset: 0x1C0872, size: 0x8, addend: 0x0, symName: __ZNK17llm_graph_context28build_rwkv_token_shift_storeEP11ggml_tensorRK12llama_ubatchi, symObjAddr: 0x5014, symBinAddr: 0x429AC, symSize: 0xE4 }
  - { offsetInCU: 0x36206, offset: 0x1C097F, size: 0x8, addend: 0x0, symName: __ZNK17llm_graph_context13build_poolingEP11ggml_cgraphP11ggml_tensorS3_S3_S3_, symObjAddr: 0x50F8, symBinAddr: 0x42A90, symSize: 0x218 }
  - { offsetInCU: 0x3656F, offset: 0x1C0CE8, size: 0x8, addend: 0x0, symName: __ZN19llm_graph_input_posD1Ev, symObjAddr: 0x5310, symBinAddr: 0x42CA8, symSize: 0x4 }
  - { offsetInCU: 0x36582, offset: 0x1C0CFB, size: 0x8, addend: 0x0, symName: __ZN19llm_graph_input_posD1Ev, symObjAddr: 0x5310, symBinAddr: 0x42CA8, symSize: 0x4 }
  - { offsetInCU: 0x365AB, offset: 0x1C0D24, size: 0x8, addend: 0x0, symName: __ZN19llm_graph_input_posD0Ev, symObjAddr: 0x5314, symBinAddr: 0x42CAC, symSize: 0x4 }
  - { offsetInCU: 0x365CB, offset: 0x1C0D44, size: 0x8, addend: 0x0, symName: __ZN25llm_graph_input_attn_tempD1Ev, symObjAddr: 0x5318, symBinAddr: 0x42CB0, symSize: 0x4 }
  - { offsetInCU: 0x365F4, offset: 0x1C0D6D, size: 0x8, addend: 0x0, symName: __ZN25llm_graph_input_attn_tempD0Ev, symObjAddr: 0x531C, symBinAddr: 0x42CB4, symSize: 0x4 }
  - { offsetInCU: 0x36614, offset: 0x1C0D8D, size: 0x8, addend: 0x0, symName: __ZN26llm_graph_input_pos_bucketD1Ev, symObjAddr: 0x5320, symBinAddr: 0x42CB8, symSize: 0x4 }
  - { offsetInCU: 0x3663D, offset: 0x1C0DB6, size: 0x8, addend: 0x0, symName: __ZN26llm_graph_input_pos_bucketD0Ev, symObjAddr: 0x5324, symBinAddr: 0x42CBC, symSize: 0x4 }
  - { offsetInCU: 0x3665D, offset: 0x1C0DD6, size: 0x8, addend: 0x0, symName: __ZN29llm_graph_input_pos_bucket_kvD1Ev, symObjAddr: 0x5328, symBinAddr: 0x42CC0, symSize: 0x4 }
  - { offsetInCU: 0x36686, offset: 0x1C0DFF, size: 0x8, addend: 0x0, symName: __ZN29llm_graph_input_pos_bucket_kvD0Ev, symObjAddr: 0x532C, symBinAddr: 0x42CC4, symSize: 0x4 }
  - { offsetInCU: 0x366A6, offset: 0x1C0E1F, size: 0x8, addend: 0x0, symName: __ZN23llm_graph_input_out_idsD1Ev, symObjAddr: 0x5330, symBinAddr: 0x42CC8, symSize: 0x4 }
  - { offsetInCU: 0x366CF, offset: 0x1C0E48, size: 0x8, addend: 0x0, symName: __ZN23llm_graph_input_out_idsD0Ev, symObjAddr: 0x5334, symBinAddr: 0x42CCC, symSize: 0x4 }
  - { offsetInCU: 0x366EF, offset: 0x1C0E68, size: 0x8, addend: 0x0, symName: __ZN20llm_graph_input_meanD1Ev, symObjAddr: 0x5338, symBinAddr: 0x42CD0, symSize: 0x4 }
  - { offsetInCU: 0x36718, offset: 0x1C0E91, size: 0x8, addend: 0x0, symName: __ZN20llm_graph_input_meanD0Ev, symObjAddr: 0x533C, symBinAddr: 0x42CD4, symSize: 0x4 }
  - { offsetInCU: 0x36738, offset: 0x1C0EB1, size: 0x8, addend: 0x0, symName: __ZN19llm_graph_input_clsD1Ev, symObjAddr: 0x5340, symBinAddr: 0x42CD8, symSize: 0x4 }
  - { offsetInCU: 0x36761, offset: 0x1C0EDA, size: 0x8, addend: 0x0, symName: __ZN19llm_graph_input_clsD0Ev, symObjAddr: 0x5344, symBinAddr: 0x42CDC, symSize: 0x4 }
  - { offsetInCU: 0x36781, offset: 0x1C0EFA, size: 0x8, addend: 0x0, symName: __ZN22llm_graph_input_s_copyD1Ev, symObjAddr: 0x5348, symBinAddr: 0x42CE0, symSize: 0x4 }
  - { offsetInCU: 0x367AA, offset: 0x1C0F23, size: 0x8, addend: 0x0, symName: __ZN22llm_graph_input_s_copyD0Ev, symObjAddr: 0x534C, symBinAddr: 0x42CE4, symSize: 0x4 }
  - { offsetInCU: 0x367CA, offset: 0x1C0F43, size: 0x8, addend: 0x0, symName: __ZN26llm_graph_input_cross_embdD1Ev, symObjAddr: 0x5350, symBinAddr: 0x42CE8, symSize: 0x4 }
  - { offsetInCU: 0x367F3, offset: 0x1C0F6C, size: 0x8, addend: 0x0, symName: __ZN26llm_graph_input_cross_embdD0Ev, symObjAddr: 0x5354, symBinAddr: 0x42CEC, symSize: 0x4 }
  - { offsetInCU: 0x36813, offset: 0x1C0F8C, size: 0x8, addend: 0x0, symName: __ZN29llm_graph_input_attn_no_cacheD1Ev, symObjAddr: 0x5358, symBinAddr: 0x42CF0, symSize: 0x4 }
  - { offsetInCU: 0x3683C, offset: 0x1C0FB5, size: 0x8, addend: 0x0, symName: __ZN29llm_graph_input_attn_no_cacheD0Ev, symObjAddr: 0x535C, symBinAddr: 0x42CF4, symSize: 0x4 }
  - { offsetInCU: 0x3685C, offset: 0x1C0FD5, size: 0x8, addend: 0x0, symName: __ZN31llm_graph_input_attn_kv_unifiedD1Ev, symObjAddr: 0x5360, symBinAddr: 0x42CF8, symSize: 0x4 }
  - { offsetInCU: 0x36885, offset: 0x1C0FFE, size: 0x8, addend: 0x0, symName: __ZN31llm_graph_input_attn_kv_unifiedD0Ev, symObjAddr: 0x5364, symBinAddr: 0x42CFC, symSize: 0x4 }
  - { offsetInCU: 0x368A5, offset: 0x1C101E, size: 0x8, addend: 0x0, symName: __ZN36llm_graph_input_attn_kv_unified_iswaD1Ev, symObjAddr: 0x5368, symBinAddr: 0x42D00, symSize: 0x4 }
  - { offsetInCU: 0x368CE, offset: 0x1C1047, size: 0x8, addend: 0x0, symName: __ZN36llm_graph_input_attn_kv_unified_iswaD0Ev, symObjAddr: 0x536C, symBinAddr: 0x42D04, symSize: 0x4 }
  - { offsetInCU: 0x368EE, offset: 0x1C1067, size: 0x8, addend: 0x0, symName: __ZN26llm_graph_input_attn_crossD1Ev, symObjAddr: 0x5370, symBinAddr: 0x42D08, symSize: 0x4 }
  - { offsetInCU: 0x36917, offset: 0x1C1090, size: 0x8, addend: 0x0, symName: __ZN26llm_graph_input_attn_crossD0Ev, symObjAddr: 0x5374, symBinAddr: 0x42D0C, symSize: 0x4 }
  - { offsetInCU: 0x36937, offset: 0x1C10B0, size: 0x8, addend: 0x0, symName: __ZN20llm_graph_input_embdD1Ev, symObjAddr: 0x5378, symBinAddr: 0x42D10, symSize: 0x4 }
  - { offsetInCU: 0x36960, offset: 0x1C10D9, size: 0x8, addend: 0x0, symName: __ZN20llm_graph_input_embdD0Ev, symObjAddr: 0x537C, symBinAddr: 0x42D14, symSize: 0x4 }
  - { offsetInCU: 0x36C01, offset: 0x1C137A, size: 0x8, addend: 0x0, symName: __ZNKSt3__16vectorINS_10unique_ptrI17llm_graph_input_iNS_14default_deleteIS2_EEEENS_9allocatorIS5_EEE20__throw_length_errorB8ue170006Ev, symObjAddr: 0x54A8, symBinAddr: 0x42E40, symSize: 0x14 }
  - { offsetInCU: 0x36D47, offset: 0x1C14C0, size: 0x8, addend: 0x0, symName: __ZN16llm_graph_resultD1Ev, symObjAddr: 0x5558, symBinAddr: 0x42E54, symSize: 0x84 }
  - { offsetInCU: 0x36FD3, offset: 0x1C174C, size: 0x8, addend: 0x0, symName: __ZN16llm_graph_resultD0Ev, symObjAddr: 0x55DC, symBinAddr: 0x42ED8, symSize: 0x84 }
  - { offsetInCU: 0x3726B, offset: 0x1C19E4, size: 0x8, addend: 0x0, symName: __ZN16llm_graph_result10get_tokensEv, symObjAddr: 0x5660, symBinAddr: 0x42F5C, symSize: 0x8 }
  - { offsetInCU: 0x37292, offset: 0x1C1A0B, size: 0x8, addend: 0x0, symName: __ZN16llm_graph_result10get_logitsEv, symObjAddr: 0x5668, symBinAddr: 0x42F64, symSize: 0x8 }
  - { offsetInCU: 0x372B9, offset: 0x1C1A32, size: 0x8, addend: 0x0, symName: __ZN16llm_graph_result8get_embdEv, symObjAddr: 0x5670, symBinAddr: 0x42F6C, symSize: 0x8 }
  - { offsetInCU: 0x372E0, offset: 0x1C1A59, size: 0x8, addend: 0x0, symName: __ZN16llm_graph_result15get_embd_pooledEv, symObjAddr: 0x5678, symBinAddr: 0x42F74, symSize: 0x8 }
  - { offsetInCU: 0x37335, offset: 0x1C1AAE, size: 0x8, addend: 0x0, symName: __ZN16llm_graph_result10set_inputsEPK12llama_ubatch, symObjAddr: 0x5680, symBinAddr: 0x42F7C, symSize: 0x4C }
  - { offsetInCU: 0x26, offset: 0x1C1BC6, size: 0x8, addend: 0x0, symName: __ZN13llama_hparams15set_swa_patternEj, symObjAddr: 0x0, symBinAddr: 0x42FC8, symSize: 0x310 }
  - { offsetInCU: 0x32DD, offset: 0x1C4E7D, size: 0x8, addend: 0x0, symName: __ZN13llama_hparams15set_swa_patternEj, symObjAddr: 0x0, symBinAddr: 0x42FC8, symSize: 0x310 }
  - { offsetInCU: 0x335B, offset: 0x1C4EFB, size: 0x8, addend: 0x0, symName: __ZNK13llama_hparams10is_swa_anyEv, symObjAddr: 0x310, symBinAddr: 0x432D8, symSize: 0x64 }
  - { offsetInCU: 0x33BE, offset: 0x1C4F5E, size: 0x8, addend: 0x0, symName: __ZNK13llama_hparams6n_headEj, symObjAddr: 0x374, symBinAddr: 0x4333C, symSize: 0x3C }
  - { offsetInCU: 0x33EC, offset: 0x1C4F8C, size: 0x8, addend: 0x0, symName: __ZNK13llama_hparams9n_head_kvEj, symObjAddr: 0x3B0, symBinAddr: 0x43378, symSize: 0x3C }
  - { offsetInCU: 0x3417, offset: 0x1C4FB7, size: 0x8, addend: 0x0, symName: __ZNK13llama_hparams9n_head_kvEj, symObjAddr: 0x3B0, symBinAddr: 0x43378, symSize: 0x3C }
  - { offsetInCU: 0x3445, offset: 0x1C4FE5, size: 0x8, addend: 0x0, symName: __ZNK13llama_hparams4n_ffEj, symObjAddr: 0x3EC, symBinAddr: 0x433B4, symSize: 0x3C }
  - { offsetInCU: 0x3456, offset: 0x1C4FF6, size: 0x8, addend: 0x0, symName: __ZNK13llama_hparams4n_ffEj, symObjAddr: 0x3EC, symBinAddr: 0x433B4, symSize: 0x3C }
  - { offsetInCU: 0x3492, offset: 0x1C5032, size: 0x8, addend: 0x0, symName: __ZNK13llama_hparams5n_gqaEj, symObjAddr: 0x428, symBinAddr: 0x433F0, symSize: 0x5C }
  - { offsetInCU: 0x34EE, offset: 0x1C508E, size: 0x8, addend: 0x0, symName: __ZNK13llama_hparams5n_gqaEj, symObjAddr: 0x428, symBinAddr: 0x433F0, symSize: 0x5C }
  - { offsetInCU: 0x358E, offset: 0x1C512E, size: 0x8, addend: 0x0, symName: __ZNK13llama_hparams12n_embd_k_gqaEj, symObjAddr: 0x484, symBinAddr: 0x4344C, symSize: 0x44 }
  - { offsetInCU: 0x359E, offset: 0x1C513E, size: 0x8, addend: 0x0, symName: __ZNK13llama_hparams12n_embd_k_gqaEj, symObjAddr: 0x484, symBinAddr: 0x4344C, symSize: 0x44 }
  - { offsetInCU: 0x360A, offset: 0x1C51AA, size: 0x8, addend: 0x0, symName: __ZNK13llama_hparams12n_embd_v_gqaEj, symObjAddr: 0x4C8, symBinAddr: 0x43490, symSize: 0x44 }
  - { offsetInCU: 0x361B, offset: 0x1C51BB, size: 0x8, addend: 0x0, symName: __ZNK13llama_hparams12n_embd_v_gqaEj, symObjAddr: 0x4C8, symBinAddr: 0x43490, symSize: 0x44 }
  - { offsetInCU: 0x3687, offset: 0x1C5227, size: 0x8, addend: 0x0, symName: __ZNK13llama_hparams10n_embd_k_sEv, symObjAddr: 0x50C, symBinAddr: 0x434D4, symSize: 0x44 }
  - { offsetInCU: 0x3698, offset: 0x1C5238, size: 0x8, addend: 0x0, symName: __ZNK13llama_hparams10n_embd_k_sEv, symObjAddr: 0x50C, symBinAddr: 0x434D4, symSize: 0x44 }
  - { offsetInCU: 0x36C1, offset: 0x1C5261, size: 0x8, addend: 0x0, symName: __ZNK13llama_hparams10n_embd_v_sEv, symObjAddr: 0x550, symBinAddr: 0x43518, symSize: 0x30 }
  - { offsetInCU: 0x36EA, offset: 0x1C528A, size: 0x8, addend: 0x0, symName: __ZNK13llama_hparams6is_swaEj, symObjAddr: 0x580, symBinAddr: 0x43548, symSize: 0x40 }
  - { offsetInCU: 0x52, offset: 0x1C5333, size: 0x8, addend: 0x0, symName: __ZL14g_logger_state.0, symObjAddr: 0x1680, symBinAddr: 0x238388, symSize: 0x0 }
  - { offsetInCU: 0x5D, offset: 0x1C533E, size: 0x8, addend: 0x0, symName: __ZL14g_logger_state.1, symObjAddr: 0x32170, symBinAddr: 0x2A3880, symSize: 0x0 }
  - { offsetInCU: 0x900C, offset: 0x1CE2ED, size: 0x8, addend: 0x0, symName: __ZN9time_measC2ERxb, symObjAddr: 0x0, symBinAddr: 0x43588, symSize: 0x48 }
  - { offsetInCU: 0x9092, offset: 0x1CE373, size: 0x8, addend: 0x0, symName: __ZN9time_measC1ERxb, symObjAddr: 0x48, symBinAddr: 0x435D0, symSize: 0x48 }
  - { offsetInCU: 0x9116, offset: 0x1CE3F7, size: 0x8, addend: 0x0, symName: __ZN9time_measD2Ev, symObjAddr: 0x90, symBinAddr: 0x43618, symSize: 0x44 }
  - { offsetInCU: 0x9162, offset: 0x1CE443, size: 0x8, addend: 0x0, symName: __ZN9time_measD1Ev, symObjAddr: 0xE0, symBinAddr: 0x4365C, symSize: 0x44 }
  - { offsetInCU: 0x91B4, offset: 0x1CE495, size: 0x8, addend: 0x0, symName: _llama_log_set, symObjAddr: 0x124, symBinAddr: 0x436A0, symSize: 0x44 }
  - { offsetInCU: 0x921A, offset: 0x1CE4FB, size: 0x8, addend: 0x0, symName: __Z26llama_log_callback_default14ggml_log_levelPKcPv, symObjAddr: 0x168, symBinAddr: 0x436E4, symSize: 0x30 }
  - { offsetInCU: 0x9306, offset: 0x1CE5E7, size: 0x8, addend: 0x0, symName: __Z18llama_log_internal14ggml_log_levelPKcz, symObjAddr: 0x198, symBinAddr: 0x43714, symSize: 0xF8 }
  - { offsetInCU: 0x9658, offset: 0x1CE939, size: 0x8, addend: 0x0, symName: __Z11replace_allRNSt3__112basic_stringIcNS_11char_traitsIcEENS_9allocatorIcEEEERKS5_S8_, symObjAddr: 0x290, symBinAddr: 0x4380C, symSize: 0x1F8 }
  - { offsetInCU: 0xA03C, offset: 0x1CF31D, size: 0x8, addend: 0x0, symName: __Z6formatPKcz, symObjAddr: 0x488, symBinAddr: 0x43A04, symSize: 0x14C }
  - { offsetInCU: 0xA856, offset: 0x1CFB37, size: 0x8, addend: 0x0, symName: __Z25llama_format_tensor_shapeRKNSt3__16vectorIxNS_9allocatorIxEEEE, symObjAddr: 0x5D4, symBinAddr: 0x43B50, symSize: 0x160 }
  - { offsetInCU: 0xACA4, offset: 0x1CFF85, size: 0x8, addend: 0x0, symName: __ZNKSt3__16vectorIxNS_9allocatorIxEEE20__throw_out_of_rangeB8ue170006Ev, symObjAddr: 0x11A0, symBinAddr: 0x444E0, symSize: 0x14 }
  - { offsetInCU: 0xACFC, offset: 0x1CFFDD, size: 0x8, addend: 0x0, symName: __Z25llama_format_tensor_shapePK11ggml_tensor, symObjAddr: 0x734, symBinAddr: 0x43CB0, symSize: 0x164 }
  - { offsetInCU: 0xB248, offset: 0x1D0529, size: 0x8, addend: 0x0, symName: __Z14gguf_kv_to_strPK12gguf_contexti, symObjAddr: 0x898, symBinAddr: 0x43E14, symSize: 0x538 }
  - { offsetInCU: 0xCDAE, offset: 0x1D208F, size: 0x8, addend: 0x0, symName: __ZL16gguf_data_to_str9gguf_typePKvi, symObjAddr: 0xEFC, symBinAddr: 0x4434C, symSize: 0x194 }
  - { offsetInCU: 0x26, offset: 0x1D2C8E, size: 0x8, addend: 0x0, symName: __ZN16llama_io_write_i12write_stringERKNSt3__112basic_stringIcNS0_11char_traitsIcEENS0_9allocatorIcEEEE, symObjAddr: 0x0, symBinAddr: 0x444F4, symSize: 0x78 }
  - { offsetInCU: 0x4805, offset: 0x1D746D, size: 0x8, addend: 0x0, symName: __ZN16llama_io_write_i12write_stringERKNSt3__112basic_stringIcNS0_11char_traitsIcEENS0_9allocatorIcEEEE, symObjAddr: 0x0, symBinAddr: 0x444F4, symSize: 0x78 }
  - { offsetInCU: 0x4916, offset: 0x1D757E, size: 0x8, addend: 0x0, symName: __ZN15llama_io_read_i11read_stringERNSt3__112basic_stringIcNS0_11char_traitsIcEENS0_9allocatorIcEEEE, symObjAddr: 0x78, symBinAddr: 0x4456C, symSize: 0x60 }
  - { offsetInCU: 0x194E1, offset: 0x1F0AE4, size: 0x8, addend: 0x0, symName: __ZNSt3__113__tree_removeB8ue170006IPNS_16__tree_node_baseIPvEEEEvT_S5_, symObjAddr: 0x4BD0, symBinAddr: 0x48B18, symSize: 0x3C4 }
  - { offsetInCU: 0x20F3B, offset: 0x1F853E, size: 0x8, addend: 0x0, symName: __ZN24llama_kv_cache_recurrentC2ERK11llama_model9ggml_typeS3_bjj, symObjAddr: 0x0, symBinAddr: 0x445CC, symSize: 0x9F8 }
  - { offsetInCU: 0x24224, offset: 0x1FB827, size: 0x8, addend: 0x0, symName: __ZNSt3__16vectorIN24llama_kv_cache_recurrent7kv_cellENS_9allocatorIS2_EEE8__appendEm, symObjAddr: 0x481C, symBinAddr: 0x488F4, symSize: 0x210 }
  - { offsetInCU: 0x24B73, offset: 0x1FC176, size: 0x8, addend: 0x0, symName: __ZNKSt3__16vectorIN24llama_kv_cache_recurrent7kv_cellENS_9allocatorIS2_EEE20__throw_length_errorB8ue170006Ev, symObjAddr: 0x4A2C, symBinAddr: 0x48B04, symSize: 0x14 }
  - { offsetInCU: 0x25528, offset: 0x1FCB2B, size: 0x8, addend: 0x0, symName: __ZNSt3__16vectorINS_10unique_ptrI19ggml_backend_buffer27ggml_backend_buffer_deleterEENS_9allocatorIS4_EEED1B8ue170006Ev, symObjAddr: 0xAB8, symBinAddr: 0x45084, symSize: 0x70 }
  - { offsetInCU: 0x2572A, offset: 0x1FCD2D, size: 0x8, addend: 0x0, symName: __ZNSt3__16vectorINS_10unique_ptrI12ggml_context20ggml_context_deleterEENS_9allocatorIS4_EEED1B8ue170006Ev, symObjAddr: 0xB28, symBinAddr: 0x450F4, symSize: 0x70 }
  - { offsetInCU: 0x2592C, offset: 0x1FCF2F, size: 0x8, addend: 0x0, symName: __ZNSt3__16vectorIN24llama_kv_cache_recurrent7kv_cellENS_9allocatorIS2_EEED1B8ue170006Ev, symObjAddr: 0xB98, symBinAddr: 0x45164, symSize: 0x68 }
  - { offsetInCU: 0x25BC7, offset: 0x1FD1CA, size: 0x8, addend: 0x0, symName: __ZNK24llama_kv_cache_recurrent12size_k_bytesEv, symObjAddr: 0x9F8, symBinAddr: 0x44FC4, symSize: 0x60 }
  - { offsetInCU: 0x25C61, offset: 0x1FD264, size: 0x8, addend: 0x0, symName: __ZNK24llama_kv_cache_recurrent12size_v_bytesEv, symObjAddr: 0xA58, symBinAddr: 0x45024, symSize: 0x60 }
  - { offsetInCU: 0x260EC, offset: 0x1FD6EF, size: 0x8, addend: 0x0, symName: __ZN24llama_kv_cache_recurrentC1ERK11llama_model9ggml_typeS3_bjj, symObjAddr: 0xC00, symBinAddr: 0x451CC, symSize: 0x4 }
  - { offsetInCU: 0x26172, offset: 0x1FD775, size: 0x8, addend: 0x0, symName: __ZN24llama_kv_cache_recurrentC1ERK11llama_model9ggml_typeS3_bjj, symObjAddr: 0xC00, symBinAddr: 0x451CC, symSize: 0x4 }
  - { offsetInCU: 0x2622F, offset: 0x1FD832, size: 0x8, addend: 0x0, symName: __ZN24llama_kv_cache_recurrent5clearEb, symObjAddr: 0xC04, symBinAddr: 0x451D0, symSize: 0xC8 }
  - { offsetInCU: 0x266E4, offset: 0x1FDCE7, size: 0x8, addend: 0x0, symName: __ZN24llama_kv_cache_recurrent6seq_rmEiii, symObjAddr: 0xCCC, symBinAddr: 0x45298, symSize: 0x314 }
  - { offsetInCU: 0x26EB1, offset: 0x1FE4B4, size: 0x8, addend: 0x0, symName: __ZN24llama_kv_cache_recurrent6seq_cpEiiii, symObjAddr: 0xFE0, symBinAddr: 0x455AC, symSize: 0x1E8 }
  - { offsetInCU: 0x274A0, offset: 0x1FEAA3, size: 0x8, addend: 0x0, symName: __ZN24llama_kv_cache_recurrent8seq_keepEi, symObjAddr: 0x11C8, symBinAddr: 0x45794, symSize: 0x1DC }
  - { offsetInCU: 0x27903, offset: 0x1FEF06, size: 0x8, addend: 0x0, symName: __ZN24llama_kv_cache_recurrent7seq_addEiiii, symObjAddr: 0x13A4, symBinAddr: 0x45970, symSize: 0xA8 }
  - { offsetInCU: 0x27AE6, offset: 0x1FF0E9, size: 0x8, addend: 0x0, symName: __ZN24llama_kv_cache_recurrent7seq_divEiiii, symObjAddr: 0x144C, symBinAddr: 0x45A18, symSize: 0xAC }
  - { offsetInCU: 0x27D35, offset: 0x1FF338, size: 0x8, addend: 0x0, symName: __ZNK24llama_kv_cache_recurrent11seq_pos_minEi, symObjAddr: 0x14F8, symBinAddr: 0x45AC4, symSize: 0x90 }
  - { offsetInCU: 0x27F17, offset: 0x1FF51A, size: 0x8, addend: 0x0, symName: __ZNK24llama_kv_cache_recurrent11seq_pos_maxEi, symObjAddr: 0x1588, symBinAddr: 0x45B54, symSize: 0x84 }
  - { offsetInCU: 0x28B74, offset: 0x200177, size: 0x8, addend: 0x0, symName: __ZN24llama_kv_cache_recurrent10init_batchERK11llama_batchjb, symObjAddr: 0x160C, symBinAddr: 0x45BD8, symSize: 0x380 }
  - { offsetInCU: 0x29C0A, offset: 0x20120D, size: 0x8, addend: 0x0, symName: __ZN24llama_kv_cache_recurrent7prepareERKNSt3__16vectorI12llama_ubatchNS0_9allocatorIS2_EEEE, symObjAddr: 0x198C, symBinAddr: 0x45F58, symSize: 0x128 }
  - { offsetInCU: 0x2A598, offset: 0x201B9B, size: 0x8, addend: 0x0, symName: __ZNKSt3__16vectorI12llama_ubatchNS_9allocatorIS1_EEE20__throw_length_errorB8ue170006Ev, symObjAddr: 0x4F94, symBinAddr: 0x48EDC, symSize: 0x14 }
  - { offsetInCU: 0x2A5C2, offset: 0x201BC5, size: 0x8, addend: 0x0, symName: __ZNSt3__16vectorIN24llama_kv_cache_recurrent7kv_cellENS_9allocatorIS2_EEE16__init_with_sizeB8ue170006IPS2_S7_EEvT_T0_m, symObjAddr: 0x4FA8, symBinAddr: 0x48EF0, symSize: 0x144 }
  - { offsetInCU: 0x2AA0F, offset: 0x202012, size: 0x8, addend: 0x0, symName: __ZNSt3__16vectorIN24llama_kv_cache_recurrent7kv_cellENS_9allocatorIS2_EEE16__init_with_sizeB8ue170006IPS2_S7_EEvT_T0_m, symObjAddr: 0x4FA8, symBinAddr: 0x48EF0, symSize: 0x144 }
  - { offsetInCU: 0x2B107, offset: 0x20270A, size: 0x8, addend: 0x0, symName: __ZN24llama_kv_cache_recurrent9find_slotERK12llama_ubatch, symObjAddr: 0x1C20, symBinAddr: 0x46154, symSize: 0xC48 }
  - { offsetInCU: 0x2CC64, offset: 0x204267, size: 0x8, addend: 0x0, symName: __ZN24llama_kv_cache_recurrent9init_fullEv, symObjAddr: 0x1B4C, symBinAddr: 0x46080, symSize: 0x70 }
  - { offsetInCU: 0x2CD8B, offset: 0x20438E, size: 0x8, addend: 0x0, symName: __ZN24llama_kv_cache_recurrent11init_updateEP13llama_contextb, symObjAddr: 0x1BBC, symBinAddr: 0x460F0, symSize: 0x64 }
  - { offsetInCU: 0x2D27F, offset: 0x204882, size: 0x8, addend: 0x0, symName: __ZNK24llama_kv_cache_recurrent13get_can_shiftEv, symObjAddr: 0x2868, symBinAddr: 0x46D9C, symSize: 0x8 }
  - { offsetInCU: 0x2D2C2, offset: 0x2048C5, size: 0x8, addend: 0x0, symName: __ZNK24llama_kv_cache_recurrent10total_sizeEv, symObjAddr: 0x2870, symBinAddr: 0x46DA4, symSize: 0x60 }
  - { offsetInCU: 0x2DB50, offset: 0x205153, size: 0x8, addend: 0x0, symName: __ZNK24llama_kv_cache_recurrent11state_writeER16llama_io_write_ii, symObjAddr: 0x28D0, symBinAddr: 0x46E04, symSize: 0x564 }
  - { offsetInCU: 0x2EA8E, offset: 0x206091, size: 0x8, addend: 0x0, symName: __ZNK24llama_kv_cache_recurrent16state_write_metaER16llama_io_write_iRKNSt3__16vectorINS2_4pairIjjEENS2_9allocatorIS5_EEEEi, symObjAddr: 0x2E34, symBinAddr: 0x47368, symSize: 0x164 }
  - { offsetInCU: 0x2EDFF, offset: 0x206402, size: 0x8, addend: 0x0, symName: __ZNK24llama_kv_cache_recurrent16state_write_dataER16llama_io_write_iRKNSt3__16vectorINS2_4pairIjjEENS2_9allocatorIS5_EEEE, symObjAddr: 0x2F98, symBinAddr: 0x474CC, symSize: 0x244 }
  - { offsetInCU: 0x2F28D, offset: 0x206890, size: 0x8, addend: 0x0, symName: __ZNKSt3__16vectorINS_4pairIjjEENS_9allocatorIS2_EEE20__throw_length_errorB8ue170006Ev, symObjAddr: 0x542C, symBinAddr: 0x49374, symSize: 0x14 }
  - { offsetInCU: 0x2F3A4, offset: 0x2069A7, size: 0x8, addend: 0x0, symName: __ZN24llama_kv_cache_recurrent10state_readER15llama_io_read_ii, symObjAddr: 0x31DC, symBinAddr: 0x47710, symSize: 0xF4 }
  - { offsetInCU: 0x2F499, offset: 0x206A9C, size: 0x8, addend: 0x0, symName: __ZN24llama_kv_cache_recurrent15state_read_metaER15llama_io_read_iji, symObjAddr: 0x32D0, symBinAddr: 0x47804, symSize: 0x5E8 }
  - { offsetInCU: 0x301BC, offset: 0x2077BF, size: 0x8, addend: 0x0, symName: __ZN24llama_kv_cache_recurrent15state_read_dataER15llama_io_read_ij, symObjAddr: 0x38B8, symBinAddr: 0x47DEC, symSize: 0x560 }
  - { offsetInCU: 0x30824, offset: 0x207E27, size: 0x8, addend: 0x0, symName: __ZN30llama_kv_cache_recurrent_stateC2E19llama_memory_status, symObjAddr: 0x3E18, symBinAddr: 0x4834C, symSize: 0x3C }
  - { offsetInCU: 0x3084B, offset: 0x207E4E, size: 0x8, addend: 0x0, symName: __ZN30llama_kv_cache_recurrent_stateC1E19llama_memory_status, symObjAddr: 0x3E54, symBinAddr: 0x48388, symSize: 0x3C }
  - { offsetInCU: 0x30874, offset: 0x207E77, size: 0x8, addend: 0x0, symName: __ZN30llama_kv_cache_recurrent_stateC1E19llama_memory_status, symObjAddr: 0x3E54, symBinAddr: 0x48388, symSize: 0x3C }
  - { offsetInCU: 0x30896, offset: 0x207E99, size: 0x8, addend: 0x0, symName: __ZN30llama_kv_cache_recurrent_stateC2E19llama_memory_statusP24llama_kv_cache_recurrent, symObjAddr: 0x3E90, symBinAddr: 0x483C4, symSize: 0x48 }
  - { offsetInCU: 0x308C4, offset: 0x207EC7, size: 0x8, addend: 0x0, symName: __ZN30llama_kv_cache_recurrent_stateC1E19llama_memory_statusP24llama_kv_cache_recurrent, symObjAddr: 0x3ED8, symBinAddr: 0x4840C, symSize: 0x48 }
  - { offsetInCU: 0x308F4, offset: 0x207EF7, size: 0x8, addend: 0x0, symName: __ZN30llama_kv_cache_recurrent_stateC1E19llama_memory_statusP24llama_kv_cache_recurrent, symObjAddr: 0x3ED8, symBinAddr: 0x4840C, symSize: 0x48 }
  - { offsetInCU: 0x3091D, offset: 0x207F20, size: 0x8, addend: 0x0, symName: __ZN30llama_kv_cache_recurrent_stateC2E19llama_memory_statusP24llama_kv_cache_recurrent12llama_sbatchNSt3__16vectorI12llama_ubatchNS4_9allocatorIS6_EEEE, symObjAddr: 0x3F20, symBinAddr: 0x48454, symSize: 0xC8 }
  - { offsetInCU: 0x30B2B, offset: 0x20812E, size: 0x8, addend: 0x0, symName: __ZN30llama_kv_cache_recurrent_stateC1E19llama_memory_statusP24llama_kv_cache_recurrent12llama_sbatchNSt3__16vectorI12llama_ubatchNS4_9allocatorIS6_EEEE, symObjAddr: 0x3FE8, symBinAddr: 0x4851C, symSize: 0xC8 }
  - { offsetInCU: 0x30B6B, offset: 0x20816E, size: 0x8, addend: 0x0, symName: __ZN30llama_kv_cache_recurrent_stateC1E19llama_memory_statusP24llama_kv_cache_recurrent12llama_sbatchNSt3__16vectorI12llama_ubatchNS4_9allocatorIS6_EEEE, symObjAddr: 0x3FE8, symBinAddr: 0x4851C, symSize: 0xC8 }
  - { offsetInCU: 0x30D74, offset: 0x208377, size: 0x8, addend: 0x0, symName: __ZN30llama_kv_cache_recurrent_stateD2Ev, symObjAddr: 0x40B0, symBinAddr: 0x485E4, symSize: 0xB4 }
  - { offsetInCU: 0x31476, offset: 0x208A79, size: 0x8, addend: 0x0, symName: __ZN30llama_kv_cache_recurrent_stateD1Ev, symObjAddr: 0x4164, symBinAddr: 0x48698, symSize: 0x4 }
  - { offsetInCU: 0x31499, offset: 0x208A9C, size: 0x8, addend: 0x0, symName: __ZN30llama_kv_cache_recurrent_stateD1Ev, symObjAddr: 0x4164, symBinAddr: 0x48698, symSize: 0x4 }
  - { offsetInCU: 0x314C9, offset: 0x208ACC, size: 0x8, addend: 0x0, symName: __ZN30llama_kv_cache_recurrent_stateD0Ev, symObjAddr: 0x4168, symBinAddr: 0x4869C, symSize: 0x14 }
  - { offsetInCU: 0x31527, offset: 0x208B2A, size: 0x8, addend: 0x0, symName: __ZN30llama_kv_cache_recurrent_state4nextEv, symObjAddr: 0x417C, symBinAddr: 0x486B0, symSize: 0x20 }
  - { offsetInCU: 0x31595, offset: 0x208B98, size: 0x8, addend: 0x0, symName: __ZN30llama_kv_cache_recurrent_state5applyEv, symObjAddr: 0x419C, symBinAddr: 0x486D0, symSize: 0x28 }
  - { offsetInCU: 0x315F4, offset: 0x208BF7, size: 0x8, addend: 0x0, symName: __ZN30llama_kv_cache_recurrent_state7out_idsEv, symObjAddr: 0x41C4, symBinAddr: 0x486F8, symSize: 0x8 }
  - { offsetInCU: 0x3161E, offset: 0x208C21, size: 0x8, addend: 0x0, symName: __ZNK30llama_kv_cache_recurrent_state10get_statusEv, symObjAddr: 0x41CC, symBinAddr: 0x48700, symSize: 0x8 }
  - { offsetInCU: 0x3166C, offset: 0x208C6F, size: 0x8, addend: 0x0, symName: __ZNK30llama_kv_cache_recurrent_state10get_ubatchEv, symObjAddr: 0x41D4, symBinAddr: 0x48708, symSize: 0xC }
  - { offsetInCU: 0x316BD, offset: 0x208CC0, size: 0x8, addend: 0x0, symName: __ZNK30llama_kv_cache_recurrent_state8get_n_kvEv, symObjAddr: 0x41E0, symBinAddr: 0x48714, symSize: 0x20 }
  - { offsetInCU: 0x316E7, offset: 0x208CEA, size: 0x8, addend: 0x0, symName: __ZNK30llama_kv_cache_recurrent_state8get_headEv, symObjAddr: 0x4200, symBinAddr: 0x48734, symSize: 0x1C }
  - { offsetInCU: 0x31711, offset: 0x208D14, size: 0x8, addend: 0x0, symName: __ZNK30llama_kv_cache_recurrent_state8get_rs_zEv, symObjAddr: 0x421C, symBinAddr: 0x48750, symSize: 0x1C }
  - { offsetInCU: 0x3173B, offset: 0x208D3E, size: 0x8, addend: 0x0, symName: __ZNK30llama_kv_cache_recurrent_state8get_sizeEv, symObjAddr: 0x4238, symBinAddr: 0x4876C, symSize: 0xC }
  - { offsetInCU: 0x31765, offset: 0x208D68, size: 0x8, addend: 0x0, symName: __ZNK30llama_kv_cache_recurrent_state7get_k_lEi, symObjAddr: 0x4244, symBinAddr: 0x48778, symSize: 0x10 }
  - { offsetInCU: 0x317BD, offset: 0x208DC0, size: 0x8, addend: 0x0, symName: __ZNK30llama_kv_cache_recurrent_state7get_v_lEi, symObjAddr: 0x4254, symBinAddr: 0x48788, symSize: 0x10 }
  - { offsetInCU: 0x31816, offset: 0x208E19, size: 0x8, addend: 0x0, symName: __ZNK30llama_kv_cache_recurrent_state6s_copyEi, symObjAddr: 0x4264, symBinAddr: 0x48798, symSize: 0x20 }
  - { offsetInCU: 0x3186E, offset: 0x208E71, size: 0x8, addend: 0x0, symName: __ZN24llama_kv_cache_recurrentD1Ev, symObjAddr: 0x4284, symBinAddr: 0x487B8, symSize: 0x4 }
  - { offsetInCU: 0x31891, offset: 0x208E94, size: 0x8, addend: 0x0, symName: __ZN24llama_kv_cache_recurrentD1Ev, symObjAddr: 0x4284, symBinAddr: 0x487B8, symSize: 0x4 }
  - { offsetInCU: 0x318A4, offset: 0x208EA7, size: 0x8, addend: 0x0, symName: __ZN24llama_kv_cache_recurrentD2Ev, symObjAddr: 0x46B8, symBinAddr: 0x487D0, symSize: 0x124 }
  - { offsetInCU: 0x321E7, offset: 0x2097EA, size: 0x8, addend: 0x0, symName: __ZN24llama_kv_cache_recurrentD0Ev, symObjAddr: 0x4288, symBinAddr: 0x487BC, symSize: 0x14 }
  - { offsetInCU: 0x33029, offset: 0x20A62C, size: 0x8, addend: 0x0, symName: __ZNKSt3__16vectorIN24llama_kv_cache_recurrent7kv_cellENS_9allocatorIS2_EEE20__throw_length_errorB8ue170006Ev, symObjAddr: 0x4A2C, symBinAddr: 0x48B04, symSize: 0x14 }
  - { offsetInCU: 0x33451, offset: 0x20AA54, size: 0x8, addend: 0x0, symName: __ZNSt3__113__tree_removeB8ue170006IPNS_16__tree_node_baseIPvEEEEvT_S5_, symObjAddr: 0x4BD0, symBinAddr: 0x48B18, symSize: 0x3C4 }
  - { offsetInCU: 0x337E3, offset: 0x20ADE6, size: 0x8, addend: 0x0, symName: __ZNSt3__13setIiNS_4lessIiEENS_9allocatorIiEEE6insertB8ue170006INS_21__tree_const_iteratorIiPNS_11__tree_nodeIiPvEElEEEEvT_SD_, symObjAddr: 0x5178, symBinAddr: 0x490C0, symSize: 0x10C }
  - { offsetInCU: 0x33AF0, offset: 0x20B0F3, size: 0x8, addend: 0x0, symName: __ZNSt3__128__exception_guard_exceptionsINS_6vectorIN24llama_kv_cache_recurrent7kv_cellENS_9allocatorIS3_EEE16__destroy_vectorEED1B8ue170006Ev, symObjAddr: 0x50EC, symBinAddr: 0x49034, symSize: 0x8C }
  - { offsetInCU: 0x33E92, offset: 0x20B495, size: 0x8, addend: 0x0, symName: __ZNSt3__16__treeIiNS_4lessIiEENS_9allocatorIiEEE12__find_equalIiEERPNS_16__tree_node_baseIPvEENS_21__tree_const_iteratorIiPNS_11__tree_nodeIiS8_EElEERPNS_15__tree_end_nodeISA_EESB_RKT_, symObjAddr: 0x5284, symBinAddr: 0x491CC, symSize: 0x1A8 }
  - { offsetInCU: 0x33EFA, offset: 0x20B4FD, size: 0x8, addend: 0x0, symName: __ZNSt3__16__treeIiNS_4lessIiEENS_9allocatorIiEEE12__find_equalIiEERPNS_16__tree_node_baseIPvEENS_21__tree_const_iteratorIiPNS_11__tree_nodeIiS8_EElEERPNS_15__tree_end_nodeISA_EESB_RKT_, symObjAddr: 0x5284, symBinAddr: 0x491CC, symSize: 0x1A8 }
  - { offsetInCU: 0x33F16, offset: 0x20B519, size: 0x8, addend: 0x0, symName: __ZNSt3__16__treeIiNS_4lessIiEENS_9allocatorIiEEE12__find_equalIiEERPNS_16__tree_node_baseIPvEENS_21__tree_const_iteratorIiPNS_11__tree_nodeIiS8_EElEERPNS_15__tree_end_nodeISA_EESB_RKT_, symObjAddr: 0x5284, symBinAddr: 0x491CC, symSize: 0x1A8 }
  - { offsetInCU: 0x26, offset: 0x20B853, size: 0x8, addend: 0x0, symName: __ZN27llama_kv_cache_unified_iswaC2ERK11llama_model9ggml_typeS3_bbbjjjj, symObjAddr: 0x0, symBinAddr: 0x49388, symSize: 0x334 }
  - { offsetInCU: 0x164FA, offset: 0x221D27, size: 0x8, addend: 0x0, symName: __ZNSt3__111make_uniqueB8ue170006I33llama_kv_cache_unified_iswa_stateJP27llama_kv_cache_unified_iswa12llama_sbatchNS_6vectorIjNS_9allocatorIjEEEES8_NS5_I12llama_ubatchNS6_IS9_EEEEEEENS_11__unique_ifIT_E15__unique_singleEDpOT0_, symObjAddr: 0xB90, symBinAddr: 0x49F18, symSize: 0x1E8 }
  - { offsetInCU: 0x1BFAD, offset: 0x2277DA, size: 0x8, addend: 0x0, symName: __ZN27llama_kv_cache_unified_iswaC1ERK11llama_model9ggml_typeS3_bbbjjjj, symObjAddr: 0x334, symBinAddr: 0x496BC, symSize: 0x14 }
  - { offsetInCU: 0x1E897, offset: 0x22A0C4, size: 0x8, addend: 0x0, symName: __ZN27llama_kv_cache_unified_iswaC2ERK11llama_model9ggml_typeS3_bbbjjjj, symObjAddr: 0x0, symBinAddr: 0x49388, symSize: 0x334 }
  - { offsetInCU: 0x1F0AC, offset: 0x22A8D9, size: 0x8, addend: 0x0, symName: __ZN27llama_kv_cache_unified_iswa5clearEb, symObjAddr: 0x348, symBinAddr: 0x496D0, symSize: 0x40 }
  - { offsetInCU: 0x1F14A, offset: 0x22A977, size: 0x8, addend: 0x0, symName: __ZN27llama_kv_cache_unified_iswa6seq_rmEiii, symObjAddr: 0x388, symBinAddr: 0x49710, symSize: 0x6C }
  - { offsetInCU: 0x1F232, offset: 0x22AA5F, size: 0x8, addend: 0x0, symName: __ZN27llama_kv_cache_unified_iswa6seq_cpEiiii, symObjAddr: 0x3F4, symBinAddr: 0x4977C, symSize: 0x68 }
  - { offsetInCU: 0x1F327, offset: 0x22AB54, size: 0x8, addend: 0x0, symName: __ZN27llama_kv_cache_unified_iswa8seq_keepEi, symObjAddr: 0x45C, symBinAddr: 0x497E4, symSize: 0x40 }
  - { offsetInCU: 0x1F3C5, offset: 0x22ABF2, size: 0x8, addend: 0x0, symName: __ZN27llama_kv_cache_unified_iswa7seq_addEiiii, symObjAddr: 0x49C, symBinAddr: 0x49824, symSize: 0x68 }
  - { offsetInCU: 0x1F4BA, offset: 0x22ACE7, size: 0x8, addend: 0x0, symName: __ZN27llama_kv_cache_unified_iswa7seq_divEiiii, symObjAddr: 0x504, symBinAddr: 0x4988C, symSize: 0x68 }
  - { offsetInCU: 0x1F5AF, offset: 0x22ADDC, size: 0x8, addend: 0x0, symName: __ZNK27llama_kv_cache_unified_iswa11seq_pos_minEi, symObjAddr: 0x56C, symBinAddr: 0x498F4, symSize: 0x10 }
  - { offsetInCU: 0x1F5E8, offset: 0x22AE15, size: 0x8, addend: 0x0, symName: __ZNK27llama_kv_cache_unified_iswa11seq_pos_minEi, symObjAddr: 0x56C, symBinAddr: 0x498F4, symSize: 0x10 }
  - { offsetInCU: 0x1F619, offset: 0x22AE46, size: 0x8, addend: 0x0, symName: __ZNK27llama_kv_cache_unified_iswa11seq_pos_maxEi, symObjAddr: 0x57C, symBinAddr: 0x49904, symSize: 0x10 }
  - { offsetInCU: 0x1F652, offset: 0x22AE7F, size: 0x8, addend: 0x0, symName: __ZNK27llama_kv_cache_unified_iswa11seq_pos_maxEi, symObjAddr: 0x57C, symBinAddr: 0x49904, symSize: 0x10 }
  - { offsetInCU: 0x20129, offset: 0x22B956, size: 0x8, addend: 0x0, symName: __ZN27llama_kv_cache_unified_iswa10init_batchERK11llama_batchjb, symObjAddr: 0x58C, symBinAddr: 0x49914, symSize: 0x604 }
  - { offsetInCU: 0x22EC2, offset: 0x22E6EF, size: 0x8, addend: 0x0, symName: __ZN33llama_kv_cache_unified_iswa_stateC2EP27llama_kv_cache_unified_iswa12llama_sbatchNSt3__16vectorIjNS3_9allocatorIjEEEES7_NS4_I12llama_ubatchNS5_IS8_EEEE, symObjAddr: 0x1388, symBinAddr: 0x4A678, symSize: 0x4DC }
  - { offsetInCU: 0x250D1, offset: 0x2308FE, size: 0x8, addend: 0x0, symName: __ZNSt3__111make_uniqueB8ue170006I33llama_kv_cache_unified_iswa_stateJP27llama_kv_cache_unified_iswa12llama_sbatchNS_6vectorIjNS_9allocatorIjEEEES8_NS5_I12llama_ubatchNS6_IS9_EEEEEEENS_11__unique_ifIT_E15__unique_singleEDpOT0_.cold.1, symObjAddr: 0x1DD4, symBinAddr: 0x1CE8A8, symSize: 0x3C }
  - { offsetInCU: 0x251EC, offset: 0x230A19, size: 0x8, addend: 0x0, symName: __ZN27llama_kv_cache_unified_iswa9init_fullEv, symObjAddr: 0xE10, symBinAddr: 0x4A100, symSize: 0x54 }
  - { offsetInCU: 0x252EC, offset: 0x230B19, size: 0x8, addend: 0x0, symName: __ZN33llama_kv_cache_unified_iswa_stateC2EP27llama_kv_cache_unified_iswa, symObjAddr: 0x1018, symBinAddr: 0x4A308, symSize: 0x1A4 }
  - { offsetInCU: 0x25A2A, offset: 0x231257, size: 0x8, addend: 0x0, symName: __ZN27llama_kv_cache_unified_iswa11init_updateEP13llama_contextb, symObjAddr: 0xE64, symBinAddr: 0x4A154, symSize: 0x6C }
  - { offsetInCU: 0x25B5D, offset: 0x23138A, size: 0x8, addend: 0x0, symName: __ZN33llama_kv_cache_unified_iswa_stateC2EP27llama_kv_cache_unified_iswaP13llama_contextb, symObjAddr: 0x11C0, symBinAddr: 0x4A4B0, symSize: 0x1C4 }
  - { offsetInCU: 0x26293, offset: 0x231AC0, size: 0x8, addend: 0x0, symName: __ZNK27llama_kv_cache_unified_iswa13get_can_shiftEv, symObjAddr: 0xED0, symBinAddr: 0x4A1C0, symSize: 0x38 }
  - { offsetInCU: 0x262FA, offset: 0x231B27, size: 0x8, addend: 0x0, symName: __ZNK27llama_kv_cache_unified_iswa11state_writeER16llama_io_write_ii, symObjAddr: 0xF08, symBinAddr: 0x4A1F8, symSize: 0x50 }
  - { offsetInCU: 0x263B5, offset: 0x231BE2, size: 0x8, addend: 0x0, symName: __ZN27llama_kv_cache_unified_iswa10state_readER15llama_io_read_ii, symObjAddr: 0xF58, symBinAddr: 0x4A248, symSize: 0x50 }
  - { offsetInCU: 0x26486, offset: 0x231CB3, size: 0x8, addend: 0x0, symName: __ZNK27llama_kv_cache_unified_iswa8get_baseEv, symObjAddr: 0xFA8, symBinAddr: 0x4A298, symSize: 0x8 }
  - { offsetInCU: 0x264AA, offset: 0x231CD7, size: 0x8, addend: 0x0, symName: __ZNK27llama_kv_cache_unified_iswa8get_baseEv, symObjAddr: 0xFA8, symBinAddr: 0x4A298, symSize: 0x8 }
  - { offsetInCU: 0x264C7, offset: 0x231CF4, size: 0x8, addend: 0x0, symName: __ZNK27llama_kv_cache_unified_iswa7get_swaEv, symObjAddr: 0xFB0, symBinAddr: 0x4A2A0, symSize: 0x8 }
  - { offsetInCU: 0x264EB, offset: 0x231D18, size: 0x8, addend: 0x0, symName: __ZNK27llama_kv_cache_unified_iswa7get_swaEv, symObjAddr: 0xFB0, symBinAddr: 0x4A2A0, symSize: 0x8 }
  - { offsetInCU: 0x26508, offset: 0x231D35, size: 0x8, addend: 0x0, symName: __ZN33llama_kv_cache_unified_iswa_stateC2E19llama_memory_status, symObjAddr: 0xFB8, symBinAddr: 0x4A2A8, symSize: 0x30 }
  - { offsetInCU: 0x2652F, offset: 0x231D5C, size: 0x8, addend: 0x0, symName: __ZN33llama_kv_cache_unified_iswa_stateC1E19llama_memory_status, symObjAddr: 0xFE8, symBinAddr: 0x4A2D8, symSize: 0x30 }
  - { offsetInCU: 0x26558, offset: 0x231D85, size: 0x8, addend: 0x0, symName: __ZN33llama_kv_cache_unified_iswa_stateC1E19llama_memory_status, symObjAddr: 0xFE8, symBinAddr: 0x4A2D8, symSize: 0x30 }
  - { offsetInCU: 0x26717, offset: 0x231F44, size: 0x8, addend: 0x0, symName: __ZN33llama_kv_cache_unified_iswa_stateC1EP27llama_kv_cache_unified_iswa, symObjAddr: 0x11BC, symBinAddr: 0x4A4AC, symSize: 0x4 }
  - { offsetInCU: 0x26741, offset: 0x231F6E, size: 0x8, addend: 0x0, symName: __ZN33llama_kv_cache_unified_iswa_stateC1EP27llama_kv_cache_unified_iswa, symObjAddr: 0x11BC, symBinAddr: 0x4A4AC, symSize: 0x4 }
  - { offsetInCU: 0x2675B, offset: 0x231F88, size: 0x8, addend: 0x0, symName: __ZN33llama_kv_cache_unified_iswa_stateC1EP27llama_kv_cache_unified_iswaP13llama_contextb, symObjAddr: 0x1384, symBinAddr: 0x4A674, symSize: 0x4 }
  - { offsetInCU: 0x26798, offset: 0x231FC5, size: 0x8, addend: 0x0, symName: __ZN33llama_kv_cache_unified_iswa_stateC1EP27llama_kv_cache_unified_iswaP13llama_contextb, symObjAddr: 0x1384, symBinAddr: 0x4A674, symSize: 0x4 }
  - { offsetInCU: 0x26A57, offset: 0x232284, size: 0x8, addend: 0x0, symName: __ZN33llama_kv_cache_unified_iswa_stateC1EP27llama_kv_cache_unified_iswa12llama_sbatchNSt3__16vectorIjNS3_9allocatorIjEEEES7_NS4_I12llama_ubatchNS5_IS8_EEEE, symObjAddr: 0x1864, symBinAddr: 0x4AB54, symSize: 0x4 }
  - { offsetInCU: 0x26AA1, offset: 0x2322CE, size: 0x8, addend: 0x0, symName: __ZN33llama_kv_cache_unified_iswa_stateC1EP27llama_kv_cache_unified_iswa12llama_sbatchNSt3__16vectorIjNS3_9allocatorIjEEEES7_NS4_I12llama_ubatchNS5_IS8_EEEE, symObjAddr: 0x1864, symBinAddr: 0x4AB54, symSize: 0x4 }
  - { offsetInCU: 0x26AD7, offset: 0x232304, size: 0x8, addend: 0x0, symName: __ZN33llama_kv_cache_unified_iswa_stateD2Ev, symObjAddr: 0x1868, symBinAddr: 0x4AB58, symSize: 0xE4 }
  - { offsetInCU: 0x27314, offset: 0x232B41, size: 0x8, addend: 0x0, symName: __ZN33llama_kv_cache_unified_iswa_stateD1Ev, symObjAddr: 0x194C, symBinAddr: 0x4AC3C, symSize: 0x4 }
  - { offsetInCU: 0x27337, offset: 0x232B64, size: 0x8, addend: 0x0, symName: __ZN33llama_kv_cache_unified_iswa_stateD1Ev, symObjAddr: 0x194C, symBinAddr: 0x4AC3C, symSize: 0x4 }
  - { offsetInCU: 0x27366, offset: 0x232B93, size: 0x8, addend: 0x0, symName: __ZN33llama_kv_cache_unified_iswa_stateD0Ev, symObjAddr: 0x1950, symBinAddr: 0x4AC40, symSize: 0x14 }
  - { offsetInCU: 0x273C3, offset: 0x232BF0, size: 0x8, addend: 0x0, symName: __ZN33llama_kv_cache_unified_iswa_state4nextEv, symObjAddr: 0x1964, symBinAddr: 0x4AC54, symSize: 0x58 }
  - { offsetInCU: 0x27464, offset: 0x232C91, size: 0x8, addend: 0x0, symName: __ZN33llama_kv_cache_unified_iswa_state5applyEv, symObjAddr: 0x19BC, symBinAddr: 0x4ACAC, symSize: 0x44 }
  - { offsetInCU: 0x274F5, offset: 0x232D22, size: 0x8, addend: 0x0, symName: __ZN33llama_kv_cache_unified_iswa_state7out_idsEv, symObjAddr: 0x1A00, symBinAddr: 0x4ACF0, symSize: 0x8 }
  - { offsetInCU: 0x2751F, offset: 0x232D4C, size: 0x8, addend: 0x0, symName: __ZNK33llama_kv_cache_unified_iswa_state10get_statusEv, symObjAddr: 0x1A08, symBinAddr: 0x4ACF8, symSize: 0x8 }
  - { offsetInCU: 0x2756D, offset: 0x232D9A, size: 0x8, addend: 0x0, symName: __ZNK33llama_kv_cache_unified_iswa_state10get_ubatchEv, symObjAddr: 0x1A10, symBinAddr: 0x4AD00, symSize: 0xC }
  - { offsetInCU: 0x275D4, offset: 0x232E01, size: 0x8, addend: 0x0, symName: __ZNK33llama_kv_cache_unified_iswa_state8get_baseEv, symObjAddr: 0x1A1C, symBinAddr: 0x4AD0C, symSize: 0x8 }
  - { offsetInCU: 0x27600, offset: 0x232E2D, size: 0x8, addend: 0x0, symName: __ZNK33llama_kv_cache_unified_iswa_state8get_baseEv, symObjAddr: 0x1A1C, symBinAddr: 0x4AD0C, symSize: 0x8 }
  - { offsetInCU: 0x2761E, offset: 0x232E4B, size: 0x8, addend: 0x0, symName: __ZNK33llama_kv_cache_unified_iswa_state7get_swaEv, symObjAddr: 0x1A24, symBinAddr: 0x4AD14, symSize: 0x8 }
  - { offsetInCU: 0x2764A, offset: 0x232E77, size: 0x8, addend: 0x0, symName: __ZNK33llama_kv_cache_unified_iswa_state7get_swaEv, symObjAddr: 0x1A24, symBinAddr: 0x4AD14, symSize: 0x8 }
  - { offsetInCU: 0x27682, offset: 0x232EAF, size: 0x8, addend: 0x0, symName: __ZN27llama_kv_cache_unified_iswaD1Ev, symObjAddr: 0x1A2C, symBinAddr: 0x4AD1C, symSize: 0x5C }
  - { offsetInCU: 0x27813, offset: 0x233040, size: 0x8, addend: 0x0, symName: __ZN27llama_kv_cache_unified_iswaD0Ev, symObjAddr: 0x1A88, symBinAddr: 0x4AD78, symSize: 0x5C }
  - { offsetInCU: 0x27DBC, offset: 0x2335E9, size: 0x8, addend: 0x0, symName: '__ZNSt3__110__function6__funcIZN27llama_kv_cache_unified_iswaC1ERK11llama_model9ggml_typeS6_bbbjjjjE3$_0NS_9allocatorIS7_EEFbiEED1Ev', symObjAddr: 0x1B68, symBinAddr: 0x4ADD4, symSize: 0x4 }
  - { offsetInCU: 0x27DE8, offset: 0x233615, size: 0x8, addend: 0x0, symName: '__ZNSt3__110__function6__funcIZN27llama_kv_cache_unified_iswaC1ERK11llama_model9ggml_typeS6_bbbjjjjE3$_0NS_9allocatorIS7_EEFbiEED0Ev', symObjAddr: 0x1B6C, symBinAddr: 0x4ADD8, symSize: 0x4 }
  - { offsetInCU: 0x27E9E, offset: 0x2336CB, size: 0x8, addend: 0x0, symName: '__ZNKSt3__110__function6__funcIZN27llama_kv_cache_unified_iswaC1ERK11llama_model9ggml_typeS6_bbbjjjjE3$_0NS_9allocatorIS7_EEFbiEE7__cloneEv', symObjAddr: 0x1B70, symBinAddr: 0x4ADDC, symSize: 0x34 }
  - { offsetInCU: 0x27FEC, offset: 0x233819, size: 0x8, addend: 0x0, symName: '__ZNKSt3__110__function6__funcIZN27llama_kv_cache_unified_iswaC1ERK11llama_model9ggml_typeS6_bbbjjjjE3$_0NS_9allocatorIS7_EEFbiEE7__cloneEPNS0_6__baseISA_EE', symObjAddr: 0x1BA4, symBinAddr: 0x4AE10, symSize: 0x14 }
  - { offsetInCU: 0x2805C, offset: 0x233889, size: 0x8, addend: 0x0, symName: '__ZNSt3__110__function6__funcIZN27llama_kv_cache_unified_iswaC1ERK11llama_model9ggml_typeS6_bbbjjjjE3$_0NS_9allocatorIS7_EEFbiEE7destroyEv', symObjAddr: 0x1BB8, symBinAddr: 0x4AE24, symSize: 0x4 }
  - { offsetInCU: 0x280AD, offset: 0x2338DA, size: 0x8, addend: 0x0, symName: '__ZNSt3__110__function6__funcIZN27llama_kv_cache_unified_iswaC1ERK11llama_model9ggml_typeS6_bbbjjjjE3$_0NS_9allocatorIS7_EEFbiEE18destroy_deallocateEv', symObjAddr: 0x1BBC, symBinAddr: 0x4AE28, symSize: 0x4 }
  - { offsetInCU: 0x280E2, offset: 0x23390F, size: 0x8, addend: 0x0, symName: '__ZNSt3__110__function6__funcIZN27llama_kv_cache_unified_iswaC1ERK11llama_model9ggml_typeS6_bbbjjjjE3$_0NS_9allocatorIS7_EEFbiEE18destroy_deallocateEv', symObjAddr: 0x1BBC, symBinAddr: 0x4AE28, symSize: 0x4 }
  - { offsetInCU: 0x28105, offset: 0x233932, size: 0x8, addend: 0x0, symName: '__ZNSt3__110__function6__funcIZN27llama_kv_cache_unified_iswaC1ERK11llama_model9ggml_typeS6_bbbjjjjE3$_0NS_9allocatorIS7_EEFbiEE18destroy_deallocateEv', symObjAddr: 0x1BBC, symBinAddr: 0x4AE28, symSize: 0x4 }
  - { offsetInCU: 0x28132, offset: 0x23395F, size: 0x8, addend: 0x0, symName: '__ZNSt3__110__function6__funcIZN27llama_kv_cache_unified_iswaC1ERK11llama_model9ggml_typeS6_bbbjjjjE3$_0NS_9allocatorIS7_EEFbiEE18destroy_deallocateEv', symObjAddr: 0x1BBC, symBinAddr: 0x4AE28, symSize: 0x4 }
  - { offsetInCU: 0x28158, offset: 0x233985, size: 0x8, addend: 0x0, symName: '__ZNSt3__110__function6__funcIZN27llama_kv_cache_unified_iswaC1ERK11llama_model9ggml_typeS6_bbbjjjjE3$_0NS_9allocatorIS7_EEFbiEE18destroy_deallocateEv', symObjAddr: 0x1BBC, symBinAddr: 0x4AE28, symSize: 0x4 }
  - { offsetInCU: 0x281FD, offset: 0x233A2A, size: 0x8, addend: 0x0, symName: '__ZNSt3__110__function6__funcIZN27llama_kv_cache_unified_iswaC1ERK11llama_model9ggml_typeS6_bbbjjjjE3$_0NS_9allocatorIS7_EEFbiEEclEOi', symObjAddr: 0x1BC0, symBinAddr: 0x4AE2C, symSize: 0x24 }
  - { offsetInCU: 0x282F1, offset: 0x233B1E, size: 0x8, addend: 0x0, symName: '__ZNKSt3__110__function6__funcIZN27llama_kv_cache_unified_iswaC1ERK11llama_model9ggml_typeS6_bbbjjjjE3$_0NS_9allocatorIS7_EEFbiEE6targetERKSt9type_info', symObjAddr: 0x1BE4, symBinAddr: 0x4AE50, symSize: 0x60 }
  - { offsetInCU: 0x28376, offset: 0x233BA3, size: 0x8, addend: 0x0, symName: '__ZNKSt3__110__function6__funcIZN27llama_kv_cache_unified_iswaC1ERK11llama_model9ggml_typeS6_bbbjjjjE3$_0NS_9allocatorIS7_EEFbiEE11target_typeEv', symObjAddr: 0x1C44, symBinAddr: 0x4AEB0, symSize: 0xC }
  - { offsetInCU: 0x2839B, offset: 0x233BC8, size: 0x8, addend: 0x0, symName: '__ZNSt3__110__function6__funcIZN27llama_kv_cache_unified_iswaC1ERK11llama_model9ggml_typeS6_bbbjjjjE3$_1NS_9allocatorIS7_EEFbiEED1Ev', symObjAddr: 0x1C78, symBinAddr: 0x4AEBC, symSize: 0x4 }
  - { offsetInCU: 0x283C7, offset: 0x233BF4, size: 0x8, addend: 0x0, symName: '__ZNSt3__110__function6__funcIZN27llama_kv_cache_unified_iswaC1ERK11llama_model9ggml_typeS6_bbbjjjjE3$_1NS_9allocatorIS7_EEFbiEED0Ev', symObjAddr: 0x1C7C, symBinAddr: 0x4AEC0, symSize: 0x4 }
  - { offsetInCU: 0x2847D, offset: 0x233CAA, size: 0x8, addend: 0x0, symName: '__ZNKSt3__110__function6__funcIZN27llama_kv_cache_unified_iswaC1ERK11llama_model9ggml_typeS6_bbbjjjjE3$_1NS_9allocatorIS7_EEFbiEE7__cloneEv', symObjAddr: 0x1C80, symBinAddr: 0x4AEC4, symSize: 0x34 }
  - { offsetInCU: 0x285CB, offset: 0x233DF8, size: 0x8, addend: 0x0, symName: '__ZNKSt3__110__function6__funcIZN27llama_kv_cache_unified_iswaC1ERK11llama_model9ggml_typeS6_bbbjjjjE3$_1NS_9allocatorIS7_EEFbiEE7__cloneEPNS0_6__baseISA_EE', symObjAddr: 0x1CB4, symBinAddr: 0x4AEF8, symSize: 0x14 }
  - { offsetInCU: 0x2863B, offset: 0x233E68, size: 0x8, addend: 0x0, symName: '__ZNSt3__110__function6__funcIZN27llama_kv_cache_unified_iswaC1ERK11llama_model9ggml_typeS6_bbbjjjjE3$_1NS_9allocatorIS7_EEFbiEE7destroyEv', symObjAddr: 0x1CC8, symBinAddr: 0x4AF0C, symSize: 0x4 }
  - { offsetInCU: 0x2868C, offset: 0x233EB9, size: 0x8, addend: 0x0, symName: '__ZNSt3__110__function6__funcIZN27llama_kv_cache_unified_iswaC1ERK11llama_model9ggml_typeS6_bbbjjjjE3$_1NS_9allocatorIS7_EEFbiEE18destroy_deallocateEv', symObjAddr: 0x1CCC, symBinAddr: 0x4AF10, symSize: 0x4 }
  - { offsetInCU: 0x286C1, offset: 0x233EEE, size: 0x8, addend: 0x0, symName: '__ZNSt3__110__function6__funcIZN27llama_kv_cache_unified_iswaC1ERK11llama_model9ggml_typeS6_bbbjjjjE3$_1NS_9allocatorIS7_EEFbiEE18destroy_deallocateEv', symObjAddr: 0x1CCC, symBinAddr: 0x4AF10, symSize: 0x4 }
  - { offsetInCU: 0x286E4, offset: 0x233F11, size: 0x8, addend: 0x0, symName: '__ZNSt3__110__function6__funcIZN27llama_kv_cache_unified_iswaC1ERK11llama_model9ggml_typeS6_bbbjjjjE3$_1NS_9allocatorIS7_EEFbiEE18destroy_deallocateEv', symObjAddr: 0x1CCC, symBinAddr: 0x4AF10, symSize: 0x4 }
  - { offsetInCU: 0x28711, offset: 0x233F3E, size: 0x8, addend: 0x0, symName: '__ZNSt3__110__function6__funcIZN27llama_kv_cache_unified_iswaC1ERK11llama_model9ggml_typeS6_bbbjjjjE3$_1NS_9allocatorIS7_EEFbiEE18destroy_deallocateEv', symObjAddr: 0x1CCC, symBinAddr: 0x4AF10, symSize: 0x4 }
  - { offsetInCU: 0x28737, offset: 0x233F64, size: 0x8, addend: 0x0, symName: '__ZNSt3__110__function6__funcIZN27llama_kv_cache_unified_iswaC1ERK11llama_model9ggml_typeS6_bbbjjjjE3$_1NS_9allocatorIS7_EEFbiEE18destroy_deallocateEv', symObjAddr: 0x1CCC, symBinAddr: 0x4AF10, symSize: 0x4 }
  - { offsetInCU: 0x287DC, offset: 0x234009, size: 0x8, addend: 0x0, symName: '__ZNSt3__110__function6__funcIZN27llama_kv_cache_unified_iswaC1ERK11llama_model9ggml_typeS6_bbbjjjjE3$_1NS_9allocatorIS7_EEFbiEEclEOi', symObjAddr: 0x1CD0, symBinAddr: 0x4AF14, symSize: 0x10 }
  - { offsetInCU: 0x28874, offset: 0x2340A1, size: 0x8, addend: 0x0, symName: '__ZNKSt3__110__function6__funcIZN27llama_kv_cache_unified_iswaC1ERK11llama_model9ggml_typeS6_bbbjjjjE3$_1NS_9allocatorIS7_EEFbiEE6targetERKSt9type_info', symObjAddr: 0x1CE0, symBinAddr: 0x4AF24, symSize: 0x60 }
  - { offsetInCU: 0x288F9, offset: 0x234126, size: 0x8, addend: 0x0, symName: '__ZNKSt3__110__function6__funcIZN27llama_kv_cache_unified_iswaC1ERK11llama_model9ggml_typeS6_bbbjjjjE3$_1NS_9allocatorIS7_EEFbiEE11target_typeEv', symObjAddr: 0x1D40, symBinAddr: 0x4AF84, symSize: 0xC }
  - { offsetInCU: 0x2D293, offset: 0x261572, size: 0x8, addend: 0x0, symName: __ZN22llama_kv_cache_unified7prepareERKNSt3__16vectorI12llama_ubatchNS0_9allocatorIS2_EEEE, symObjAddr: 0x1FE8, symBinAddr: 0x4CE98, symSize: 0xCD8 }
  - { offsetInCU: 0x3159D, offset: 0x26587C, size: 0x8, addend: 0x0, symName: __ZN22llama_kv_cache_unifiedC2ERK11llama_modelONSt3__18functionIFbiEEE9ggml_typeS8_bbjjjj14llama_swa_type, symObjAddr: 0x0, symBinAddr: 0x4AF90, symSize: 0x8B8 }
  - { offsetInCU: 0x33E5D, offset: 0x26813C, size: 0x8, addend: 0x0, symName: __ZN22llama_kv_cells_unifiedC2Ev, symObjAddr: 0x8020, symBinAddr: 0x52E38, symSize: 0x3CC }
  - { offsetInCU: 0x3402B, offset: 0x26830A, size: 0x8, addend: 0x0, symName: __ZN22llama_kv_cells_unified6resizeEj, symObjAddr: 0x8B8, symBinAddr: 0x4B848, symSize: 0x13C }
  - { offsetInCU: 0x34939, offset: 0x268C18, size: 0x8, addend: 0x0, symName: __ZNSt3__112__hash_tableINS_17__hash_value_typeIiiEENS_22__unordered_map_hasherIiS2_NS_4hashIiEENS_8equal_toIiEELb1EEENS_21__unordered_map_equalIiS2_S7_S5_Lb1EEENS_9allocatorIS2_EEE25__emplace_unique_key_argsIiJRKNS_21piecewise_construct_tENS_5tupleIJOiEEENSI_IJEEEEEENS_4pairINS_15__hash_iteratorIPNS_11__hash_nodeIS2_PvEEEEbEERKT_DpOT0_, symObjAddr: 0x9710, symBinAddr: 0x53968, symSize: 0x314 }
  - { offsetInCU: 0x3553D, offset: 0x26981C, size: 0x8, addend: 0x0, symName: __ZNKSt3__16vectorIN22llama_kv_cache_unified8kv_layerENS_9allocatorIS2_EEE20__throw_length_errorB8ue170006Ev, symObjAddr: 0x9BD0, symBinAddr: 0x53E28, symSize: 0x14 }
  - { offsetInCU: 0x3558D, offset: 0x26986C, size: 0x8, addend: 0x0, symName: __ZNSt3__113unordered_mapIiiNS_4hashIiEENS_8equal_toIiEENS_9allocatorINS_4pairIKiiEEEEED1B8ue170006Ev, symObjAddr: 0xAC4, symBinAddr: 0x4BA54, symSize: 0x48 }
  - { offsetInCU: 0x35864, offset: 0x269B43, size: 0x8, addend: 0x0, symName: __ZN22llama_kv_cells_unifiedD2Ev, symObjAddr: 0x8AE8, symBinAddr: 0x533B8, symSize: 0x360 }
  - { offsetInCU: 0x36ABC, offset: 0x26AD9B, size: 0x8, addend: 0x0, symName: __ZNSt3__16vectorINS_6bitsetILm64EEENS_9allocatorIS2_EEE8__appendEm, symObjAddr: 0x8644, symBinAddr: 0x53204, symSize: 0x1A0 }
  - { offsetInCU: 0x36FCF, offset: 0x26B2AE, size: 0x8, addend: 0x0, symName: __ZNKSt3__16vectorINS_6bitsetILm64EEENS_9allocatorIS2_EEE20__throw_length_errorB8ue170006Ev, symObjAddr: 0x87E4, symBinAddr: 0x533A4, symSize: 0x14 }
  - { offsetInCU: 0x36FDA, offset: 0x26B2B9, size: 0x8, addend: 0x0, symName: __ZNSt3__16__treeIjNS_4lessIjEENS_9allocatorIjEEE7destroyEPNS_11__tree_nodeIjPvEE, symObjAddr: 0x8E88, symBinAddr: 0x53718, symSize: 0x40 }
  - { offsetInCU: 0x371DB, offset: 0x26B4BA, size: 0x8, addend: 0x0, symName: __ZNK22llama_kv_cache_unified12size_k_bytesEv, symObjAddr: 0x9F4, symBinAddr: 0x4B984, symSize: 0x68 }
  - { offsetInCU: 0x372AA, offset: 0x26B589, size: 0x8, addend: 0x0, symName: __ZNK22llama_kv_cache_unified12size_v_bytesEv, symObjAddr: 0xA5C, symBinAddr: 0x4B9EC, symSize: 0x68 }
  - { offsetInCU: 0x378BC, offset: 0x26BB9B, size: 0x8, addend: 0x0, symName: __ZN22llama_kv_cache_unifiedC1ERK11llama_modelONSt3__18functionIFbiEEE9ggml_typeS8_bbjjjj14llama_swa_type, symObjAddr: 0xBEC, symBinAddr: 0x4BA9C, symSize: 0xC }
  - { offsetInCU: 0x37A04, offset: 0x26BCE3, size: 0x8, addend: 0x0, symName: __ZN22llama_kv_cache_unified5clearEb, symObjAddr: 0xBF8, symBinAddr: 0x4BAA8, symSize: 0xD4 }
  - { offsetInCU: 0x37E53, offset: 0x26C132, size: 0x8, addend: 0x0, symName: __ZN22llama_kv_cache_unified6seq_rmEiii, symObjAddr: 0xCCC, symBinAddr: 0x4BB7C, symSize: 0x1B4 }
  - { offsetInCU: 0x3810E, offset: 0x26C3ED, size: 0x8, addend: 0x0, symName: __ZN22llama_kv_cells_unified6seq_rmEji, symObjAddr: 0xE80, symBinAddr: 0x4BD30, symSize: 0x1E4 }
  - { offsetInCU: 0x38119, offset: 0x26C3F8, size: 0x8, addend: 0x0, symName: __ZN22llama_kv_cells_unified2rmEj, symObjAddr: 0x1064, symBinAddr: 0x4BF14, symSize: 0xF8 }
  - { offsetInCU: 0x384FB, offset: 0x26C7DA, size: 0x8, addend: 0x0, symName: __ZN22llama_kv_cells_unified6seq_rmEji, symObjAddr: 0xE80, symBinAddr: 0x4BD30, symSize: 0x1E4 }
  - { offsetInCU: 0x38BD3, offset: 0x26CEB2, size: 0x8, addend: 0x0, symName: __ZN22llama_kv_cells_unified2rmEj, symObjAddr: 0x1064, symBinAddr: 0x4BF14, symSize: 0xF8 }
  - { offsetInCU: 0x390C0, offset: 0x26D39F, size: 0x8, addend: 0x0, symName: __ZN22llama_kv_cells_unified10seq_pos_rmEj, symObjAddr: 0x9300, symBinAddr: 0x53758, symSize: 0x10C }
  - { offsetInCU: 0x39421, offset: 0x26D700, size: 0x8, addend: 0x0, symName: __ZN22llama_kv_cache_unified6seq_cpEiiii, symObjAddr: 0x115C, symBinAddr: 0x4C00C, symSize: 0x114 }
  - { offsetInCU: 0x39595, offset: 0x26D874, size: 0x8, addend: 0x0, symName: __ZN22llama_kv_cells_unified7seq_addEji, symObjAddr: 0x1270, symBinAddr: 0x4C120, symSize: 0xF0 }
  - { offsetInCU: 0x395A0, offset: 0x26D87F, size: 0x8, addend: 0x0, symName: __ZN22llama_kv_cells_unified7seq_addEji, symObjAddr: 0x1270, symBinAddr: 0x4C120, symSize: 0xF0 }
  - { offsetInCU: 0x398C5, offset: 0x26DBA4, size: 0x8, addend: 0x0, symName: __ZN22llama_kv_cache_unified8seq_keepEi, symObjAddr: 0x1360, symBinAddr: 0x4C210, symSize: 0x9C }
  - { offsetInCU: 0x39B5C, offset: 0x26DE3B, size: 0x8, addend: 0x0, symName: __ZN22llama_kv_cache_unified8seq_keepEi, symObjAddr: 0x1360, symBinAddr: 0x4C210, symSize: 0x9C }
  - { offsetInCU: 0x39C09, offset: 0x26DEE8, size: 0x8, addend: 0x0, symName: __ZN22llama_kv_cells_unified8seq_keepEji, symObjAddr: 0x13FC, symBinAddr: 0x4C2AC, symSize: 0x230 }
  - { offsetInCU: 0x3A3DC, offset: 0x26E6BB, size: 0x8, addend: 0x0, symName: __ZN22llama_kv_cache_unified7seq_addEiiii, symObjAddr: 0x162C, symBinAddr: 0x4C4DC, symSize: 0x144 }
  - { offsetInCU: 0x3A42B, offset: 0x26E70A, size: 0x8, addend: 0x0, symName: __ZN22llama_kv_cache_unified7seq_addEiiii, symObjAddr: 0x162C, symBinAddr: 0x4C4DC, symSize: 0x144 }
  - { offsetInCU: 0x3A5E5, offset: 0x26E8C4, size: 0x8, addend: 0x0, symName: __ZN22llama_kv_cells_unified7pos_addEji, symObjAddr: 0x1770, symBinAddr: 0x4C620, symSize: 0x208 }
  - { offsetInCU: 0x3A5F0, offset: 0x26E8CF, size: 0x8, addend: 0x0, symName: __ZN22llama_kv_cells_unified7pos_addEji, symObjAddr: 0x1770, symBinAddr: 0x4C620, symSize: 0x208 }
  - { offsetInCU: 0x3AD08, offset: 0x26EFE7, size: 0x8, addend: 0x0, symName: __ZN22llama_kv_cache_unified7seq_divEiiii, symObjAddr: 0x1978, symBinAddr: 0x4C828, symSize: 0x11C }
  - { offsetInCU: 0x3AE7E, offset: 0x26F15D, size: 0x8, addend: 0x0, symName: __ZN22llama_kv_cells_unified7pos_divEji, symObjAddr: 0x1A94, symBinAddr: 0x4C944, symSize: 0x144 }
  - { offsetInCU: 0x3AE89, offset: 0x26F168, size: 0x8, addend: 0x0, symName: __ZN22llama_kv_cells_unified7pos_divEji, symObjAddr: 0x1A94, symBinAddr: 0x4C944, symSize: 0x144 }
  - { offsetInCU: 0x3B279, offset: 0x26F558, size: 0x8, addend: 0x0, symName: __ZNK22llama_kv_cache_unified11seq_pos_minEi, symObjAddr: 0x1BD8, symBinAddr: 0x4CA88, symSize: 0x24 }
  - { offsetInCU: 0x3B2B5, offset: 0x26F594, size: 0x8, addend: 0x0, symName: __ZNK22llama_kv_cache_unified11seq_pos_minEi, symObjAddr: 0x1BD8, symBinAddr: 0x4CA88, symSize: 0x24 }
  - { offsetInCU: 0x3B37C, offset: 0x26F65B, size: 0x8, addend: 0x0, symName: __ZNK22llama_kv_cache_unified11seq_pos_maxEi, symObjAddr: 0x1BFC, symBinAddr: 0x4CAAC, symSize: 0x50 }
  - { offsetInCU: 0x3B3B8, offset: 0x26F697, size: 0x8, addend: 0x0, symName: __ZNK22llama_kv_cache_unified11seq_pos_maxEi, symObjAddr: 0x1BFC, symBinAddr: 0x4CAAC, symSize: 0x50 }
  - { offsetInCU: 0x3C227, offset: 0x270506, size: 0x8, addend: 0x0, symName: __ZN22llama_kv_cache_unified10init_batchERK11llama_batchjb, symObjAddr: 0x1C4C, symBinAddr: 0x4CAFC, symSize: 0x39C }
  - { offsetInCU: 0x3EE8B, offset: 0x27316A, size: 0x8, addend: 0x0, symName: __ZNK22llama_kv_cache_unified9find_slotERK12llama_ubatch, symObjAddr: 0x32BC, symBinAddr: 0x4E0D4, symSize: 0x664 }
  - { offsetInCU: 0x40145, offset: 0x274424, size: 0x8, addend: 0x0, symName: __ZN22llama_kv_cache_unified12apply_ubatchEjRK12llama_ubatch, symObjAddr: 0x3920, symBinAddr: 0x4E738, symSize: 0x908 }
  - { offsetInCU: 0x416CD, offset: 0x2759AC, size: 0x8, addend: 0x0, symName: __ZN22llama_kv_cells_unified3setEjRKS_, symObjAddr: 0x4228, symBinAddr: 0x4F040, symSize: 0x4B8 }
  - { offsetInCU: 0x4229B, offset: 0x27657A, size: 0x8, addend: 0x0, symName: __ZNKSt3__16vectorIZN22llama_kv_cache_unified7prepareERKNS0_I12llama_ubatchNS_9allocatorIS2_EEEEE5stateNS3_IS8_EEE20__throw_length_errorB8ue170006Ev, symObjAddr: 0x9D48, symBinAddr: 0x53E3C, symSize: 0x14 }
  - { offsetInCU: 0x422A6, offset: 0x276585, size: 0x8, addend: 0x0, symName: __ZNKSt3__16vectorIZN22llama_kv_cache_unified7prepareERKNS0_I12llama_ubatchNS_9allocatorIS2_EEEEE5stateNS3_IS8_EEE20__throw_length_errorB8ue170006Ev, symObjAddr: 0x9D48, symBinAddr: 0x53E3C, symSize: 0x14 }
  - { offsetInCU: 0x422D7, offset: 0x2765B6, size: 0x8, addend: 0x0, symName: __ZNSt3__16vectorIZN22llama_kv_cache_unified7prepareERKNS0_I12llama_ubatchNS_9allocatorIS2_EEEEE5stateNS3_IS8_EEED1B8ue170006Ev, symObjAddr: 0x46E0, symBinAddr: 0x4F4F8, symSize: 0x64 }
  - { offsetInCU: 0x42530, offset: 0x27680F, size: 0x8, addend: 0x0, symName: __ZN22llama_kv_cache_unified9init_fullEv, symObjAddr: 0x2D58, symBinAddr: 0x4DB70, symSize: 0x74 }
  - { offsetInCU: 0x429DC, offset: 0x276CBB, size: 0x8, addend: 0x0, symName: __ZN22llama_kv_cache_unified11init_updateEP13llama_contextb, symObjAddr: 0x2DCC, symBinAddr: 0x4DBE4, symSize: 0x1A8 }
  - { offsetInCU: 0x42EB4, offset: 0x277193, size: 0x8, addend: 0x0, symName: __ZNK22llama_kv_cache_unified14defrag_prepareEi, symObjAddr: 0x2F7C, symBinAddr: 0x4DD94, symSize: 0x340 }
  - { offsetInCU: 0x43611, offset: 0x2778F0, size: 0x8, addend: 0x0, symName: __ZNK22llama_kv_cache_unified13get_has_shiftEv, symObjAddr: 0x2F74, symBinAddr: 0x4DD8C, symSize: 0x8 }
  - { offsetInCU: 0x43636, offset: 0x277915, size: 0x8, addend: 0x0, symName: __ZNK22llama_kv_cache_unified13get_has_shiftEv, symObjAddr: 0x2F74, symBinAddr: 0x4DD8C, symSize: 0x8 }
  - { offsetInCU: 0x436B0, offset: 0x27798F, size: 0x8, addend: 0x0, symName: __ZNSt3__16vectorIjNS_9allocatorIjEEE8__appendEmRKj, symObjAddr: 0x9ED0, symBinAddr: 0x53E50, symSize: 0x260 }
  - { offsetInCU: 0x44511, offset: 0x2787F0, size: 0x8, addend: 0x0, symName: __ZN22llama_kv_cache_unified6updateEP13llama_contextbRKNS_11defrag_infoE, symObjAddr: 0x4744, symBinAddr: 0x4F55C, symSize: 0x384 }
  - { offsetInCU: 0x44B68, offset: 0x278E47, size: 0x8, addend: 0x0, symName: __ZNK22llama_kv_cache_unified17build_graph_shiftERK13llama_cparamsP12ggml_contextP11ggml_cgraph, symObjAddr: 0x4AC8, symBinAddr: 0x4F8E0, symSize: 0x2AC }
  - { offsetInCU: 0x4531F, offset: 0x2795FE, size: 0x8, addend: 0x0, symName: __ZN22llama_kv_cells_unified2mvEjj, symObjAddr: 0x4D74, symBinAddr: 0x4FB8C, symSize: 0x1AC }
  - { offsetInCU: 0x459BC, offset: 0x279C9B, size: 0x8, addend: 0x0, symName: __ZNK22llama_kv_cache_unified18build_graph_defragERK13llama_cparamsP12ggml_contextP11ggml_cgraphRKNS_11defrag_infoE, symObjAddr: 0x4F20, symBinAddr: 0x4FD38, symSize: 0x398 }
  - { offsetInCU: 0x4659E, offset: 0x27A87D, size: 0x8, addend: 0x0, symName: __ZNK22llama_kv_cache_unified16build_rope_shiftERK13llama_cparamsP12ggml_contextP11ggml_tensorS6_S6_ff, symObjAddr: 0x5F4C, symBinAddr: 0x50D64, symSize: 0x158 }
  - { offsetInCU: 0x46D57, offset: 0x27B036, size: 0x8, addend: 0x0, symName: __ZNK22llama_kv_cache_unified8get_sizeEv, symObjAddr: 0x52B8, symBinAddr: 0x500D0, symSize: 0x10 }
  - { offsetInCU: 0x46D7C, offset: 0x27B05B, size: 0x8, addend: 0x0, symName: __ZNK22llama_kv_cache_unified8get_sizeEv, symObjAddr: 0x52B8, symBinAddr: 0x500D0, symSize: 0x10 }
  - { offsetInCU: 0x46D9B, offset: 0x27B07A, size: 0x8, addend: 0x0, symName: __ZNK22llama_kv_cache_unified8get_sizeEv, symObjAddr: 0x52B8, symBinAddr: 0x500D0, symSize: 0x10 }
  - { offsetInCU: 0x46DB9, offset: 0x27B098, size: 0x8, addend: 0x0, symName: __ZNK22llama_kv_cache_unified13is_masked_swaEii, symObjAddr: 0x52C8, symBinAddr: 0x500E0, symSize: 0x50 }
  - { offsetInCU: 0x46E01, offset: 0x27B0E0, size: 0x8, addend: 0x0, symName: __ZNK22llama_kv_cache_unified13get_can_shiftEv, symObjAddr: 0x5318, symBinAddr: 0x50130, symSize: 0x8 }
  - { offsetInCU: 0x46E65, offset: 0x27B144, size: 0x8, addend: 0x0, symName: __ZNK22llama_kv_cache_unified8get_n_kvEv, symObjAddr: 0x5320, symBinAddr: 0x50138, symSize: 0x74 }
  - { offsetInCU: 0x47187, offset: 0x27B466, size: 0x8, addend: 0x0, symName: __ZNK22llama_kv_cache_unified5get_kEP12ggml_contextij, symObjAddr: 0x5394, symBinAddr: 0x501AC, symSize: 0x1A4 }
  - { offsetInCU: 0x47403, offset: 0x27B6E2, size: 0x8, addend: 0x0, symName: __ZNK22llama_kv_cache_unified5get_vEP12ggml_contextij, symObjAddr: 0x5538, symBinAddr: 0x50350, symSize: 0x208 }
  - { offsetInCU: 0x4740E, offset: 0x27B6ED, size: 0x8, addend: 0x0, symName: __ZNK22llama_kv_cache_unified5get_vEP12ggml_contextij, symObjAddr: 0x5538, symBinAddr: 0x50350, symSize: 0x208 }
  - { offsetInCU: 0x47682, offset: 0x27B961, size: 0x8, addend: 0x0, symName: __ZNK22llama_kv_cache_unified5cpy_kEP12ggml_contextP11ggml_tensorij, symObjAddr: 0x5740, symBinAddr: 0x50558, symSize: 0x190 }
  - { offsetInCU: 0x4768D, offset: 0x27B96C, size: 0x8, addend: 0x0, symName: __ZNK22llama_kv_cache_unified5cpy_kEP12ggml_contextP11ggml_tensorij, symObjAddr: 0x5740, symBinAddr: 0x50558, symSize: 0x190 }
  - { offsetInCU: 0x47930, offset: 0x27BC0F, size: 0x8, addend: 0x0, symName: __ZNK22llama_kv_cache_unified5cpy_vEP12ggml_contextP11ggml_tensorij, symObjAddr: 0x58D0, symBinAddr: 0x506E8, symSize: 0x218 }
  - { offsetInCU: 0x4795D, offset: 0x27BC3C, size: 0x8, addend: 0x0, symName: __ZNK22llama_kv_cache_unified5cpy_vEP12ggml_contextP11ggml_tensorij, symObjAddr: 0x58D0, symBinAddr: 0x506E8, symSize: 0x218 }
  - { offsetInCU: 0x47C94, offset: 0x27BF73, size: 0x8, addend: 0x0, symName: __ZNK22llama_kv_cache_unified17set_input_kq_maskEP11ggml_tensorPK12llama_ubatchb, symObjAddr: 0x5AE8, symBinAddr: 0x50900, symSize: 0x248 }
  - { offsetInCU: 0x47CEC, offset: 0x27BFCB, size: 0x8, addend: 0x0, symName: __ZNK22llama_kv_cache_unified17set_input_kq_maskEP11ggml_tensorPK12llama_ubatchb, symObjAddr: 0x5AE8, symBinAddr: 0x50900, symSize: 0x248 }
  - { offsetInCU: 0x47F9A, offset: 0x27C279, size: 0x8, addend: 0x0, symName: __ZNK22llama_kv_cache_unified17set_input_k_shiftEP11ggml_tensor, symObjAddr: 0x5D30, symBinAddr: 0x50B48, symSize: 0xB0 }
  - { offsetInCU: 0x47FDF, offset: 0x27C2BE, size: 0x8, addend: 0x0, symName: __ZNK22llama_kv_cache_unified17set_input_k_shiftEP11ggml_tensor, symObjAddr: 0x5D30, symBinAddr: 0x50B48, symSize: 0xB0 }
  - { offsetInCU: 0x480B1, offset: 0x27C390, size: 0x8, addend: 0x0, symName: __ZNK22llama_kv_cache_unified20set_input_pos_bucketEP11ggml_tensorPK12llama_ubatch, symObjAddr: 0x5DE0, symBinAddr: 0x50BF8, symSize: 0x10C }
  - { offsetInCU: 0x480C3, offset: 0x27C3A2, size: 0x8, addend: 0x0, symName: __ZNK22llama_kv_cache_unified20set_input_pos_bucketEP11ggml_tensorPK12llama_ubatch, symObjAddr: 0x5DE0, symBinAddr: 0x50BF8, symSize: 0x10C }
  - { offsetInCU: 0x4822C, offset: 0x27C50B, size: 0x8, addend: 0x0, symName: __ZNK22llama_kv_cache_unified10total_sizeEv, symObjAddr: 0x5EEC, symBinAddr: 0x50D04, symSize: 0x60 }
  - { offsetInCU: 0x48280, offset: 0x27C55F, size: 0x8, addend: 0x0, symName: __ZNK22llama_kv_cache_unified10total_sizeEv, symObjAddr: 0x5EEC, symBinAddr: 0x50D04, symSize: 0x60 }
  - { offsetInCU: 0x4846C, offset: 0x27C74B, size: 0x8, addend: 0x0, symName: __ZN23llm_graph_input_k_shift9set_inputEPK12llama_ubatch, symObjAddr: 0x60A4, symBinAddr: 0x50EBC, symSize: 0xB4 }
  - { offsetInCU: 0x48568, offset: 0x27C847, size: 0x8, addend: 0x0, symName: __ZNK22llama_kv_cache_unified11state_writeER16llama_io_write_ii, symObjAddr: 0x6158, symBinAddr: 0x50F70, symSize: 0x560 }
  - { offsetInCU: 0x48D1A, offset: 0x27CFF9, size: 0x8, addend: 0x0, symName: __ZNK22llama_kv_cache_unified11state_writeER16llama_io_write_ii, symObjAddr: 0x6158, symBinAddr: 0x50F70, symSize: 0x560 }
  - { offsetInCU: 0x49BC3, offset: 0x27DEA2, size: 0x8, addend: 0x0, symName: __ZNK22llama_kv_cache_unified16state_write_metaER16llama_io_write_iRKNSt3__16vectorINS2_4pairIjjEENS2_9allocatorIS5_EEEEi, symObjAddr: 0x66B8, symBinAddr: 0x514D0, symSize: 0x358 }
  - { offsetInCU: 0x4A566, offset: 0x27E845, size: 0x8, addend: 0x0, symName: __ZNK22llama_kv_cache_unified16state_write_dataER16llama_io_write_iRKNSt3__16vectorINS2_4pairIjjEENS2_9allocatorIS5_EEEE, symObjAddr: 0x6A10, symBinAddr: 0x51828, symSize: 0x388 }
  - { offsetInCU: 0x4B160, offset: 0x27F43F, size: 0x8, addend: 0x0, symName: __ZN22llama_kv_cache_unified10state_readER15llama_io_read_ii, symObjAddr: 0x6D98, symBinAddr: 0x51BB0, symSize: 0xF4 }
  - { offsetInCU: 0x4B255, offset: 0x27F534, size: 0x8, addend: 0x0, symName: __ZN22llama_kv_cache_unified15state_read_metaER15llama_io_read_iji, symObjAddr: 0x6E8C, symBinAddr: 0x51CA4, symSize: 0x4FC }
  - { offsetInCU: 0x4BF11, offset: 0x2801F0, size: 0x8, addend: 0x0, symName: __ZN22llama_kv_cache_unified15state_read_dataER15llama_io_read_ij, symObjAddr: 0x7388, symBinAddr: 0x521A0, symSize: 0x578 }
  - { offsetInCU: 0x4C537, offset: 0x280816, size: 0x8, addend: 0x0, symName: __ZN28llama_kv_cache_unified_stateC2E19llama_memory_status, symObjAddr: 0x7900, symBinAddr: 0x52718, symSize: 0x38 }
  - { offsetInCU: 0x4C65E, offset: 0x28093D, size: 0x8, addend: 0x0, symName: __ZN28llama_kv_cache_unified_stateC1E19llama_memory_status, symObjAddr: 0x7938, symBinAddr: 0x52750, symSize: 0x38 }
  - { offsetInCU: 0x4C688, offset: 0x280967, size: 0x8, addend: 0x0, symName: __ZN28llama_kv_cache_unified_stateC1E19llama_memory_status, symObjAddr: 0x7938, symBinAddr: 0x52750, symSize: 0x38 }
  - { offsetInCU: 0x4C7A9, offset: 0x280A88, size: 0x8, addend: 0x0, symName: __ZN28llama_kv_cache_unified_stateC2EP22llama_kv_cache_unified, symObjAddr: 0x7970, symBinAddr: 0x52788, symSize: 0x4C }
  - { offsetInCU: 0x4C92D, offset: 0x280C0C, size: 0x8, addend: 0x0, symName: __ZN28llama_kv_cache_unified_stateC1EP22llama_kv_cache_unified, symObjAddr: 0x79BC, symBinAddr: 0x527D4, symSize: 0x4C }
  - { offsetInCU: 0x4C957, offset: 0x280C36, size: 0x8, addend: 0x0, symName: __ZN28llama_kv_cache_unified_stateC1EP22llama_kv_cache_unified, symObjAddr: 0x79BC, symBinAddr: 0x527D4, symSize: 0x4C }
  - { offsetInCU: 0x4CAD5, offset: 0x280DB4, size: 0x8, addend: 0x0, symName: __ZN28llama_kv_cache_unified_stateC2EP22llama_kv_cache_unifiedP13llama_contextbNS0_11defrag_infoE, symObjAddr: 0x7A08, symBinAddr: 0x52820, symSize: 0x70 }
  - { offsetInCU: 0x4CBD4, offset: 0x280EB3, size: 0x8, addend: 0x0, symName: __ZN28llama_kv_cache_unified_stateC1EP22llama_kv_cache_unifiedP13llama_contextbNS0_11defrag_infoE, symObjAddr: 0x7A78, symBinAddr: 0x52890, symSize: 0x70 }
  - { offsetInCU: 0x4CD0B, offset: 0x280FEA, size: 0x8, addend: 0x0, symName: __ZN28llama_kv_cache_unified_stateC2EP22llama_kv_cache_unified12llama_sbatchNSt3__16vectorIjNS3_9allocatorIjEEEENS4_I12llama_ubatchNS5_IS8_EEEE, symObjAddr: 0x7AE8, symBinAddr: 0x52900, symSize: 0xF4 }
  - { offsetInCU: 0x4CFE8, offset: 0x2812C7, size: 0x8, addend: 0x0, symName: __ZN28llama_kv_cache_unified_stateC1EP22llama_kv_cache_unified12llama_sbatchNSt3__16vectorIjNS3_9allocatorIjEEEENS4_I12llama_ubatchNS5_IS8_EEEE, symObjAddr: 0x7BDC, symBinAddr: 0x529F4, symSize: 0xF4 }
  - { offsetInCU: 0x4D02A, offset: 0x281309, size: 0x8, addend: 0x0, symName: __ZN28llama_kv_cache_unified_stateC1EP22llama_kv_cache_unified12llama_sbatchNSt3__16vectorIjNS3_9allocatorIjEEEENS4_I12llama_ubatchNS5_IS8_EEEE, symObjAddr: 0x7BDC, symBinAddr: 0x529F4, symSize: 0xF4 }
  - { offsetInCU: 0x4D301, offset: 0x2815E0, size: 0x8, addend: 0x0, symName: __ZN28llama_kv_cache_unified_stateD2Ev, symObjAddr: 0x7CD0, symBinAddr: 0x52AE8, symSize: 0xD4 }
  - { offsetInCU: 0x4DCCD, offset: 0x281FAC, size: 0x8, addend: 0x0, symName: __ZN28llama_kv_cache_unified_stateD1Ev, symObjAddr: 0x7DA4, symBinAddr: 0x52BBC, symSize: 0x4 }
  - { offsetInCU: 0x4DCF0, offset: 0x281FCF, size: 0x8, addend: 0x0, symName: __ZN28llama_kv_cache_unified_stateD1Ev, symObjAddr: 0x7DA4, symBinAddr: 0x52BBC, symSize: 0x4 }
  - { offsetInCU: 0x4DD20, offset: 0x281FFF, size: 0x8, addend: 0x0, symName: __ZN28llama_kv_cache_unified_stateD0Ev, symObjAddr: 0x7DA8, symBinAddr: 0x52BC0, symSize: 0x14 }
  - { offsetInCU: 0x4DD7E, offset: 0x28205D, size: 0x8, addend: 0x0, symName: __ZN28llama_kv_cache_unified_state4nextEv, symObjAddr: 0x7DBC, symBinAddr: 0x52BD4, symSize: 0x20 }
  - { offsetInCU: 0x4DE1B, offset: 0x2820FA, size: 0x8, addend: 0x0, symName: __ZN28llama_kv_cache_unified_state5applyEv, symObjAddr: 0x7DDC, symBinAddr: 0x52BF4, symSize: 0xE4 }
  - { offsetInCU: 0x4E003, offset: 0x2822E2, size: 0x8, addend: 0x0, symName: __ZN28llama_kv_cache_unified_state7out_idsEv, symObjAddr: 0x7EC0, symBinAddr: 0x52CD8, symSize: 0x8 }
  - { offsetInCU: 0x4E02D, offset: 0x28230C, size: 0x8, addend: 0x0, symName: __ZNK28llama_kv_cache_unified_state10get_statusEv, symObjAddr: 0x7EC8, symBinAddr: 0x52CE0, symSize: 0x8 }
  - { offsetInCU: 0x4E07B, offset: 0x28235A, size: 0x8, addend: 0x0, symName: __ZNK28llama_kv_cache_unified_state10get_ubatchEv, symObjAddr: 0x7ED0, symBinAddr: 0x52CE8, symSize: 0x10 }
  - { offsetInCU: 0x4E0CC, offset: 0x2823AB, size: 0x8, addend: 0x0, symName: __ZNK28llama_kv_cache_unified_state8get_n_kvEv, symObjAddr: 0x7EE0, symBinAddr: 0x52CF8, symSize: 0x8 }
  - { offsetInCU: 0x4E0F6, offset: 0x2823D5, size: 0x8, addend: 0x0, symName: __ZNK28llama_kv_cache_unified_state5get_kEP12ggml_contexti, symObjAddr: 0x7EE8, symBinAddr: 0x52D00, symSize: 0x10 }
  - { offsetInCU: 0x4E15B, offset: 0x28243A, size: 0x8, addend: 0x0, symName: __ZNK28llama_kv_cache_unified_state5get_vEP12ggml_contexti, symObjAddr: 0x7EF8, symBinAddr: 0x52D10, symSize: 0x10 }
  - { offsetInCU: 0x4E1C0, offset: 0x28249F, size: 0x8, addend: 0x0, symName: __ZNK28llama_kv_cache_unified_state5cpy_kEP12ggml_contextP11ggml_tensori, symObjAddr: 0x7F08, symBinAddr: 0x52D20, symSize: 0x10 }
  - { offsetInCU: 0x4E23B, offset: 0x28251A, size: 0x8, addend: 0x0, symName: __ZNK28llama_kv_cache_unified_state5cpy_vEP12ggml_contextP11ggml_tensori, symObjAddr: 0x7F18, symBinAddr: 0x52D30, symSize: 0x10 }
  - { offsetInCU: 0x4E2B6, offset: 0x282595, size: 0x8, addend: 0x0, symName: __ZNK28llama_kv_cache_unified_state17set_input_k_shiftEP11ggml_tensor, symObjAddr: 0x7F28, symBinAddr: 0x52D40, symSize: 0xB0 }
  - { offsetInCU: 0x4E3B7, offset: 0x282696, size: 0x8, addend: 0x0, symName: __ZNK28llama_kv_cache_unified_state17set_input_kq_maskEP11ggml_tensorPK12llama_ubatchb, symObjAddr: 0x7FD8, symBinAddr: 0x52DF0, symSize: 0x8 }
  - { offsetInCU: 0x4E3C9, offset: 0x2826A8, size: 0x8, addend: 0x0, symName: __ZNK28llama_kv_cache_unified_state17set_input_kq_maskEP11ggml_tensorPK12llama_ubatchb, symObjAddr: 0x7FD8, symBinAddr: 0x52DF0, symSize: 0x8 }
  - { offsetInCU: 0x4E449, offset: 0x282728, size: 0x8, addend: 0x0, symName: __ZNK28llama_kv_cache_unified_state20set_input_pos_bucketEP11ggml_tensorPK12llama_ubatch, symObjAddr: 0x7FE0, symBinAddr: 0x52DF8, symSize: 0x8 }
  - { offsetInCU: 0x4E4AE, offset: 0x28278D, size: 0x8, addend: 0x0, symName: __ZN22llama_kv_cache_unified11get_paddingERK13llama_cparams, symObjAddr: 0x7FE8, symBinAddr: 0x52E00, symSize: 0x18 }
  - { offsetInCU: 0x4E4D6, offset: 0x2827B5, size: 0x8, addend: 0x0, symName: __ZN22llama_kv_cache_unifiedD1Ev, symObjAddr: 0x8000, symBinAddr: 0x52E18, symSize: 0x4 }
  - { offsetInCU: 0x4E4F9, offset: 0x2827D8, size: 0x8, addend: 0x0, symName: __ZN22llama_kv_cache_unifiedD1Ev, symObjAddr: 0x8000, symBinAddr: 0x52E18, symSize: 0x4 }
  - { offsetInCU: 0x4E50C, offset: 0x2827EB, size: 0x8, addend: 0x0, symName: __ZN22llama_kv_cache_unifiedD2Ev, symObjAddr: 0x95CC, symBinAddr: 0x53864, symSize: 0x104 }
  - { offsetInCU: 0x4EDB2, offset: 0x283091, size: 0x8, addend: 0x0, symName: __ZN22llama_kv_cache_unifiedD0Ev, symObjAddr: 0x8004, symBinAddr: 0x52E1C, symSize: 0x14 }
  - { offsetInCU: 0x4EE0D, offset: 0x2830EC, size: 0x8, addend: 0x0, symName: __ZN23llm_graph_input_k_shiftD1Ev, symObjAddr: 0x8018, symBinAddr: 0x52E30, symSize: 0x4 }
  - { offsetInCU: 0x4EE36, offset: 0x283115, size: 0x8, addend: 0x0, symName: __ZN23llm_graph_input_k_shiftD0Ev, symObjAddr: 0x801C, symBinAddr: 0x52E34, symSize: 0x4 }
  - { offsetInCU: 0x4F353, offset: 0x283632, size: 0x8, addend: 0x0, symName: __ZNKSt3__16vectorINS_6bitsetILm64EEENS_9allocatorIS2_EEE20__throw_length_errorB8ue170006Ev, symObjAddr: 0x87E4, symBinAddr: 0x533A4, symSize: 0x14 }
  - { offsetInCU: 0x4F728, offset: 0x283A07, size: 0x8, addend: 0x0, symName: __ZN22llama_kv_cells_unifiedD2Ev, symObjAddr: 0x8AE8, symBinAddr: 0x533B8, symSize: 0x360 }
  - { offsetInCU: 0x50038, offset: 0x284317, size: 0x8, addend: 0x0, symName: __ZN22llama_kv_cache_unifiedD2Ev, symObjAddr: 0x95CC, symBinAddr: 0x53864, symSize: 0x104 }
  - { offsetInCU: 0x504A1, offset: 0x284780, size: 0x8, addend: 0x0, symName: __ZNSt3__112__hash_tableINS_17__hash_value_typeIiiEENS_22__unordered_map_hasherIiS2_NS_4hashIiEENS_8equal_toIiEELb1EEENS_21__unordered_map_equalIiS2_S7_S5_Lb1EEENS_9allocatorIS2_EEE11__do_rehashILb1EEEvm, symObjAddr: 0x9A24, symBinAddr: 0x53C7C, symSize: 0x1AC }
  - { offsetInCU: 0x50901, offset: 0x284BE0, size: 0x8, addend: 0x0, symName: __ZNKSt3__16vectorIN22llama_kv_cache_unified8kv_layerENS_9allocatorIS2_EEE20__throw_length_errorB8ue170006Ev, symObjAddr: 0x9BD0, symBinAddr: 0x53E28, symSize: 0x14 }
  - { offsetInCU: 0x26, offset: 0x2852BD, size: 0x8, addend: 0x0, symName: __Z27llama_memory_status_combine19llama_memory_statusS_, symObjAddr: 0x0, symBinAddr: 0x540B0, symSize: 0x38 }
  - { offsetInCU: 0x29C8, offset: 0x287C5F, size: 0x8, addend: 0x0, symName: __Z27llama_memory_status_combine19llama_memory_statusS_, symObjAddr: 0x0, symBinAddr: 0x540B0, symSize: 0x38 }
  - { offsetInCU: 0x39, offset: 0x287CE5, size: 0x8, addend: 0x0, symName: __ZN10llama_mmap9SUPPORTEDE, symObjAddr: 0x15C0, symBinAddr: 0x1DF40A, symSize: 0x0 }
  - { offsetInCU: 0x5F3F, offset: 0x28DBEB, size: 0x8, addend: 0x0, symName: __ZN11llama_mlock9SUPPORTEDE, symObjAddr: 0x15C1, symBinAddr: 0x1DF40B, symSize: 0x0 }
  - { offsetInCU: 0x7FE6, offset: 0x28FC92, size: 0x8, addend: 0x0, symName: __ZN10llama_fileC2EPKcS1_, symObjAddr: 0x0, symBinAddr: 0x540E8, symSize: 0x60 }
  - { offsetInCU: 0x810C, offset: 0x28FDB8, size: 0x8, addend: 0x0, symName: __ZN10llama_file4implC2EPKcS2_, symObjAddr: 0x1024, symBinAddr: 0x55064, symSize: 0x108 }
  - { offsetInCU: 0x832F, offset: 0x28FFDB, size: 0x8, addend: 0x0, symName: __ZN10llama_fileC1EPKcS1_, symObjAddr: 0x60, symBinAddr: 0x54148, symSize: 0x60 }
  - { offsetInCU: 0x8553, offset: 0x2901FF, size: 0x8, addend: 0x0, symName: __ZN10llama_fileD2Ev, symObjAddr: 0xC0, symBinAddr: 0x541A8, symSize: 0x40 }
  - { offsetInCU: 0x8675, offset: 0x290321, size: 0x8, addend: 0x0, symName: __ZN10llama_fileD1Ev, symObjAddr: 0x100, symBinAddr: 0x541E8, symSize: 0x40 }
  - { offsetInCU: 0x87AD, offset: 0x290459, size: 0x8, addend: 0x0, symName: __ZNK10llama_file4tellEv, symObjAddr: 0x140, symBinAddr: 0x54228, symSize: 0x8 }
  - { offsetInCU: 0x87D9, offset: 0x290485, size: 0x8, addend: 0x0, symName: __ZNK10llama_file4tellEv, symObjAddr: 0x140, symBinAddr: 0x54228, symSize: 0x8 }
  - { offsetInCU: 0x8801, offset: 0x2904AD, size: 0x8, addend: 0x0, symName: __ZNK10llama_file4impl4tellEv, symObjAddr: 0x148, symBinAddr: 0x54230, symSize: 0xCC }
  - { offsetInCU: 0x8A74, offset: 0x290720, size: 0x8, addend: 0x0, symName: __ZNK10llama_file4sizeEv, symObjAddr: 0x214, symBinAddr: 0x542FC, symSize: 0xC }
  - { offsetInCU: 0x8A99, offset: 0x290745, size: 0x8, addend: 0x0, symName: __ZNK10llama_file4sizeEv, symObjAddr: 0x214, symBinAddr: 0x542FC, symSize: 0xC }
  - { offsetInCU: 0x8AB3, offset: 0x29075F, size: 0x8, addend: 0x0, symName: __ZNK10llama_file7file_idEv, symObjAddr: 0x220, symBinAddr: 0x54308, symSize: 0xC }
  - { offsetInCU: 0x8AD8, offset: 0x290784, size: 0x8, addend: 0x0, symName: __ZNK10llama_file7file_idEv, symObjAddr: 0x220, symBinAddr: 0x54308, symSize: 0xC }
  - { offsetInCU: 0x8B11, offset: 0x2907BD, size: 0x8, addend: 0x0, symName: __ZNK10llama_file4seekEmi, symObjAddr: 0x22C, symBinAddr: 0x54314, symSize: 0x8 }
  - { offsetInCU: 0x8B5C, offset: 0x290808, size: 0x8, addend: 0x0, symName: __ZNK10llama_file4seekEmi, symObjAddr: 0x22C, symBinAddr: 0x54314, symSize: 0x8 }
  - { offsetInCU: 0x8B93, offset: 0x29083F, size: 0x8, addend: 0x0, symName: __ZNK10llama_file4impl4seekEmi, symObjAddr: 0x234, symBinAddr: 0x5431C, symSize: 0xC8 }
  - { offsetInCU: 0x8D5B, offset: 0x290A07, size: 0x8, addend: 0x0, symName: __ZNK10llama_file8read_rawEPvm, symObjAddr: 0x2FC, symBinAddr: 0x543E4, symSize: 0x8 }
  - { offsetInCU: 0x8DA6, offset: 0x290A52, size: 0x8, addend: 0x0, symName: __ZNK10llama_file8read_rawEPvm, symObjAddr: 0x2FC, symBinAddr: 0x543E4, symSize: 0x8 }
  - { offsetInCU: 0x8DDD, offset: 0x290A89, size: 0x8, addend: 0x0, symName: __ZNK10llama_file4impl8read_rawEPvm, symObjAddr: 0x304, symBinAddr: 0x543EC, symSize: 0x138 }
  - { offsetInCU: 0x8FB3, offset: 0x290C5F, size: 0x8, addend: 0x0, symName: __ZNK10llama_file8read_u32Ev, symObjAddr: 0x43C, symBinAddr: 0x54524, symSize: 0x2C }
  - { offsetInCU: 0x903B, offset: 0x290CE7, size: 0x8, addend: 0x0, symName: __ZNK10llama_file9write_rawEPKvm, symObjAddr: 0x468, symBinAddr: 0x54550, symSize: 0x8 }
  - { offsetInCU: 0x9086, offset: 0x290D32, size: 0x8, addend: 0x0, symName: __ZNK10llama_file9write_rawEPKvm, symObjAddr: 0x468, symBinAddr: 0x54550, symSize: 0x8 }
  - { offsetInCU: 0x90BD, offset: 0x290D69, size: 0x8, addend: 0x0, symName: __ZNK10llama_file4impl9write_rawEPKvm, symObjAddr: 0x470, symBinAddr: 0x54558, symSize: 0xF0 }
  - { offsetInCU: 0x926F, offset: 0x290F1B, size: 0x8, addend: 0x0, symName: __ZNK10llama_file9write_u32Ej, symObjAddr: 0x560, symBinAddr: 0x54648, symSize: 0x2C }
  - { offsetInCU: 0x946B, offset: 0x291117, size: 0x8, addend: 0x0, symName: __ZN10llama_mmapC2EP10llama_filemb, symObjAddr: 0x58C, symBinAddr: 0x54674, symSize: 0x70 }
  - { offsetInCU: 0x95A0, offset: 0x29124C, size: 0x8, addend: 0x0, symName: __ZN10llama_mmap4implC2EP10llama_filemb, symObjAddr: 0x112C, symBinAddr: 0x5516C, symSize: 0x2B4 }
  - { offsetInCU: 0x9FD9, offset: 0x291C85, size: 0x8, addend: 0x0, symName: __ZN10llama_mmapC1EP10llama_filemb, symObjAddr: 0x5FC, symBinAddr: 0x546E4, symSize: 0x70 }
  - { offsetInCU: 0xA203, offset: 0x291EAF, size: 0x8, addend: 0x0, symName: __ZN10llama_mmapD2Ev, symObjAddr: 0x66C, symBinAddr: 0x54754, symSize: 0x34 }
  - { offsetInCU: 0xA2DB, offset: 0x291F87, size: 0x8, addend: 0x0, symName: __ZN10llama_mmap4implD2Ev, symObjAddr: 0x13E0, symBinAddr: 0x55420, symSize: 0xA4 }
  - { offsetInCU: 0xA530, offset: 0x2921DC, size: 0x8, addend: 0x0, symName: __ZN10llama_mmapD1Ev, symObjAddr: 0x6A0, symBinAddr: 0x54788, symSize: 0x34 }
  - { offsetInCU: 0xA64C, offset: 0x2922F8, size: 0x8, addend: 0x0, symName: __ZNK10llama_mmap4sizeEv, symObjAddr: 0x6D4, symBinAddr: 0x547BC, symSize: 0xC }
  - { offsetInCU: 0xA679, offset: 0x292325, size: 0x8, addend: 0x0, symName: __ZNK10llama_mmap4sizeEv, symObjAddr: 0x6D4, symBinAddr: 0x547BC, symSize: 0xC }
  - { offsetInCU: 0xA693, offset: 0x29233F, size: 0x8, addend: 0x0, symName: __ZNK10llama_mmap4addrEv, symObjAddr: 0x6E0, symBinAddr: 0x547C8, symSize: 0xC }
  - { offsetInCU: 0xA6C0, offset: 0x29236C, size: 0x8, addend: 0x0, symName: __ZNK10llama_mmap4addrEv, symObjAddr: 0x6E0, symBinAddr: 0x547C8, symSize: 0xC }
  - { offsetInCU: 0xA6DA, offset: 0x292386, size: 0x8, addend: 0x0, symName: __ZN10llama_mmap14unmap_fragmentEmm, symObjAddr: 0x6EC, symBinAddr: 0x547D4, symSize: 0x8 }
  - { offsetInCU: 0xA725, offset: 0x2923D1, size: 0x8, addend: 0x0, symName: __ZN10llama_mmap14unmap_fragmentEmm, symObjAddr: 0x6EC, symBinAddr: 0x547D4, symSize: 0x8 }
  - { offsetInCU: 0xA75C, offset: 0x292408, size: 0x8, addend: 0x0, symName: __ZN10llama_mmap4impl14unmap_fragmentEmm, symObjAddr: 0x6F4, symBinAddr: 0x547DC, symSize: 0x640 }
  - { offsetInCU: 0xCE89, offset: 0x294B35, size: 0x8, addend: 0x0, symName: __ZNKSt3__16vectorINS_4pairImmEENS_9allocatorIS2_EEE20__throw_length_errorB8ue170006Ev, symObjAddr: 0xF74, symBinAddr: 0x55050, symSize: 0x14 }
  - { offsetInCU: 0xD025, offset: 0x294CD1, size: 0x8, addend: 0x0, symName: __ZN11llama_mlockC2Ev, symObjAddr: 0xD34, symBinAddr: 0x54E1C, symSize: 0x34 }
  - { offsetInCU: 0xD158, offset: 0x294E04, size: 0x8, addend: 0x0, symName: __ZN11llama_mlockC1Ev, symObjAddr: 0xD68, symBinAddr: 0x54E50, symSize: 0x34 }
  - { offsetInCU: 0xD31A, offset: 0x294FC6, size: 0x8, addend: 0x0, symName: __ZN11llama_mlockD2Ev, symObjAddr: 0xD9C, symBinAddr: 0x54E84, symSize: 0x30 }
  - { offsetInCU: 0xD3E4, offset: 0x295090, size: 0x8, addend: 0x0, symName: __ZN11llama_mlockD1Ev, symObjAddr: 0xDCC, symBinAddr: 0x54EB4, symSize: 0x30 }
  - { offsetInCU: 0xD4F7, offset: 0x2951A3, size: 0x8, addend: 0x0, symName: __ZN11llama_mlock4initEPv, symObjAddr: 0xDFC, symBinAddr: 0x54EE4, symSize: 0x54 }
  - { offsetInCU: 0xD567, offset: 0x295213, size: 0x8, addend: 0x0, symName: __ZN11llama_mlock7grow_toEm, symObjAddr: 0xE50, symBinAddr: 0x54F38, symSize: 0x8 }
  - { offsetInCU: 0xD57A, offset: 0x295226, size: 0x8, addend: 0x0, symName: __ZN11llama_mlock7grow_toEm, symObjAddr: 0xE50, symBinAddr: 0x54F38, symSize: 0x8 }
  - { offsetInCU: 0xD5B6, offset: 0x295262, size: 0x8, addend: 0x0, symName: __ZN11llama_mlock7grow_toEm, symObjAddr: 0xE50, symBinAddr: 0x54F38, symSize: 0x8 }
  - { offsetInCU: 0xD5E6, offset: 0x295292, size: 0x8, addend: 0x0, symName: __ZN11llama_mlock4impl7grow_toEm, symObjAddr: 0xE58, symBinAddr: 0x54F40, symSize: 0x108 }
  - { offsetInCU: 0xD6BE, offset: 0x29536A, size: 0x8, addend: 0x0, symName: __Z14llama_path_maxv, symObjAddr: 0xF60, symBinAddr: 0x55048, symSize: 0x8 }
  - { offsetInCU: 0xD739, offset: 0x2953E5, size: 0x8, addend: 0x0, symName: __Z14llama_path_maxv, symObjAddr: 0xF60, symBinAddr: 0x55048, symSize: 0x8 }
  - { offsetInCU: 0x253E5, offset: 0x2BAB15, size: 0x8, addend: 0x0, symName: __ZNSt3__120__throw_future_errorB8ue170006ENS_11future_errcE, symObjAddr: 0xA91C, symBinAddr: 0x5F2B8, symSize: 0x5C }
  - { offsetInCU: 0x26355, offset: 0x2BBA85, size: 0x8, addend: 0x0, symName: '__ZNSt3__114__thread_proxyB8ue170006INS_5tupleIJNS_10unique_ptrINS_15__thread_structENS_14default_deleteIS3_EEEEMNS_19__async_assoc_stateINS_4pairIP11ggml_tensorbEENS_12__async_funcIZN18llama_model_loader13load_all_dataEP12ggml_contextRNS_13unordered_mapIjP19ggml_backend_bufferNS_4hashIjEENS_8equal_toIjEENS_9allocatorINS8_IKjSI_EEEEEEPNS_6vectorINS2_I11llama_mlockNS4_ISU_EEEENSN_ISW_EEEEPFbfPvES10_E3$_1JEEEEEFvvEPS15_EEEEES10_S10_', symObjAddr: 0xA978, symBinAddr: 0x5F314, symSize: 0x8C }
  - { offsetInCU: 0x2688F, offset: 0x2BBFBF, size: 0x8, addend: 0x0, symName: '__ZNSt3__114__thread_proxyB8ue170006INS_5tupleIJNS_10unique_ptrINS_15__thread_structENS_14default_deleteIS3_EEEEMNS_19__async_assoc_stateINS_4pairIP11ggml_tensorbEENS_12__async_funcIZN18llama_model_loader13load_all_dataEP12ggml_contextRNS_13unordered_mapIjP19ggml_backend_bufferNS_4hashIjEENS_8equal_toIjEENS_9allocatorINS8_IKjSI_EEEEEEPNS_6vectorINS2_I11llama_mlockNS4_ISU_EEEENSN_ISW_EEEEPFbfPvES10_E3$_2JEEEEEFvvEPS15_EEEEES10_S10_', symObjAddr: 0xAD80, symBinAddr: 0x5F71C, symSize: 0x8C }
  - { offsetInCU: 0x2AF25, offset: 0x2C0655, size: 0x8, addend: 0x0, symName: __ZN18llama_model_loader13load_all_dataEP12ggml_contextRNSt3__113unordered_mapIjP19ggml_backend_bufferNS2_4hashIjEENS2_8equal_toIjEENS2_9allocatorINS2_4pairIKjS5_EEEEEEPNS2_6vectorINS2_10unique_ptrI11llama_mlockNS2_14default_deleteISJ_EEEENSA_ISM_EEEEPFbfPvESQ_, symObjAddr: 0x5374, symBinAddr: 0x5A680, symSize: 0x1600 }
  - { offsetInCU: 0x31A6B, offset: 0x2C719B, size: 0x8, addend: 0x0, symName: __Z23llama_file_version_name10llama_fver, symObjAddr: 0x0, symBinAddr: 0x554C4, symSize: 0x28 }
  - { offsetInCU: 0x31B4F, offset: 0x2C727F, size: 0x8, addend: 0x0, symName: __ZN18llama_model_loader9get_arr_nIjEENSt3__19enable_ifIXsr3std11is_integralIT_EE5valueEbE4typeE6llm_kvRS3_b, symObjAddr: 0x28, symBinAddr: 0x554EC, symSize: 0xA0 }
  - { offsetInCU: 0x31E11, offset: 0x2C7541, size: 0x8, addend: 0x0, symName: __ZN18llama_model_loader9get_arr_nIjEENSt3__19enable_ifIXsr3std11is_integralIT_EE5valueEbE4typeERKNS1_12basic_stringIcNS1_11char_traitsIcEENS1_9allocatorIcEEEERS3_b, symObjAddr: 0xC8, symBinAddr: 0x5558C, symSize: 0x120 }
  - { offsetInCU: 0x32193, offset: 0x2C78C3, size: 0x8, addend: 0x0, symName: __ZN8GGUFMeta3GKVINS_9ArrayInfoEE6get_kvEPK12gguf_contexti, symObjAddr: 0x7258, symBinAddr: 0x5C41C, symSize: 0x150 }
  - { offsetInCU: 0x323F3, offset: 0x2C7B23, size: 0x8, addend: 0x0, symName: __ZN18llama_model_loader7get_arrINSt3__16vectorINS1_12basic_stringIcNS1_11char_traitsIcEENS1_9allocatorIcEEEENS6_IS8_EEEEEEb6llm_kvRT_b, symObjAddr: 0x1E8, symBinAddr: 0x556AC, symSize: 0xA0 }
  - { offsetInCU: 0x326B5, offset: 0x2C7DE5, size: 0x8, addend: 0x0, symName: __ZN18llama_model_loader7get_arrINSt3__112basic_stringIcNS1_11char_traitsIcEENS1_9allocatorIcEEEEEEbRKS7_RNS1_6vectorIT_NS5_ISB_EEEEb, symObjAddr: 0x288, symBinAddr: 0x5574C, symSize: 0x3F4 }
  - { offsetInCU: 0x33C34, offset: 0x2C9364, size: 0x8, addend: 0x0, symName: __ZNSt3__16vectorINS_12basic_stringIcNS_11char_traitsIcEENS_9allocatorIcEEEENS4_IS6_EEE24__emplace_back_slow_pathIJRKS6_EEEvDpOT_, symObjAddr: 0x73A8, symBinAddr: 0x5C56C, symSize: 0x228 }
  - { offsetInCU: 0x34678, offset: 0x2C9DA8, size: 0x8, addend: 0x0, symName: __ZNSt3__16vectorINS_12basic_stringIcNS_11char_traitsIcEENS_9allocatorIcEEEENS4_IS6_EEE21__push_back_slow_pathIS6_EEvOT_, symObjAddr: 0x7038, symBinAddr: 0x5C274, symSize: 0x16C }
  - { offsetInCU: 0x346A3, offset: 0x2C9DD3, size: 0x8, addend: 0x0, symName: __ZN18llama_model_loader7get_keyIbEEb6llm_kvRT_b, symObjAddr: 0x67C, symBinAddr: 0x55B40, symSize: 0xA0 }
  - { offsetInCU: 0x34965, offset: 0x2CA095, size: 0x8, addend: 0x0, symName: __ZN18llama_model_loader7get_keyIbEEbRKNSt3__112basic_stringIcNS1_11char_traitsIcEENS1_9allocatorIcEEEERT_b, symObjAddr: 0x71C, symBinAddr: 0x55BE0, symSize: 0x15C }
  - { offsetInCU: 0x34E4B, offset: 0x2CA57B, size: 0x8, addend: 0x0, symName: __ZNSt3__112__hash_tableINS_17__hash_value_typeINS_12basic_stringIcNS_11char_traitsIcEENS_9allocatorIcEEEE23llama_model_kv_overrideEENS_22__unordered_map_hasherIS7_S9_NS_4hashIS7_EENS_8equal_toIS7_EELb1EEENS_21__unordered_map_equalIS7_S9_SE_SC_Lb1EEENS5_IS9_EEE4findIS7_EENS_15__hash_iteratorIPNS_11__hash_nodeIS9_PvEEEERKT_, symObjAddr: 0x75D0, symBinAddr: 0x5C794, symSize: 0x23C }
  - { offsetInCU: 0x350D5, offset: 0x2CA805, size: 0x8, addend: 0x0, symName: __ZN8GGUFMeta3GKVIbE17validate_overrideE28llama_model_kv_override_typePK23llama_model_kv_override, symObjAddr: 0x7DA8, symBinAddr: 0x5CAD0, symSize: 0x23C }
  - { offsetInCU: 0x352DB, offset: 0x2CAA0B, size: 0x8, addend: 0x0, symName: __ZN8GGUFMeta3GKVIbE6get_kvEPK12gguf_contexti, symObjAddr: 0x7CA8, symBinAddr: 0x5C9D0, symSize: 0x100 }
  - { offsetInCU: 0x354D5, offset: 0x2CAC05, size: 0x8, addend: 0x0, symName: __ZN18llama_model_loader7get_keyIfEEb6llm_kvRT_b, symObjAddr: 0x878, symBinAddr: 0x55D3C, symSize: 0xA0 }
  - { offsetInCU: 0x35797, offset: 0x2CAEC7, size: 0x8, addend: 0x0, symName: __ZN18llama_model_loader7get_keyIfEEbRKNSt3__112basic_stringIcNS1_11char_traitsIcEENS1_9allocatorIcEEEERT_b, symObjAddr: 0x918, symBinAddr: 0x55DDC, symSize: 0x160 }
  - { offsetInCU: 0x35C56, offset: 0x2CB386, size: 0x8, addend: 0x0, symName: __ZN8GGUFMeta3GKVIfE17validate_overrideE28llama_model_kv_override_typePK23llama_model_kv_override, symObjAddr: 0x80E4, symBinAddr: 0x5CE0C, symSize: 0x23C }
  - { offsetInCU: 0x35E5C, offset: 0x2CB58C, size: 0x8, addend: 0x0, symName: __ZN8GGUFMeta3GKVIfE6get_kvEPK12gguf_contexti, symObjAddr: 0x7FE4, symBinAddr: 0x5CD0C, symSize: 0x100 }
  - { offsetInCU: 0x36056, offset: 0x2CB786, size: 0x8, addend: 0x0, symName: __ZN18llama_model_loader7get_keyIjEEb6llm_kvRT_b, symObjAddr: 0xA78, symBinAddr: 0x55F3C, symSize: 0xA0 }
  - { offsetInCU: 0x362F5, offset: 0x2CBA25, size: 0x8, addend: 0x0, symName: __ZN18llama_model_loader7get_keyIjEEbRKNSt3__112basic_stringIcNS1_11char_traitsIcEENS1_9allocatorIcEEEERT_b, symObjAddr: 0xB18, symBinAddr: 0x55FDC, symSize: 0x15C }
  - { offsetInCU: 0x367B4, offset: 0x2CBEE4, size: 0x8, addend: 0x0, symName: __ZN8GGUFMeta3GKVIjE17validate_overrideE28llama_model_kv_override_typePK23llama_model_kv_override, symObjAddr: 0x8420, symBinAddr: 0x5D148, symSize: 0x23C }
  - { offsetInCU: 0x369BA, offset: 0x2CC0EA, size: 0x8, addend: 0x0, symName: __ZN8GGUFMeta3GKVIjE6get_kvEPK12gguf_contexti, symObjAddr: 0x8320, symBinAddr: 0x5D048, symSize: 0x100 }
  - { offsetInCU: 0x36BB4, offset: 0x2CC2E4, size: 0x8, addend: 0x0, symName: __ZN18llama_model_loader7get_keyINSt3__112basic_stringIcNS1_11char_traitsIcEENS1_9allocatorIcEEEEEEb6llm_kvRT_b, symObjAddr: 0xC74, symBinAddr: 0x56138, symSize: 0xA0 }
  - { offsetInCU: 0x36E76, offset: 0x2CC5A6, size: 0x8, addend: 0x0, symName: __ZN18llama_model_loader7get_keyINSt3__112basic_stringIcNS1_11char_traitsIcEENS1_9allocatorIcEEEEEEbRKS7_RT_b, symObjAddr: 0xD14, symBinAddr: 0x561D8, symSize: 0x184 }
  - { offsetInCU: 0x374FD, offset: 0x2CCC2D, size: 0x8, addend: 0x0, symName: __ZN8GGUFMeta3GKVINSt3__112basic_stringIcNS1_11char_traitsIcEENS1_9allocatorIcEEEEE17validate_overrideE28llama_model_kv_override_typePK23llama_model_kv_override, symObjAddr: 0x87DC, symBinAddr: 0x5D504, symSize: 0x23C }
  - { offsetInCU: 0x37703, offset: 0x2CCE33, size: 0x8, addend: 0x0, symName: __ZN8GGUFMeta3GKVINSt3__112basic_stringIcNS1_11char_traitsIcEENS1_9allocatorIcEEEEE6get_kvEPK12gguf_contexti, symObjAddr: 0x865C, symBinAddr: 0x5D384, symSize: 0x180 }
  - { offsetInCU: 0x37CDA, offset: 0x2CD40A, size: 0x8, addend: 0x0, symName: __ZN18llama_model_loader7get_keyI18llama_pooling_typeEEb6llm_kvRT_b, symObjAddr: 0xE98, symBinAddr: 0x5635C, symSize: 0x98 }
  - { offsetInCU: 0x37FF7, offset: 0x2CD727, size: 0x8, addend: 0x0, symName: __ZN18llama_model_loader14get_key_or_arrINSt3__15arrayIiLm4EEEEEb6llm_kvRT_jb, symObjAddr: 0xF30, symBinAddr: 0x563F4, symSize: 0xA8 }
  - { offsetInCU: 0x382CF, offset: 0x2CD9FF, size: 0x8, addend: 0x0, symName: __ZN18llama_model_loader14get_key_or_arrIiLm4EEEbRKNSt3__112basic_stringIcNS1_11char_traitsIcEENS1_9allocatorIcEEEERNS1_5arrayIT_XT0_EEEjb, symObjAddr: 0xFD8, symBinAddr: 0x5649C, symSize: 0x328 }
  - { offsetInCU: 0x3889E, offset: 0x2CDFCE, size: 0x8, addend: 0x0, symName: __ZN18llama_model_loader7get_arrIiLm4EEEbRKNSt3__112basic_stringIcNS1_11char_traitsIcEENS1_9allocatorIcEEEERNS1_5arrayIT_XT0_EEEb, symObjAddr: 0x8A18, symBinAddr: 0x5D740, symSize: 0x2C8 }
  - { offsetInCU: 0x38ED7, offset: 0x2CE607, size: 0x8, addend: 0x0, symName: __ZN18llama_model_loader7get_keyIiEEbRKNSt3__112basic_stringIcNS1_11char_traitsIcEENS1_9allocatorIcEEEERT_b, symObjAddr: 0x3CC8, symBinAddr: 0x59044, symSize: 0x15C }
  - { offsetInCU: 0x392CE, offset: 0x2CE9FE, size: 0x8, addend: 0x0, symName: __ZN18llama_model_loader14get_key_or_arrINSt3__15arrayIjLm512EEEEEb6llm_kvRT_jb, symObjAddr: 0x1300, symBinAddr: 0x567C4, symSize: 0xA8 }
  - { offsetInCU: 0x395A6, offset: 0x2CECD6, size: 0x8, addend: 0x0, symName: __ZN18llama_model_loader14get_key_or_arrIjLm512EEEbRKNSt3__112basic_stringIcNS1_11char_traitsIcEENS1_9allocatorIcEEEERNS1_5arrayIT_XT0_EEEjb, symObjAddr: 0x13A8, symBinAddr: 0x5686C, symSize: 0x2CC }
  - { offsetInCU: 0x39A8E, offset: 0x2CF1BE, size: 0x8, addend: 0x0, symName: __ZN18llama_model_loader7get_arrIjLm512EEEbRKNSt3__112basic_stringIcNS1_11char_traitsIcEENS1_9allocatorIcEEEERNS1_5arrayIT_XT0_EEEb, symObjAddr: 0x8CE0, symBinAddr: 0x5DA08, symSize: 0x2C8 }
  - { offsetInCU: 0x3C462, offset: 0x2D1B92, size: 0x8, addend: 0x0, symName: __ZN18llama_model_loaderC2ERKNSt3__112basic_stringIcNS0_11char_traitsIcEENS0_9allocatorIcEEEERNS0_6vectorIS6_NS4_IS6_EEEEbbPK23llama_model_kv_overridePK32llama_model_tensor_buft_override, symObjAddr: 0x1674, symBinAddr: 0x56B38, symSize: 0x23B0 }
  - { offsetInCU: 0x458CB, offset: 0x2DAFFB, size: 0x8, addend: 0x0, symName: __ZNSt3__112__hash_tableINS_17__hash_value_typeINS_12basic_stringIcNS_11char_traitsIcEENS_9allocatorIcEEEE23llama_model_kv_overrideEENS_22__unordered_map_hasherIS7_S9_NS_4hashIS7_EENS_8equal_toIS7_EELb1EEENS_21__unordered_map_equalIS7_S9_SE_SC_Lb1EEENS5_IS9_EEE25__emplace_unique_key_argsIS7_JNS_4pairIKS7_S8_EEEEENSL_INS_15__hash_iteratorIPNS_11__hash_nodeIS9_PvEEEEbEERKT_DpOT0_, symObjAddr: 0x9008, symBinAddr: 0x5DD30, symSize: 0x498 }
  - { offsetInCU: 0x46413, offset: 0x2DBB43, size: 0x8, addend: 0x0, symName: __ZNSt3__16vectorINS_10unique_ptrI10llama_fileNS_14default_deleteIS2_EEEENS_9allocatorIS5_EEE24__emplace_back_slow_pathIJPS2_EEEvDpOT_, symObjAddr: 0x9698, symBinAddr: 0x5E3C0, symSize: 0x128 }
  - { offsetInCU: 0x46A39, offset: 0x2DC169, size: 0x8, addend: 0x0, symName: __ZNKSt3__16vectorINS_10unique_ptrI10llama_fileNS_14default_deleteIS2_EEEENS_9allocatorIS5_EEE20__throw_length_errorB8ue170006Ev, symObjAddr: 0x97C0, symBinAddr: 0x5E4E8, symSize: 0x14 }
  - { offsetInCU: 0x46E6D, offset: 0x2DC59D, size: 0x8, addend: 0x0, symName: __ZNK18llama_model_loader20weight_name_comparerclERKNSt3__112basic_stringIcNS1_11char_traitsIcEENS1_9allocatorIcEEEES9_, symObjAddr: 0x9910, symBinAddr: 0x5E4FC, symSize: 0xF4 }
  - { offsetInCU: 0x470F0, offset: 0x2DC820, size: 0x8, addend: 0x0, symName: __ZN18llama_model_loader19llama_tensor_weightC2EPK10llama_filetPK12gguf_contextP11ggml_tensor, symObjAddr: 0x6DBC, symBinAddr: 0x5C0BC, symSize: 0x1B8 }
  - { offsetInCU: 0x472F4, offset: 0x2DCA24, size: 0x8, addend: 0x0, symName: __ZNSt3__16__treeINS_12__value_typeINS_12basic_stringIcNS_11char_traitsIcEENS_9allocatorIcEEEEN18llama_model_loader19llama_tensor_weightEEENS_19__map_value_compareIS7_SA_NS8_20weight_name_comparerELb1EEENS5_ISA_EEE25__emplace_unique_key_argsIS7_JRS7_S9_EEENS_4pairINS_15__tree_iteratorISA_PNS_11__tree_nodeISA_PvEElEEbEERKT_DpOT0_, symObjAddr: 0x9A04, symBinAddr: 0x5E5F0, symSize: 0x194 }
  - { offsetInCU: 0x47AB2, offset: 0x2DD1E2, size: 0x8, addend: 0x0, symName: __ZN8GGUFMeta3GKVItE17validate_overrideE28llama_model_kv_override_typePK23llama_model_kv_override, symObjAddr: 0x9E4C, symBinAddr: 0x5E884, symSize: 0x23C }
  - { offsetInCU: 0x47CB8, offset: 0x2DD3E8, size: 0x8, addend: 0x0, symName: __ZN8GGUFMeta3GKVItE6get_kvEPK12gguf_contexti, symObjAddr: 0x9D4C, symBinAddr: 0x5E784, symSize: 0x100 }
  - { offsetInCU: 0x47ECD, offset: 0x2DD5FD, size: 0x8, addend: 0x0, symName: __ZN18llama_model_loader7get_keyItEEbRKNSt3__112basic_stringIcNS1_11char_traitsIcEENS1_9allocatorIcEEEERT_b, symObjAddr: 0x3AC4, symBinAddr: 0x58EE8, symSize: 0x15C }
  - { offsetInCU: 0x482E7, offset: 0x2DDA17, size: 0x8, addend: 0x0, symName: __ZNSt3__16vectorINS_12basic_stringIcNS_11char_traitsIcEENS_9allocatorIcEEEENS4_IS6_EEE21__push_back_slow_pathIS6_EEvOT_, symObjAddr: 0x7038, symBinAddr: 0x5C274, symSize: 0x16C }
  - { offsetInCU: 0x48A37, offset: 0x2DE167, size: 0x8, addend: 0x0, symName: __ZNSt3__16__treeINS_12__value_typeI9ggml_typejEENS_19__map_value_compareIS2_S3_NS_4lessIS2_EELb1EEENS_9allocatorIS3_EEE7destroyEPNS_11__tree_nodeIS3_PvEE, symObjAddr: 0xA3C4, symBinAddr: 0x5EDFC, symSize: 0x40 }
  - { offsetInCU: 0x48F0F, offset: 0x2DE63F, size: 0x8, addend: 0x0, symName: __ZNSt3__113unordered_mapINS_12basic_stringIcNS_11char_traitsIcEENS_9allocatorIcEEEE23llama_model_kv_overrideNS_4hashIS6_EENS_8equal_toIS6_EENS4_INS_4pairIKS6_S7_EEEEED1B8ue170006Ev, symObjAddr: 0x3E94, symBinAddr: 0x591A0, symSize: 0x68 }
  - { offsetInCU: 0x4935D, offset: 0x2DEA8D, size: 0x8, addend: 0x0, symName: __ZNSt3__16__treeINS_12__value_typeINS_12basic_stringIcNS_11char_traitsIcEENS_9allocatorIcEEEEN18llama_model_loader19llama_tensor_weightEEENS_19__map_value_compareIS7_SA_NS8_20weight_name_comparerELb1EEENS5_ISA_EEE7destroyEPNS_11__tree_nodeISA_PvEE, symObjAddr: 0x8FA8, symBinAddr: 0x5DCD0, symSize: 0x60 }
  - { offsetInCU: 0x495C5, offset: 0x2DECF5, size: 0x8, addend: 0x0, symName: __ZNSt3__16vectorINS_10unique_ptrI10llama_mmapNS_14default_deleteIS2_EEEENS_9allocatorIS5_EEED1B8ue170006Ev, symObjAddr: 0x3EFC, symBinAddr: 0x59208, symSize: 0x70 }
  - { offsetInCU: 0x497F6, offset: 0x2DEF26, size: 0x8, addend: 0x0, symName: __ZNSt3__16vectorINS_10unique_ptrI10llama_fileNS_14default_deleteIS2_EEEENS_9allocatorIS5_EEED1B8ue170006Ev, symObjAddr: 0x3F6C, symBinAddr: 0x59278, symSize: 0x70 }
  - { offsetInCU: 0x49C5B, offset: 0x2DF38B, size: 0x8, addend: 0x0, symName: __ZN18llama_model_loader7get_keyItEEbRKNSt3__112basic_stringIcNS1_11char_traitsIcEENS1_9allocatorIcEEEERT_b, symObjAddr: 0x3AC4, symBinAddr: 0x58EE8, symSize: 0x15C }
  - { offsetInCU: 0x49D68, offset: 0x2DF498, size: 0x8, addend: 0x0, symName: __ZN8GGUFMeta3GKVIiE17validate_overrideE28llama_model_kv_override_typePK23llama_model_kv_override, symObjAddr: 0xA188, symBinAddr: 0x5EBC0, symSize: 0x23C }
  - { offsetInCU: 0x49F6E, offset: 0x2DF69E, size: 0x8, addend: 0x0, symName: __ZN8GGUFMeta3GKVIiE6get_kvEPK12gguf_contexti, symObjAddr: 0xA088, symBinAddr: 0x5EAC0, symSize: 0x100 }
  - { offsetInCU: 0x4A86E, offset: 0x2DFF9E, size: 0x8, addend: 0x0, symName: __ZN18llama_model_loaderC1ERKNSt3__112basic_stringIcNS0_11char_traitsIcEENS0_9allocatorIcEEEERNS0_6vectorIS6_NS4_IS6_EEEEbbPK23llama_model_kv_overridePK32llama_model_tensor_buft_override, symObjAddr: 0x3FDC, symBinAddr: 0x592E8, symSize: 0x4 }
  - { offsetInCU: 0x4A901, offset: 0x2E0031, size: 0x8, addend: 0x0, symName: __ZN18llama_model_loaderC1ERKNSt3__112basic_stringIcNS0_11char_traitsIcEENS0_9allocatorIcEEEERNS0_6vectorIS6_NS4_IS6_EEEEbbPK23llama_model_kv_overridePK32llama_model_tensor_buft_override, symObjAddr: 0x3FDC, symBinAddr: 0x592E8, symSize: 0x4 }
  - { offsetInCU: 0x4A93E, offset: 0x2E006E, size: 0x8, addend: 0x0, symName: __ZNK18llama_model_loader13get_arch_nameEv, symObjAddr: 0x3FE0, symBinAddr: 0x592EC, symSize: 0xA4 }
  - { offsetInCU: 0x4ACE3, offset: 0x2E0413, size: 0x8, addend: 0x0, symName: __ZNK18llama_model_loader8get_archEv, symObjAddr: 0x4084, symBinAddr: 0x59390, symSize: 0x8 }
  - { offsetInCU: 0x4ACF4, offset: 0x2E0424, size: 0x8, addend: 0x0, symName: __ZNK18llama_model_loader8get_archEv, symObjAddr: 0x4084, symBinAddr: 0x59390, symSize: 0x8 }
  - { offsetInCU: 0x4ADD9, offset: 0x2E0509, size: 0x8, addend: 0x0, symName: __ZNK18llama_model_loader10get_weightEPKc, symObjAddr: 0x408C, symBinAddr: 0x59398, symSize: 0x14C }
  - { offsetInCU: 0x4B52E, offset: 0x2E0C5E, size: 0x8, addend: 0x0, symName: __ZNK18llama_model_loader14require_weightEPKc, symObjAddr: 0x41D8, symBinAddr: 0x594E4, symSize: 0xC4 }
  - { offsetInCU: 0x4B6CF, offset: 0x2E0DFF, size: 0x8, addend: 0x0, symName: __ZNK18llama_model_loader15get_tensor_metaEPKc, symObjAddr: 0x429C, symBinAddr: 0x595A8, symSize: 0x1C }
  - { offsetInCU: 0x4B755, offset: 0x2E0E85, size: 0x8, addend: 0x0, symName: __ZNK18llama_model_loader19require_tensor_metaERKNSt3__112basic_stringIcNS0_11char_traitsIcEENS0_9allocatorIcEEEE, symObjAddr: 0x42B8, symBinAddr: 0x595C4, symSize: 0xEC }
  - { offsetInCU: 0x4BA08, offset: 0x2E1138, size: 0x8, addend: 0x0, symName: __ZNK18llama_model_loader17check_tensor_dimsERKNSt3__112basic_stringIcNS0_11char_traitsIcEENS0_9allocatorIcEEEERKNS0_6vectorIxNS4_IxEEEEb, symObjAddr: 0x43A4, symBinAddr: 0x596B0, symSize: 0x2C8 }
  - { offsetInCU: 0x4C405, offset: 0x2E1B35, size: 0x8, addend: 0x0, symName: __ZN18llama_model_loader13create_tensorEP12ggml_contextRKNSt3__112basic_stringIcNS2_11char_traitsIcEENS2_9allocatorIcEEEERKSt16initializer_listIxEi, symObjAddr: 0x466C, symBinAddr: 0x59978, symSize: 0x13C }
  - { offsetInCU: 0x4C9CB, offset: 0x2E20FB, size: 0x8, addend: 0x0, symName: __ZNKSt3__16vectorINS_10unique_ptrI10llama_mmapNS_14default_deleteIS2_EEEENS_9allocatorIS5_EEE20__throw_length_errorB8ue170006Ev, symObjAddr: 0xA48C, symBinAddr: 0x5EE3C, symSize: 0x14 }
  - { offsetInCU: 0x4C9D6, offset: 0x2E2106, size: 0x8, addend: 0x0, symName: __ZN18llama_model_loader21create_tensor_as_viewEP12ggml_contextP11ggml_tensorRKNSt3__112basic_stringIcNS4_11char_traitsIcEENS4_9allocatorIcEEEERKSt16initializer_listIxEmb, symObjAddr: 0x47A8, symBinAddr: 0x59AB4, symSize: 0x25C }
  - { offsetInCU: 0x4D1E6, offset: 0x2E2916, size: 0x8, addend: 0x0, symName: __ZNK18llama_model_loader20done_getting_tensorsEv, symObjAddr: 0x4A04, symBinAddr: 0x59D10, symSize: 0xD0 }
  - { offsetInCU: 0x4E06A, offset: 0x2E379A, size: 0x8, addend: 0x0, symName: __ZN18llama_model_loader13init_mappingsEbPNSt3__16vectorINS0_10unique_ptrI11llama_mlockNS0_14default_deleteIS3_EEEENS0_9allocatorIS6_EEEE, symObjAddr: 0x4AD4, symBinAddr: 0x59DE0, symSize: 0x408 }
  - { offsetInCU: 0x4F300, offset: 0x2E4A30, size: 0x8, addend: 0x0, symName: __ZNSt3__16vectorINS_10unique_ptrI10llama_mmapNS_14default_deleteIS2_EEEENS_9allocatorIS5_EEE7reserveEm, symObjAddr: 0x4EDC, symBinAddr: 0x5A1E8, symSize: 0xE4 }
  - { offsetInCU: 0x4F7CC, offset: 0x2E4EFC, size: 0x8, addend: 0x0, symName: __ZNSt3__110unique_ptrI11llama_mlockNS_14default_deleteIS1_EEED1B8ue170006Ev, symObjAddr: 0x4FC0, symBinAddr: 0x5A2CC, symSize: 0x34 }
  - { offsetInCU: 0x4F83F, offset: 0x2E4F6F, size: 0x8, addend: 0x0, symName: __ZNSt3__16vectorINS_10unique_ptrI11llama_mlockNS_14default_deleteIS2_EEEENS_9allocatorIS5_EEE24__emplace_back_slow_pathIJS5_EEEvDpOT_, symObjAddr: 0xA4B4, symBinAddr: 0x5EE50, symSize: 0x124 }
  - { offsetInCU: 0x4FE8B, offset: 0x2E55BB, size: 0x8, addend: 0x0, symName: __ZNKSt3__16vectorINS_10unique_ptrI11llama_mlockNS_14default_deleteIS2_EEEENS_9allocatorIS5_EEE20__throw_length_errorB8ue170006Ev, symObjAddr: 0xA5D8, symBinAddr: 0x5EF74, symSize: 0x14 }
  - { offsetInCU: 0x4FEA1, offset: 0x2E55D1, size: 0x8, addend: 0x0, symName: __ZNSt3__16vectorINS_10unique_ptrI10llama_mmapNS_14default_deleteIS2_EEEENS_9allocatorIS5_EEE24__emplace_back_slow_pathIJS5_EEEvDpOT_, symObjAddr: 0xA5EC, symBinAddr: 0x5EF88, symSize: 0x124 }
  - { offsetInCU: 0x504ED, offset: 0x2E5C1D, size: 0x8, addend: 0x0, symName: __ZNKSt3__16vectorINS_10unique_ptrI10llama_mmapNS_14default_deleteIS2_EEEENS_9allocatorIS5_EEE20__throw_out_of_rangeB8ue170006Ev, symObjAddr: 0xA710, symBinAddr: 0x5F0AC, symSize: 0x14 }
  - { offsetInCU: 0x5051B, offset: 0x2E5C4B, size: 0x8, addend: 0x0, symName: __ZNSt3__16vectorINS_10unique_ptrI11llama_mlockNS_14default_deleteIS2_EEEENS_9allocatorIS5_EEE24__emplace_back_slow_pathIJS5_EEEvDpOT_, symObjAddr: 0xA4B4, symBinAddr: 0x5EE50, symSize: 0x124 }
  - { offsetInCU: 0x50526, offset: 0x2E5C56, size: 0x8, addend: 0x0, symName: __ZNSt3__110unique_ptrI11llama_mlockNS_14default_deleteIS1_EEED1B8ue170006Ev, symObjAddr: 0x4FC0, symBinAddr: 0x5A2CC, symSize: 0x34 }
  - { offsetInCU: 0x505B6, offset: 0x2E5CE6, size: 0x8, addend: 0x0, symName: __ZNSt3__110unique_ptrI10llama_mmapNS_14default_deleteIS1_EEED1B8ue170006Ev, symObjAddr: 0x4FF4, symBinAddr: 0x5A300, symSize: 0x34 }
  - { offsetInCU: 0x507E3, offset: 0x2E5F13, size: 0x8, addend: 0x0, symName: __ZNKSt3__16vectorINS_10unique_ptrI10llama_mmapNS_14default_deleteIS2_EEEENS_9allocatorIS5_EEE20__throw_length_errorB8ue170006Ev, symObjAddr: 0xA48C, symBinAddr: 0x5EE3C, symSize: 0x14 }
  - { offsetInCU: 0x5089F, offset: 0x2E5FCF, size: 0x8, addend: 0x0, symName: __ZNK18llama_model_loader17get_mapping_rangeEPmS0_PPviP12ggml_context, symObjAddr: 0x5028, symBinAddr: 0x5A334, symSize: 0x138 }
  - { offsetInCU: 0x50B2C, offset: 0x2E625C, size: 0x8, addend: 0x0, symName: __ZNK18llama_model_loader13load_data_forEP11ggml_tensor, symObjAddr: 0x5160, symBinAddr: 0x5A46C, symSize: 0x214 }
  - { offsetInCU: 0x50B37, offset: 0x2E6267, size: 0x8, addend: 0x0, symName: __ZNKSt3__16vectorINS_10unique_ptrI10llama_mmapNS_14default_deleteIS2_EEEENS_9allocatorIS5_EEE20__throw_out_of_rangeB8ue170006Ev, symObjAddr: 0xA710, symBinAddr: 0x5F0AC, symSize: 0x14 }
  - { offsetInCU: 0x50B61, offset: 0x2E6291, size: 0x8, addend: 0x0, symName: __ZNKSt3__16vectorINS_10unique_ptrI10llama_fileNS_14default_deleteIS2_EEEENS_9allocatorIS5_EEE20__throw_out_of_rangeB8ue170006Ev, symObjAddr: 0xA724, symBinAddr: 0x5F0C0, symSize: 0x14 }
  - { offsetInCU: 0x50BA6, offset: 0x2E62D6, size: 0x8, addend: 0x0, symName: __ZNK18llama_model_loader13load_data_forEP11ggml_tensor, symObjAddr: 0x5160, symBinAddr: 0x5A46C, symSize: 0x214 }
  - { offsetInCU: 0x53C00, offset: 0x2E9330, size: 0x8, addend: 0x0, symName: __ZNSt3__16vectorINS_6futureINS_4pairIP11ggml_tensorbEEEENS_9allocatorIS6_EEE24__emplace_back_slow_pathIJS6_EEEvDpOT_, symObjAddr: 0xAA4C, symBinAddr: 0x5F3E8, symSize: 0x128 }
  - { offsetInCU: 0x54193, offset: 0x2E98C3, size: 0x8, addend: 0x0, symName: __ZNKSt3__16vectorINS_6futureINS_4pairIP11ggml_tensorbEEEENS_9allocatorIS6_EEE20__throw_length_errorB8ue170006Ev, symObjAddr: 0xAB74, symBinAddr: 0x5F510, symSize: 0x14 }
  - { offsetInCU: 0x54238, offset: 0x2E9968, size: 0x8, addend: 0x0, symName: __ZNSt3__113__assoc_stateINS_4pairIP11ggml_tensorbEEE4moveEv, symObjAddr: 0xAE68, symBinAddr: 0x5F804, symSize: 0xC4 }
  - { offsetInCU: 0x544C4, offset: 0x2E9BF4, size: 0x8, addend: 0x0, symName: __ZNKSt3__16vectorINS_10unique_ptrI10llama_fileNS_14default_deleteIS2_EEEENS_9allocatorIS5_EEE20__throw_out_of_rangeB8ue170006Ev, symObjAddr: 0xA724, symBinAddr: 0x5F0C0, symSize: 0x14 }
  - { offsetInCU: 0x544EE, offset: 0x2E9C1E, size: 0x8, addend: 0x0, symName: '__ZNSt3__119__async_assoc_stateINS_4pairIP11ggml_tensorbEENS_12__async_funcIZN18llama_model_loader13load_all_dataEP12ggml_contextRNS_13unordered_mapIjP19ggml_backend_bufferNS_4hashIjEENS_8equal_toIjEENS_9allocatorINS1_IKjSB_EEEEEEPNS_6vectorINS_10unique_ptrI11llama_mlockNS_14default_deleteISO_EEEENSG_ISR_EEEEPFbfPvESV_E3$_1JEEEED1Ev', symObjAddr: 0xA738, symBinAddr: 0x5F0D4, symSize: 0x4C }
  - { offsetInCU: 0x544F9, offset: 0x2E9C29, size: 0x8, addend: 0x0, symName: __ZNKSt3__16vectorINS_4pairImmEENS_9allocatorIS2_EEE20__throw_out_of_rangeB8ue170006Ev, symObjAddr: 0xAF2C, symBinAddr: 0x5F8C8, symSize: 0x14 }
  - { offsetInCU: 0x5452E, offset: 0x2E9C5E, size: 0x8, addend: 0x0, symName: __ZNKSt3__16vectorINS_10unique_ptrI11llama_mlockNS_14default_deleteIS2_EEEENS_9allocatorIS5_EEE20__throw_out_of_rangeB8ue170006Ev, symObjAddr: 0xAB88, symBinAddr: 0x5F524, symSize: 0x14 }
  - { offsetInCU: 0x54558, offset: 0x2E9C88, size: 0x8, addend: 0x0, symName: '__ZNSt3__119__async_assoc_stateINS_4pairIP11ggml_tensorbEENS_12__async_funcIZN18llama_model_loader13load_all_dataEP12ggml_contextRNS_13unordered_mapIjP19ggml_backend_bufferNS_4hashIjEENS_8equal_toIjEENS_9allocatorINS1_IKjSB_EEEEEEPNS_6vectorINS_10unique_ptrI11llama_mlockNS_14default_deleteISO_EEEENSG_ISR_EEEEPFbfPvESV_E3$_2JEEEED1Ev', symObjAddr: 0xAB9C, symBinAddr: 0x5F538, symSize: 0x4C }
  - { offsetInCU: 0x54563, offset: 0x2E9C93, size: 0x8, addend: 0x0, symName: __ZNKSt3__16vectorI7no_initIhENS_9allocatorIS2_EEE20__throw_length_errorB8ue170006Ev, symObjAddr: 0xAE54, symBinAddr: 0x5F7F0, symSize: 0x14 }
  - { offsetInCU: 0x5458D, offset: 0x2E9CBD, size: 0x8, addend: 0x0, symName: __ZNSt3__113__assoc_stateINS_4pairIP11ggml_tensorbEEE4moveEv, symObjAddr: 0xAE68, symBinAddr: 0x5F804, symSize: 0xC4 }
  - { offsetInCU: 0x54598, offset: 0x2E9CC8, size: 0x8, addend: 0x0, symName: __ZNKSt3__16vectorIP19ggml_backend_bufferNS_9allocatorIS2_EEE20__throw_length_errorB8ue170006Ev, symObjAddr: 0x721C, symBinAddr: 0x5C3E0, symSize: 0x14 }
  - { offsetInCU: 0x545C2, offset: 0x2E9CF2, size: 0x8, addend: 0x0, symName: __ZNKSt3__16vectorIPvNS_9allocatorIS1_EEE20__throw_length_errorB8ue170006Ev, symObjAddr: 0x7230, symBinAddr: 0x5C3F4, symSize: 0x14 }
  - { offsetInCU: 0x545CD, offset: 0x2E9CFD, size: 0x8, addend: 0x0, symName: __ZNKSt3__16vectorIPvNS_9allocatorIS1_EEE20__throw_length_errorB8ue170006Ev, symObjAddr: 0x7230, symBinAddr: 0x5C3F4, symSize: 0x14 }
  - { offsetInCU: 0x545F7, offset: 0x2E9D27, size: 0x8, addend: 0x0, symName: __ZNKSt3__16vectorIP18ggml_backend_eventNS_9allocatorIS2_EEE20__throw_length_errorB8ue170006Ev, symObjAddr: 0x7244, symBinAddr: 0x5C408, symSize: 0x14 }
  - { offsetInCU: 0x54602, offset: 0x2E9D32, size: 0x8, addend: 0x0, symName: __ZNKSt3__16vectorIP18ggml_backend_eventNS_9allocatorIS2_EEE20__throw_length_errorB8ue170006Ev, symObjAddr: 0x7244, symBinAddr: 0x5C408, symSize: 0x14 }
  - { offsetInCU: 0x5462C, offset: 0x2E9D5C, size: 0x8, addend: 0x0, symName: __ZN8GGUFMeta3GKVINS_9ArrayInfoEE6get_kvEPK12gguf_contexti, symObjAddr: 0x7258, symBinAddr: 0x5C41C, symSize: 0x150 }
  - { offsetInCU: 0x54637, offset: 0x2E9D67, size: 0x8, addend: 0x0, symName: __ZNSt3__16vectorINS_6futureINS_4pairIP11ggml_tensorbEEEENS_9allocatorIS6_EEED1B8ue170006Ev, symObjAddr: 0x6974, symBinAddr: 0x5BC80, symSize: 0x88 }
  - { offsetInCU: 0x54852, offset: 0x2E9F82, size: 0x8, addend: 0x0, symName: __ZNK18llama_model_loader10ftype_nameEv, symObjAddr: 0x69FC, symBinAddr: 0x5BD08, symSize: 0xC }
  - { offsetInCU: 0x54892, offset: 0x2E9FC2, size: 0x8, addend: 0x0, symName: __ZL22llama_model_ftype_name11llama_ftype, symObjAddr: 0x6A08, symBinAddr: 0x5BD14, symSize: 0x258 }
  - { offsetInCU: 0x54BB3, offset: 0x2EA2E3, size: 0x8, addend: 0x0, symName: __ZNK18llama_model_loader10print_infoEv, symObjAddr: 0x6C60, symBinAddr: 0x5BF6C, symSize: 0x150 }
  - { offsetInCU: 0x551E6, offset: 0x2EA916, size: 0x8, addend: 0x0, symName: __ZNKSt3__16vectorIP19ggml_backend_bufferNS_9allocatorIS2_EEE20__throw_length_errorB8ue170006Ev, symObjAddr: 0x721C, symBinAddr: 0x5C3E0, symSize: 0x14 }
  - { offsetInCU: 0x5638D, offset: 0x2EBABD, size: 0x8, addend: 0x0, symName: __ZNSt3__112__hash_tableINS_17__hash_value_typeINS_12basic_stringIcNS_11char_traitsIcEENS_9allocatorIcEEEE23llama_model_kv_overrideEENS_22__unordered_map_hasherIS7_S9_NS_4hashIS7_EENS_8equal_toIS7_EELb1EEENS_21__unordered_map_equalIS7_S9_SE_SC_Lb1EEENS5_IS9_EEE11__do_rehashILb1EEEvm, symObjAddr: 0x94EC, symBinAddr: 0x5E214, symSize: 0x1AC }
  - { offsetInCU: 0x567ED, offset: 0x2EBF1D, size: 0x8, addend: 0x0, symName: __ZNSt3__16vectorINS_10unique_ptrI10llama_fileNS_14default_deleteIS2_EEEENS_9allocatorIS5_EEE24__emplace_back_slow_pathIJPS2_EEEvDpOT_, symObjAddr: 0x9698, symBinAddr: 0x5E3C0, symSize: 0x128 }
  - { offsetInCU: 0x56802, offset: 0x2EBF32, size: 0x8, addend: 0x0, symName: __ZNSt3__110unique_ptrINS_11__hash_nodeINS_17__hash_value_typeINS_12basic_stringIcNS_11char_traitsIcEENS_9allocatorIcEEEE23llama_model_kv_overrideEEPvEENS_22__hash_node_destructorINS6_ISC_EEEEED1B8ue170006Ev, symObjAddr: 0x94A0, symBinAddr: 0x5E1C8, symSize: 0x4C }
  - { offsetInCU: 0x56F2D, offset: 0x2EC65D, size: 0x8, addend: 0x0, symName: __ZNKSt3__16vectorINS_10unique_ptrI10llama_fileNS_14default_deleteIS2_EEEENS_9allocatorIS5_EEE20__throw_length_errorB8ue170006Ev, symObjAddr: 0x97C0, symBinAddr: 0x5E4E8, symSize: 0x14 }
  - { offsetInCU: 0x57302, offset: 0x2ECA32, size: 0x8, addend: 0x0, symName: __ZNK18llama_model_loader20weight_name_comparerclERKNSt3__112basic_stringIcNS1_11char_traitsIcEENS1_9allocatorIcEEEES9_, symObjAddr: 0x9910, symBinAddr: 0x5E4FC, symSize: 0xF4 }
  - { offsetInCU: 0x57691, offset: 0x2ECDC1, size: 0x8, addend: 0x0, symName: __ZNKSt3__16vectorINS_10unique_ptrI11llama_mlockNS_14default_deleteIS2_EEEENS_9allocatorIS5_EEE20__throw_length_errorB8ue170006Ev, symObjAddr: 0xA5D8, symBinAddr: 0x5EF74, symSize: 0x14 }
  - { offsetInCU: 0x576BB, offset: 0x2ECDEB, size: 0x8, addend: 0x0, symName: __ZNSt3__16vectorINS_10unique_ptrI10llama_mmapNS_14default_deleteIS2_EEEENS_9allocatorIS5_EEE24__emplace_back_slow_pathIJS5_EEEvDpOT_, symObjAddr: 0xA5EC, symBinAddr: 0x5EF88, symSize: 0x124 }
  - { offsetInCU: 0x5775E, offset: 0x2ECE8E, size: 0x8, addend: 0x0, symName: '__ZNSt3__119__async_assoc_stateINS_4pairIP11ggml_tensorbEENS_12__async_funcIZN18llama_model_loader13load_all_dataEP12ggml_contextRNS_13unordered_mapIjP19ggml_backend_bufferNS_4hashIjEENS_8equal_toIjEENS_9allocatorINS1_IKjSB_EEEEEEPNS_6vectorINS_10unique_ptrI11llama_mlockNS_14default_deleteISO_EEEENSG_ISR_EEEEPFbfPvESV_E3$_1JEEEED1Ev', symObjAddr: 0xA738, symBinAddr: 0x5F0D4, symSize: 0x4C }
  - { offsetInCU: 0x577FA, offset: 0x2ECF2A, size: 0x8, addend: 0x0, symName: '__ZNSt3__119__async_assoc_stateINS_4pairIP11ggml_tensorbEENS_12__async_funcIZN18llama_model_loader13load_all_dataEP12ggml_contextRNS_13unordered_mapIjP19ggml_backend_bufferNS_4hashIjEENS_8equal_toIjEENS_9allocatorINS1_IKjSB_EEEEEEPNS_6vectorINS_10unique_ptrI11llama_mlockNS_14default_deleteISO_EEEENSG_ISR_EEEEPFbfPvESV_E3$_1JEEEED0Ev', symObjAddr: 0xA784, symBinAddr: 0x5F120, symSize: 0x50 }
  - { offsetInCU: 0x578B4, offset: 0x2ECFE4, size: 0x8, addend: 0x0, symName: '__ZNSt3__119__async_assoc_stateINS_4pairIP11ggml_tensorbEENS_12__async_funcIZN18llama_model_loader13load_all_dataEP12ggml_contextRNS_13unordered_mapIjP19ggml_backend_bufferNS_4hashIjEENS_8equal_toIjEENS_9allocatorINS1_IKjSB_EEEEEEPNS_6vectorINS_10unique_ptrI11llama_mlockNS_14default_deleteISO_EEEENSG_ISR_EEEEPFbfPvESV_E3$_1JEEEE16__on_zero_sharedEv', symObjAddr: 0xA7D4, symBinAddr: 0x5F170, symSize: 0x30 }
  - { offsetInCU: 0x57B26, offset: 0x2ED256, size: 0x8, addend: 0x0, symName: '__ZNSt3__119__async_assoc_stateINS_4pairIP11ggml_tensorbEENS_12__async_funcIZN18llama_model_loader13load_all_dataEP12ggml_contextRNS_13unordered_mapIjP19ggml_backend_bufferNS_4hashIjEENS_8equal_toIjEENS_9allocatorINS1_IKjSB_EEEEEEPNS_6vectorINS_10unique_ptrI11llama_mlockNS_14default_deleteISO_EEEENSG_ISR_EEEEPFbfPvESV_E3$_1JEEEE9__executeEv', symObjAddr: 0xA804, symBinAddr: 0x5F1A0, symSize: 0x118 }
  - { offsetInCU: 0x57F51, offset: 0x2ED681, size: 0x8, addend: 0x0, symName: '__ZNSt3__110unique_ptrINS_5tupleIJNS0_INS_15__thread_structENS_14default_deleteIS2_EEEEMNS_19__async_assoc_stateINS_4pairIP11ggml_tensorbEENS_12__async_funcIZN18llama_model_loader13load_all_dataEP12ggml_contextRNS_13unordered_mapIjP19ggml_backend_bufferNS_4hashIjEENS_8equal_toIjEENS_9allocatorINS7_IKjSH_EEEEEEPNS_6vectorINS0_I11llama_mlockNS3_IST_EEEENSM_ISV_EEEEPFbfPvESZ_E3$_1JEEEEEFvvEPS14_EEENS3_IS18_EEED1B8ue170006Ev', symObjAddr: 0xAA04, symBinAddr: 0x5F3A0, symSize: 0x48 }
  - { offsetInCU: 0x582D4, offset: 0x2EDA04, size: 0x8, addend: 0x0, symName: __ZNKSt3__16vectorINS_6futureINS_4pairIP11ggml_tensorbEEEENS_9allocatorIS6_EEE20__throw_length_errorB8ue170006Ev, symObjAddr: 0xAB74, symBinAddr: 0x5F510, symSize: 0x14 }
  - { offsetInCU: 0x582FE, offset: 0x2EDA2E, size: 0x8, addend: 0x0, symName: __ZNKSt3__16vectorINS_10unique_ptrI11llama_mlockNS_14default_deleteIS2_EEEENS_9allocatorIS5_EEE20__throw_out_of_rangeB8ue170006Ev, symObjAddr: 0xAB88, symBinAddr: 0x5F524, symSize: 0x14 }
  - { offsetInCU: 0x58326, offset: 0x2EDA56, size: 0x8, addend: 0x0, symName: '__ZNSt3__119__async_assoc_stateINS_4pairIP11ggml_tensorbEENS_12__async_funcIZN18llama_model_loader13load_all_dataEP12ggml_contextRNS_13unordered_mapIjP19ggml_backend_bufferNS_4hashIjEENS_8equal_toIjEENS_9allocatorINS1_IKjSB_EEEEEEPNS_6vectorINS_10unique_ptrI11llama_mlockNS_14default_deleteISO_EEEENSG_ISR_EEEEPFbfPvESV_E3$_2JEEEED1Ev', symObjAddr: 0xAB9C, symBinAddr: 0x5F538, symSize: 0x4C }
  - { offsetInCU: 0x583C2, offset: 0x2EDAF2, size: 0x8, addend: 0x0, symName: '__ZNSt3__119__async_assoc_stateINS_4pairIP11ggml_tensorbEENS_12__async_funcIZN18llama_model_loader13load_all_dataEP12ggml_contextRNS_13unordered_mapIjP19ggml_backend_bufferNS_4hashIjEENS_8equal_toIjEENS_9allocatorINS1_IKjSB_EEEEEEPNS_6vectorINS_10unique_ptrI11llama_mlockNS_14default_deleteISO_EEEENSG_ISR_EEEEPFbfPvESV_E3$_2JEEEED0Ev', symObjAddr: 0xABE8, symBinAddr: 0x5F584, symSize: 0x50 }
  - { offsetInCU: 0x58464, offset: 0x2EDB94, size: 0x8, addend: 0x0, symName: '__ZNSt3__119__async_assoc_stateINS_4pairIP11ggml_tensorbEENS_12__async_funcIZN18llama_model_loader13load_all_dataEP12ggml_contextRNS_13unordered_mapIjP19ggml_backend_bufferNS_4hashIjEENS_8equal_toIjEENS_9allocatorINS1_IKjSB_EEEEEEPNS_6vectorINS_10unique_ptrI11llama_mlockNS_14default_deleteISO_EEEENSG_ISR_EEEEPFbfPvESV_E3$_2JEEEE16__on_zero_sharedEv', symObjAddr: 0xAC38, symBinAddr: 0x5F5D4, symSize: 0x30 }
  - { offsetInCU: 0x5851C, offset: 0x2EDC4C, size: 0x8, addend: 0x0, symName: '__ZNSt3__119__async_assoc_stateINS_4pairIP11ggml_tensorbEENS_12__async_funcIZN18llama_model_loader13load_all_dataEP12ggml_contextRNS_13unordered_mapIjP19ggml_backend_bufferNS_4hashIjEENS_8equal_toIjEENS_9allocatorINS1_IKjSB_EEEEEEPNS_6vectorINS_10unique_ptrI11llama_mlockNS_14default_deleteISO_EEEENSG_ISR_EEEEPFbfPvESV_E3$_2JEEEE9__executeEv', symObjAddr: 0xAC68, symBinAddr: 0x5F604, symSize: 0x118 }
  - { offsetInCU: 0x588B7, offset: 0x2EDFE7, size: 0x8, addend: 0x0, symName: '__ZNSt3__110unique_ptrINS_5tupleIJNS0_INS_15__thread_structENS_14default_deleteIS2_EEEEMNS_19__async_assoc_stateINS_4pairIP11ggml_tensorbEENS_12__async_funcIZN18llama_model_loader13load_all_dataEP12ggml_contextRNS_13unordered_mapIjP19ggml_backend_bufferNS_4hashIjEENS_8equal_toIjEENS_9allocatorINS7_IKjSH_EEEEEEPNS_6vectorINS0_I11llama_mlockNS3_IST_EEEENSM_ISV_EEEEPFbfPvESZ_E3$_2JEEEEEFvvEPS14_EEENS3_IS18_EEED1B8ue170006Ev', symObjAddr: 0xAE0C, symBinAddr: 0x5F7A8, symSize: 0x48 }
  - { offsetInCU: 0x125D3, offset: 0x3007BA, size: 0x8, addend: 0x0, symName: __ZN17llama_model_saverC2ERK11llama_model, symObjAddr: 0x0, symBinAddr: 0x5F8DC, symSize: 0x38 }
  - { offsetInCU: 0x12643, offset: 0x30082A, size: 0x8, addend: 0x0, symName: __ZN17llama_model_saverC1ERK11llama_model, symObjAddr: 0x38, symBinAddr: 0x5F914, symSize: 0x38 }
  - { offsetInCU: 0x126B4, offset: 0x30089B, size: 0x8, addend: 0x0, symName: __ZN17llama_model_saverD2Ev, symObjAddr: 0x70, symBinAddr: 0x5F94C, symSize: 0x2C }
  - { offsetInCU: 0x1270D, offset: 0x3008F4, size: 0x8, addend: 0x0, symName: __ZN17llama_model_saverD1Ev, symObjAddr: 0xA8, symBinAddr: 0x5F978, symSize: 0x2C }
  - { offsetInCU: 0x12863, offset: 0x300A4A, size: 0x8, addend: 0x0, symName: __ZN17llama_model_saver6add_kvE6llm_kvj, symObjAddr: 0xD4, symBinAddr: 0x5F9A4, symSize: 0x98 }
  - { offsetInCU: 0x12B80, offset: 0x300D67, size: 0x8, addend: 0x0, symName: __ZN17llama_model_saver6add_kvE6llm_kvi, symObjAddr: 0x16C, symBinAddr: 0x5FA3C, symSize: 0x98 }
  - { offsetInCU: 0x12E9D, offset: 0x301084, size: 0x8, addend: 0x0, symName: __ZN17llama_model_saver6add_kvE6llm_kvf, symObjAddr: 0x204, symBinAddr: 0x5FAD4, symSize: 0x98 }
  - { offsetInCU: 0x131B4, offset: 0x30139B, size: 0x8, addend: 0x0, symName: __ZN17llama_model_saver6add_kvE6llm_kvb, symObjAddr: 0x29C, symBinAddr: 0x5FB6C, symSize: 0x98 }
  - { offsetInCU: 0x134D1, offset: 0x3016B8, size: 0x8, addend: 0x0, symName: __ZN17llama_model_saver6add_kvE6llm_kvPKc, symObjAddr: 0x334, symBinAddr: 0x5FC04, symSize: 0x98 }
  - { offsetInCU: 0x13803, offset: 0x3019EA, size: 0x8, addend: 0x0, symName: __ZN17llama_model_saver6add_kvE6llm_kvc, symObjAddr: 0x3CC, symBinAddr: 0x5FC9C, symSize: 0x20 }
  - { offsetInCU: 0x13840, offset: 0x301A27, size: 0x8, addend: 0x0, symName: __ZN17llama_model_saver6add_kvE6llm_kvRKNSt3__16vectorINS1_12basic_stringIcNS1_11char_traitsIcEENS1_9allocatorIcEEEENS6_IS8_EEEE, symObjAddr: 0x3EC, symBinAddr: 0x5FCBC, symSize: 0x18C }
  - { offsetInCU: 0x13BC8, offset: 0x301DAF, size: 0x8, addend: 0x0, symName: __ZN17llama_model_saver6add_kvE6llm_kvRKNSt3__16vectorINS1_12basic_stringIcNS1_11char_traitsIcEENS1_9allocatorIcEEEENS6_IS8_EEEE, symObjAddr: 0x3EC, symBinAddr: 0x5FCBC, symSize: 0x18C }
  - { offsetInCU: 0x144DB, offset: 0x3026C2, size: 0x8, addend: 0x0, symName: __ZNKSt3__16vectorIPKcNS_9allocatorIS2_EEE20__throw_length_errorB8ue170006Ev, symObjAddr: 0x2BE8, symBinAddr: 0x623BC, symSize: 0x14 }
  - { offsetInCU: 0x147D2, offset: 0x3029B9, size: 0x8, addend: 0x0, symName: __ZN17llama_model_saver10add_tensorEPK11ggml_tensor, symObjAddr: 0x578, symBinAddr: 0x5FE48, symSize: 0x1AC }
  - { offsetInCU: 0x14D37, offset: 0x302F1E, size: 0x8, addend: 0x0, symName: __ZN17llama_model_saver17add_kv_from_modelEv, symObjAddr: 0x724, symBinAddr: 0x5FFF4, symSize: 0x1D2C }
  - { offsetInCU: 0x156D5, offset: 0x3038BC, size: 0x8, addend: 0x0, symName: __ZN17llama_model_saver17add_kv_from_modelEv, symObjAddr: 0x724, symBinAddr: 0x5FFF4, symSize: 0x1D2C }
  - { offsetInCU: 0x20A7D, offset: 0x30EC64, size: 0x8, addend: 0x0, symName: __ZNSt3__16vectorINS_12basic_stringIcNS_11char_traitsIcEENS_9allocatorIcEEEENS4_IS6_EEEC1Em, symObjAddr: 0x2450, symBinAddr: 0x61D20, symSize: 0xCC }
  - { offsetInCU: 0x20D00, offset: 0x30EEE7, size: 0x8, addend: 0x0, symName: __ZN17llama_model_saver6add_kvINSt3__112basic_stringIcNS1_11char_traitsIcEENS1_9allocatorIcEEEEEEv6llm_kvRKT_b, symObjAddr: 0x251C, symBinAddr: 0x61DEC, symSize: 0x150 }
  - { offsetInCU: 0x2119C, offset: 0x30F383, size: 0x8, addend: 0x0, symName: __ZN17llama_model_saver6add_kvINSt3__15arrayIjLm512EEEEEv6llm_kvRKT_b, symObjAddr: 0x266C, symBinAddr: 0x61F3C, symSize: 0x148 }
  - { offsetInCU: 0x21404, offset: 0x30F5EB, size: 0x8, addend: 0x0, symName: __ZNSt3__16vectorINS_12basic_stringIcNS_11char_traitsIcEENS_9allocatorIcEEEENS4_IS6_EEEC1Em.cold.1, symObjAddr: 0x2C24, symBinAddr: 0x1CE8E4, symSize: 0x64 }
  - { offsetInCU: 0x217DA, offset: 0x30F9C1, size: 0x8, addend: 0x0, symName: __ZNSt3__16vectorINS_12basic_stringIcNS_11char_traitsIcEENS_9allocatorIcEEEENS4_IS6_EEEC1Em.cold.1, symObjAddr: 0x2C24, symBinAddr: 0x1CE8E4, symSize: 0x64 }
  - { offsetInCU: 0x21ADA, offset: 0x30FCC1, size: 0x8, addend: 0x0, symName: __ZN17llama_model_saver22add_tensors_from_modelEv, symObjAddr: 0x2828, symBinAddr: 0x62084, symSize: 0x31C }
  - { offsetInCU: 0x22849, offset: 0x310A30, size: 0x8, addend: 0x0, symName: __ZN17llama_model_saver4saveERKNSt3__112basic_stringIcNS0_11char_traitsIcEENS0_9allocatorIcEEEE, symObjAddr: 0x2B44, symBinAddr: 0x623A0, symSize: 0x1C }
  - { offsetInCU: 0x52, offset: 0x310BC7, size: 0x8, addend: 0x0, symName: __ZL24LLAMA_ROPE_SCALING_TYPES, symObjAddr: 0x492320, symBinAddr: 0x2A3888, symSize: 0x0 }
  - { offsetInCU: 0x4EF9E, offset: 0x35FB13, size: 0x8, addend: 0x0, symName: __ZNSt3__125__throw_bad_function_callB8ue170006Ev, symObjAddr: 0x2FA08, symBinAddr: 0x893A4, symSize: 0x34 }
  - { offsetInCU: 0x500DF, offset: 0x360C54, size: 0x8, addend: 0x0, symName: __ZNSt3__111make_uniqueB8ue170006I14llm_build_phi3ILb1EEJRK11llama_modelRK16llm_graph_paramsRP11ggml_cgraphEEENS_11__unique_ifIT_E15__unique_singleEDpOT0_, symObjAddr: 0x20604, symBinAddr: 0x8278C, symSize: 0x6C }
  - { offsetInCU: 0x50238, offset: 0x360DAD, size: 0x8, addend: 0x0, symName: __ZNSt3__111make_uniqueB8ue170006I15llm_build_dots1JRK11llama_modelRK16llm_graph_paramsRP11ggml_cgraphEEENS_11__unique_ifIT_E15__unique_singleEDpOT0_, symObjAddr: 0x230F0, symBinAddr: 0x85278, symSize: 0x6C }
  - { offsetInCU: 0x50391, offset: 0x360F06, size: 0x8, addend: 0x0, symName: __ZNSt3__111make_uniqueB8ue170006I16llm_build_exaoneJRK11llama_modelRK16llm_graph_paramsRP11ggml_cgraphEEENS_11__unique_ifIT_E15__unique_singleEDpOT0_, symObjAddr: 0x22784, symBinAddr: 0x8490C, symSize: 0x6C }
  - { offsetInCU: 0x504EA, offset: 0x36105F, size: 0x8, addend: 0x0, symName: __ZNSt3__111make_uniqueB8ue170006I20llm_build_rwkv6qwen2JRK11llama_modelRK16llm_graph_paramsRP11ggml_cgraphEEENS_11__unique_ifIT_E15__unique_singleEDpOT0_, symObjAddr: 0x2299C, symBinAddr: 0x84B24, symSize: 0x6C }
  - { offsetInCU: 0x50643, offset: 0x3611B8, size: 0x8, addend: 0x0, symName: __ZNSt3__111make_uniqueB8ue170006I26llm_build_wavtokenizer_decJRK11llama_modelRK16llm_graph_paramsRP11ggml_cgraphEEENS_11__unique_ifIT_E15__unique_singleEDpOT0_, symObjAddr: 0x22DCC, symBinAddr: 0x84F54, symSize: 0x6C }
  - { offsetInCU: 0x5079C, offset: 0x361311, size: 0x8, addend: 0x0, symName: __ZNSt3__111make_uniqueB8ue170006I20llm_build_starcoder2JRK11llama_modelRK16llm_graph_paramsRP11ggml_cgraphEEENS_11__unique_ifIT_E15__unique_singleEDpOT0_, symObjAddr: 0x21188, symBinAddr: 0x83310, symSize: 0x6C }
  - { offsetInCU: 0x508F5, offset: 0x36146A, size: 0x8, addend: 0x0, symName: __ZNSt3__111make_uniqueB8ue170006I15llm_build_olmo2JRK11llama_modelRK16llm_graph_paramsRP11ggml_cgraphEEENS_11__unique_ifIT_E15__unique_singleEDpOT0_, symObjAddr: 0x218DC, symBinAddr: 0x83A64, symSize: 0x6C }
  - { offsetInCU: 0x50A4E, offset: 0x3615C3, size: 0x8, addend: 0x0, symName: __ZNSt3__111make_uniqueB8ue170006I22llm_build_cohere2_iswaJRK11llama_modelRK16llm_graph_paramsRP11ggml_cgraphEEENS_11__unique_ifIT_E15__unique_singleEDpOT0_, symObjAddr: 0x215B8, symBinAddr: 0x83740, symSize: 0x6C }
  - { offsetInCU: 0x50BA7, offset: 0x36171C, size: 0x8, addend: 0x0, symName: __ZNSt3__111make_uniqueB8ue170006I19llm_build_chameleonJRK11llama_modelRK16llm_graph_paramsRP11ggml_cgraphEEENS_11__unique_ifIT_E15__unique_singleEDpOT0_, symObjAddr: 0x22CC0, symBinAddr: 0x84E48, symSize: 0x6C }
  - { offsetInCU: 0x50D00, offset: 0x361875, size: 0x8, addend: 0x0, symName: __ZNSt3__111make_uniqueB8ue170006I15llm_build_rwkv7JRK11llama_modelRK16llm_graph_paramsRP11ggml_cgraphEEENS_11__unique_ifIT_E15__unique_singleEDpOT0_, symObjAddr: 0x22AA8, symBinAddr: 0x84C30, symSize: 0x6C }
  - { offsetInCU: 0x50E59, offset: 0x3619CE, size: 0x8, addend: 0x0, symName: __ZNSt3__111make_uniqueB8ue170006I13llm_build_plmJRK11llama_modelRK16llm_graph_paramsRP11ggml_cgraphEEENS_11__unique_ifIT_E15__unique_singleEDpOT0_, symObjAddr: 0x22ED8, symBinAddr: 0x85060, symSize: 0x6C }
  - { offsetInCU: 0x50FB2, offset: 0x361B27, size: 0x8, addend: 0x0, symName: __ZNSt3__111make_uniqueB8ue170006I16llm_build_arwkv7JRK11llama_modelRK16llm_graph_paramsRP11ggml_cgraphEEENS_11__unique_ifIT_E15__unique_singleEDpOT0_, symObjAddr: 0x22BB4, symBinAddr: 0x84D3C, symSize: 0x6C }
  - { offsetInCU: 0x5110B, offset: 0x361C80, size: 0x8, addend: 0x0, symName: __ZNSt3__111make_uniqueB8ue170006I15llm_build_gemmaJRK11llama_modelRK16llm_graph_paramsRP11ggml_cgraphEEENS_11__unique_ifIT_E15__unique_singleEDpOT0_, symObjAddr: 0x20E64, symBinAddr: 0x82FEC, symSize: 0x6C }
  - { offsetInCU: 0x51264, offset: 0x361DD9, size: 0x8, addend: 0x0, symName: __ZNSt3__111make_uniqueB8ue170006I18llm_build_nemotronJRK11llama_modelRK16llm_graph_paramsRP11ggml_cgraphEEENS_11__unique_ifIT_E15__unique_singleEDpOT0_, symObjAddr: 0x22678, symBinAddr: 0x84800, symSize: 0x6C }
  - { offsetInCU: 0x513BD, offset: 0x361F32, size: 0x8, addend: 0x0, symName: __ZNSt3__111make_uniqueB8ue170006I15llm_build_rwkv6JRK11llama_modelRK16llm_graph_paramsRP11ggml_cgraphEEENS_11__unique_ifIT_E15__unique_singleEDpOT0_, symObjAddr: 0x22890, symBinAddr: 0x84A18, symSize: 0x6C }
  - { offsetInCU: 0x51516, offset: 0x36208B, size: 0x8, addend: 0x0, symName: __ZNSt3__111make_uniqueB8ue170006I18llm_build_minicpm3JRK11llama_modelRK16llm_graph_paramsRP11ggml_cgraphEEENS_11__unique_ifIT_E15__unique_singleEDpOT0_, symObjAddr: 0x20D58, symBinAddr: 0x82EE0, symSize: 0x6C }
  - { offsetInCU: 0x5166F, offset: 0x3621E4, size: 0x8, addend: 0x0, symName: __ZNSt3__111make_uniqueB8ue170006I21llm_build_gemma2_iswaJRK11llama_modelRK16llm_graph_paramsRP11ggml_cgraphEEENS_11__unique_ifIT_E15__unique_singleEDpOT0_, symObjAddr: 0x20F70, symBinAddr: 0x830F8, symSize: 0x6C }
  - { offsetInCU: 0x517C8, offset: 0x36233D, size: 0x8, addend: 0x0, symName: __ZNSt3__111make_uniqueB8ue170006I21llm_build_gemma3_iswaJRK11llama_modelRK16llm_graph_paramsRP11ggml_cgraphEEENS_11__unique_ifIT_E15__unique_singleEDpOT0_, symObjAddr: 0x2107C, symBinAddr: 0x83204, symSize: 0x6C }
  - { offsetInCU: 0x51921, offset: 0x362496, size: 0x8, addend: 0x0, symName: __ZNSt3__111make_uniqueB8ue170006I18llm_build_qwen2moeJRK11llama_modelRK16llm_graph_paramsRP11ggml_cgraphEEENS_11__unique_ifIT_E15__unique_singleEDpOT0_, symObjAddr: 0x201D4, symBinAddr: 0x8235C, symSize: 0x6C }
  - { offsetInCU: 0x51A7A, offset: 0x3625EF, size: 0x8, addend: 0x0, symName: __ZNSt3__111make_uniqueB8ue170006I16llm_build_t5_encJRK11llama_modelRK16llm_graph_paramsRP11ggml_cgraphEEENS_11__unique_ifIT_E15__unique_singleEDpOT0_, symObjAddr: 0x22354, symBinAddr: 0x844DC, symSize: 0x6C }
  - { offsetInCU: 0x51BD3, offset: 0x362748, size: 0x8, addend: 0x0, symName: __ZNSt3__111make_uniqueB8ue170006I15llm_build_qwen2JRK11llama_modelRK16llm_graph_paramsRP11ggml_cgraphEEENS_11__unique_ifIT_E15__unique_singleEDpOT0_, symObjAddr: 0x1FFBC, symBinAddr: 0x82144, symSize: 0x6C }
  - { offsetInCU: 0x51D2C, offset: 0x3628A1, size: 0x8, addend: 0x0, symName: __ZNSt3__111make_uniqueB8ue170006I18llm_build_stablelmJRK11llama_modelRK16llm_graph_paramsRP11ggml_cgraphEEENS_11__unique_ifIT_E15__unique_singleEDpOT0_, symObjAddr: 0x1FDA4, symBinAddr: 0x81F2C, symSize: 0x6C }
  - { offsetInCU: 0x51E85, offset: 0x3629FA, size: 0x8, addend: 0x0, symName: __ZNSt3__111make_uniqueB8ue170006I15llm_build_olmoeJRK11llama_modelRK16llm_graph_paramsRP11ggml_cgraphEEENS_11__unique_ifIT_E15__unique_singleEDpOT0_, symObjAddr: 0x219E8, symBinAddr: 0x83B70, symSize: 0x6C }
  - { offsetInCU: 0x51FDE, offset: 0x362B53, size: 0x8, addend: 0x0, symName: __ZNSt3__111make_uniqueB8ue170006I17llm_build_qwen2vlJRK11llama_modelRK16llm_graph_paramsRP11ggml_cgraphEEENS_11__unique_ifIT_E15__unique_singleEDpOT0_, symObjAddr: 0x200C8, symBinAddr: 0x82250, symSize: 0x6C }
  - { offsetInCU: 0x52137, offset: 0x362CAC, size: 0x8, addend: 0x0, symName: __ZNSt3__111make_uniqueB8ue170006I15llm_build_bloomJRK11llama_modelRK16llm_graph_paramsRP11ggml_cgraphEEENS_11__unique_ifIT_E15__unique_singleEDpOT0_, symObjAddr: 0x1FB8C, symBinAddr: 0x81D14, symSize: 0x6C }
  - { offsetInCU: 0x52290, offset: 0x362E05, size: 0x8, addend: 0x0, symName: __ZNSt3__111make_uniqueB8ue170006I18llm_build_neo_bertJRK11llama_modelRK16llm_graph_paramsRP11ggml_cgraphEEENS_11__unique_ifIT_E15__unique_singleEDpOT0_, symObjAddr: 0x1FA80, symBinAddr: 0x81C08, symSize: 0x6C }
  - { offsetInCU: 0x523E9, offset: 0x362F5E, size: 0x8, addend: 0x0, symName: __ZNSt3__111make_uniqueB8ue170006I14llm_build_dbrxJRK11llama_modelRK16llm_graph_paramsRP11ggml_cgraphEEENS_11__unique_ifIT_E15__unique_singleEDpOT0_, symObjAddr: 0x216C4, symBinAddr: 0x8384C, symSize: 0x6C }
  - { offsetInCU: 0x52542, offset: 0x3630B7, size: 0x8, addend: 0x0, symName: __ZNSt3__111make_uniqueB8ue170006I16llm_build_refactJRK11llama_modelRK16llm_graph_paramsRP11ggml_cgraphEEENS_11__unique_ifIT_E15__unique_singleEDpOT0_, symObjAddr: 0x1F974, symBinAddr: 0x81AFC, symSize: 0x6C }
  - { offsetInCU: 0x5269B, offset: 0x363210, size: 0x8, addend: 0x0, symName: __ZNSt3__111make_uniqueB8ue170006I19llm_build_internlm2JRK11llama_modelRK16llm_graph_paramsRP11ggml_cgraphEEENS_11__unique_ifIT_E15__unique_singleEDpOT0_, symObjAddr: 0x20C4C, symBinAddr: 0x82DD4, symSize: 0x6C }
  - { offsetInCU: 0x527F4, offset: 0x363369, size: 0x8, addend: 0x0, symName: __ZNSt3__111make_uniqueB8ue170006I14llm_build_grokJRK11llama_modelRK16llm_graph_paramsRP11ggml_cgraphEEENS_11__unique_ifIT_E15__unique_singleEDpOT0_, symObjAddr: 0x1F75C, symBinAddr: 0x818E4, symSize: 0x6C }
  - { offsetInCU: 0x5294D, offset: 0x3634C2, size: 0x8, addend: 0x0, symName: __ZNSt3__111make_uniqueB8ue170006I19llm_build_codeshellJRK11llama_modelRK16llm_graph_paramsRP11ggml_cgraphEEENS_11__unique_ifIT_E15__unique_singleEDpOT0_, symObjAddr: 0x20A34, symBinAddr: 0x82BBC, symSize: 0x6C }
  - { offsetInCU: 0x52AA6, offset: 0x36361B, size: 0x8, addend: 0x0, symName: __ZNSt3__111make_uniqueB8ue170006I14llm_build_glm4JRK11llama_modelRK16llm_graph_paramsRP11ggml_cgraphEEENS_11__unique_ifIT_E15__unique_singleEDpOT0_, symObjAddr: 0x2213C, symBinAddr: 0x842C4, symSize: 0x6C }
  - { offsetInCU: 0x52BFF, offset: 0x363774, size: 0x8, addend: 0x0, symName: __ZNSt3__111make_uniqueB8ue170006I17llm_build_gptneoxJRK11llama_modelRK16llm_graph_paramsRP11ggml_cgraphEEENS_11__unique_ifIT_E15__unique_singleEDpOT0_, symObjAddr: 0x21C00, symBinAddr: 0x83D88, symSize: 0x6C }
  - { offsetInCU: 0x52D58, offset: 0x3638CD, size: 0x8, addend: 0x0, symName: __ZNSt3__111make_uniqueB8ue170006I14llm_build_deciJRK11llama_modelRK16llm_graph_paramsRP11ggml_cgraphEEENS_11__unique_ifIT_E15__unique_singleEDpOT0_, symObjAddr: 0x1F438, symBinAddr: 0x815C0, symSize: 0x6C }
  - { offsetInCU: 0x52EB1, offset: 0x363A26, size: 0x8, addend: 0x0, symName: __ZNSt3__111make_uniqueB8ue170006I15llm_build_llamaJRK11llama_modelRK16llm_graph_paramsRP11ggml_cgraphEEENS_11__unique_ifIT_E15__unique_singleEDpOT0_, symObjAddr: 0x1F220, symBinAddr: 0x813A8, symSize: 0x6C }
  - { offsetInCU: 0x5300A, offset: 0x363B7F, size: 0x8, addend: 0x0, symName: __ZNSt3__111make_uniqueB8ue170006I15llm_build_orionJRK11llama_modelRK16llm_graph_paramsRP11ggml_cgraphEEENS_11__unique_ifIT_E15__unique_singleEDpOT0_, symObjAddr: 0x20B40, symBinAddr: 0x82CC8, symSize: 0x6C }
  - { offsetInCU: 0x53163, offset: 0x363CD8, size: 0x8, addend: 0x0, symName: __ZNSt3__111make_uniqueB8ue170006I20llm_build_llama_iswaJRK11llama_modelRK16llm_graph_paramsRP11ggml_cgraphEEENS_11__unique_ifIT_E15__unique_singleEDpOT0_, symObjAddr: 0x1F32C, symBinAddr: 0x814B4, symSize: 0x6C }
  - { offsetInCU: 0x532BC, offset: 0x363E31, size: 0x8, addend: 0x0, symName: __ZNSt3__111make_uniqueB8ue170006I17llm_build_chatglmJRK11llama_modelRK16llm_graph_paramsRP11ggml_cgraphEEENS_11__unique_ifIT_E15__unique_singleEDpOT0_, symObjAddr: 0x22030, symBinAddr: 0x841B8, symSize: 0x6C }
  - { offsetInCU: 0x53415, offset: 0x363F8A, size: 0x8, addend: 0x0, symName: __ZNSt3__111make_uniqueB8ue170006I14llm_build_gpt2JRK11llama_modelRK16llm_graph_paramsRP11ggml_cgraphEEENS_11__unique_ifIT_E15__unique_singleEDpOT0_, symObjAddr: 0x20928, symBinAddr: 0x82AB0, symSize: 0x6C }
  - { offsetInCU: 0x5356E, offset: 0x3640E3, size: 0x8, addend: 0x0, symName: __ZNSt3__111make_uniqueB8ue170006I18llm_build_baichuanJRK11llama_modelRK16llm_graph_paramsRP11ggml_cgraphEEENS_11__unique_ifIT_E15__unique_singleEDpOT0_, symObjAddr: 0x1F544, symBinAddr: 0x816CC, symSize: 0x6C }
  - { offsetInCU: 0x536C7, offset: 0x36423C, size: 0x8, addend: 0x0, symName: __ZNSt3__111make_uniqueB8ue170006I16llm_build_falconJRK11llama_modelRK16llm_graph_paramsRP11ggml_cgraphEEENS_11__unique_ifIT_E15__unique_singleEDpOT0_, symObjAddr: 0x1F650, symBinAddr: 0x817D8, symSize: 0x6C }
  - { offsetInCU: 0x53820, offset: 0x364395, size: 0x8, addend: 0x0, symName: __ZNSt3__111make_uniqueB8ue170006I14llm_build_qwenJRK11llama_modelRK16llm_graph_paramsRP11ggml_cgraphEEENS_11__unique_ifIT_E15__unique_singleEDpOT0_, symObjAddr: 0x1FEB0, symBinAddr: 0x82038, symSize: 0x6C }
  - { offsetInCU: 0x53979, offset: 0x3644EE, size: 0x8, addend: 0x0, symName: __ZNSt3__111make_uniqueB8ue170006I19llm_build_deepseek2JRK11llama_modelRK16llm_graph_paramsRP11ggml_cgraphEEENS_11__unique_ifIT_E15__unique_singleEDpOT0_, symObjAddr: 0x21F24, symBinAddr: 0x840AC, symSize: 0x6C }
  - { offsetInCU: 0x53AD2, offset: 0x364647, size: 0x8, addend: 0x0, symName: __ZNSt3__111make_uniqueB8ue170006I15llm_build_qwen3JRK11llama_modelRK16llm_graph_paramsRP11ggml_cgraphEEENS_11__unique_ifIT_E15__unique_singleEDpOT0_, symObjAddr: 0x202E0, symBinAddr: 0x82468, symSize: 0x6C }
  - { offsetInCU: 0x53C2B, offset: 0x3647A0, size: 0x8, addend: 0x0, symName: __ZNSt3__111make_uniqueB8ue170006I14llm_build_phi2JRK11llama_modelRK16llm_graph_paramsRP11ggml_cgraphEEENS_11__unique_ifIT_E15__unique_singleEDpOT0_, symObjAddr: 0x204F8, symBinAddr: 0x82680, symSize: 0x6C }
  - { offsetInCU: 0x53D84, offset: 0x3648F9, size: 0x8, addend: 0x0, symName: __ZNSt3__111make_uniqueB8ue170006I15llm_build_plamoJRK11llama_modelRK16llm_graph_paramsRP11ggml_cgraphEEENS_11__unique_ifIT_E15__unique_singleEDpOT0_, symObjAddr: 0x2081C, symBinAddr: 0x829A4, symSize: 0x6C }
  - { offsetInCU: 0x53EDD, offset: 0x364A52, size: 0x8, addend: 0x0, symName: __ZNSt3__111make_uniqueB8ue170006I13llm_build_mptJRK11llama_modelRK16llm_graph_paramsRP11ggml_cgraphEEENS_11__unique_ifIT_E15__unique_singleEDpOT0_, symObjAddr: 0x1FC98, symBinAddr: 0x81E20, symSize: 0x6C }
  - { offsetInCU: 0x54036, offset: 0x364BAB, size: 0x8, addend: 0x0, symName: __ZNSt3__111make_uniqueB8ue170006I19llm_build_starcoderJRK11llama_modelRK16llm_graph_paramsRP11ggml_cgraphEEENS_11__unique_ifIT_E15__unique_singleEDpOT0_, symObjAddr: 0x1F868, symBinAddr: 0x819F0, symSize: 0x6C }
  - { offsetInCU: 0x5418F, offset: 0x364D04, size: 0x8, addend: 0x0, symName: __ZNSt3__111make_uniqueB8ue170006I17llm_build_openelmJRK11llama_modelRK16llm_graph_paramsRP11ggml_cgraphEEENS_11__unique_ifIT_E15__unique_singleEDpOT0_, symObjAddr: 0x21AF4, symBinAddr: 0x83C7C, symSize: 0x6C }
  - { offsetInCU: 0x542E8, offset: 0x364E5D, size: 0x8, addend: 0x0, symName: __ZNSt3__111make_uniqueB8ue170006I16llm_build_xverseJRK11llama_modelRK16llm_graph_paramsRP11ggml_cgraphEEENS_11__unique_ifIT_E15__unique_singleEDpOT0_, symObjAddr: 0x213A0, symBinAddr: 0x83528, symSize: 0x6C }
  - { offsetInCU: 0x54441, offset: 0x364FB6, size: 0x8, addend: 0x0, symName: __ZNSt3__111make_uniqueB8ue170006I18llm_build_qwen3moeJRK11llama_modelRK16llm_graph_paramsRP11ggml_cgraphEEENS_11__unique_ifIT_E15__unique_singleEDpOT0_, symObjAddr: 0x203EC, symBinAddr: 0x82574, symSize: 0x6C }
  - { offsetInCU: 0x5459A, offset: 0x36510F, size: 0x8, addend: 0x0, symName: __ZNSt3__111make_uniqueB8ue170006I15llm_build_arceeJRK11llama_modelRK16llm_graph_paramsRP11ggml_cgraphEEENS_11__unique_ifIT_E15__unique_singleEDpOT0_, symObjAddr: 0x231FC, symBinAddr: 0x85384, symSize: 0x6C }
  - { offsetInCU: 0x546F3, offset: 0x365268, size: 0x8, addend: 0x0, symName: __ZNSt3__111make_uniqueB8ue170006I14llm_build_olmoJRK11llama_modelRK16llm_graph_paramsRP11ggml_cgraphEEENS_11__unique_ifIT_E15__unique_singleEDpOT0_, symObjAddr: 0x217D0, symBinAddr: 0x83958, symSize: 0x6C }
  - { offsetInCU: 0x5484C, offset: 0x3653C1, size: 0x8, addend: 0x0, symName: __ZNSt3__111make_uniqueB8ue170006I19llm_build_command_rJRK11llama_modelRK16llm_graph_paramsRP11ggml_cgraphEEENS_11__unique_ifIT_E15__unique_singleEDpOT0_, symObjAddr: 0x214AC, symBinAddr: 0x83634, symSize: 0x6C }
  - { offsetInCU: 0x549A5, offset: 0x36551A, size: 0x8, addend: 0x0, symName: __ZNSt3__111make_uniqueB8ue170006I16llm_build_bitnetJRK11llama_modelRK16llm_graph_paramsRP11ggml_cgraphEEENS_11__unique_ifIT_E15__unique_singleEDpOT0_, symObjAddr: 0x22248, symBinAddr: 0x843D0, symSize: 0x6C }
  - { offsetInCU: 0x54AFE, offset: 0x365673, size: 0x8, addend: 0x0, symName: __ZNSt3__111make_uniqueB8ue170006I15llm_build_mambaJRK11llama_modelRK16llm_graph_paramsRP11ggml_cgraphEEENS_11__unique_ifIT_E15__unique_singleEDpOT0_, symObjAddr: 0x21294, symBinAddr: 0x8341C, symSize: 0x6C }
  - { offsetInCU: 0x54C57, offset: 0x3657CC, size: 0x8, addend: 0x0, symName: __ZNSt3__111make_uniqueB8ue170006I16llm_build_arcticJRK11llama_modelRK16llm_graph_paramsRP11ggml_cgraphEEENS_11__unique_ifIT_E15__unique_singleEDpOT0_, symObjAddr: 0x21D0C, symBinAddr: 0x83E94, symSize: 0x6C }
  - { offsetInCU: 0x54DB0, offset: 0x365925, size: 0x8, addend: 0x0, symName: __ZNSt3__111make_uniqueB8ue170006I14llm_build_jaisJRK11llama_modelRK16llm_graph_paramsRP11ggml_cgraphEEENS_11__unique_ifIT_E15__unique_singleEDpOT0_, symObjAddr: 0x2256C, symBinAddr: 0x846F4, symSize: 0x6C }
  - { offsetInCU: 0x54F09, offset: 0x365A7E, size: 0x8, addend: 0x0, symName: __ZNSt3__111make_uniqueB8ue170006I18llm_build_deepseekJRK11llama_modelRK16llm_graph_paramsRP11ggml_cgraphEEENS_11__unique_ifIT_E15__unique_singleEDpOT0_, symObjAddr: 0x21E18, symBinAddr: 0x83FA0, symSize: 0x6C }
  - { offsetInCU: 0x55062, offset: 0x365BD7, size: 0x8, addend: 0x0, symName: __ZNSt3__111make_uniqueB8ue170006I20llm_build_bailingmoeJRK11llama_modelRK16llm_graph_paramsRP11ggml_cgraphEEENS_11__unique_ifIT_E15__unique_singleEDpOT0_, symObjAddr: 0x22FE4, symBinAddr: 0x8516C, symSize: 0x6C }
  - { offsetInCU: 0x551BB, offset: 0x365D30, size: 0x8, addend: 0x0, symName: __ZNSt3__111make_uniqueB8ue170006I14llm_build_phi3ILb0EEJRK11llama_modelRK16llm_graph_paramsRP11ggml_cgraphEEENS_11__unique_ifIT_E15__unique_singleEDpOT0_, symObjAddr: 0x20710, symBinAddr: 0x82898, symSize: 0x6C }
  - { offsetInCU: 0x55314, offset: 0x365E89, size: 0x8, addend: 0x0, symName: __ZNSt3__111make_uniqueB8ue170006I16llm_build_t5_decJRK11llama_modelRK16llm_graph_paramsRP11ggml_cgraphEEENS_11__unique_ifIT_E15__unique_singleEDpOT0_, symObjAddr: 0x22460, symBinAddr: 0x845E8, symSize: 0x6C }
  - { offsetInCU: 0x61D8E, offset: 0x372903, size: 0x8, addend: 0x0, symName: __ZNK11llama_model10print_infoEv, symObjAddr: 0x1CAE8, symBinAddr: 0x7EC70, symSize: 0xF48 }
  - { offsetInCU: 0x6D136, offset: 0x37DCAB, size: 0x8, addend: 0x0, symName: __Z13llm_type_name8llm_type, symObjAddr: 0x0, symBinAddr: 0x623D0, symSize: 0x28 }
  - { offsetInCU: 0x6D1D7, offset: 0x37DD4C, size: 0x8, addend: 0x0, symName: __ZNSt3__13mapI23llama_rope_scaling_typePKcNS_4lessIS1_EENS_9allocatorINS_4pairIKS1_S3_EEEEED1B8ue170006Ev, symObjAddr: 0x28, symBinAddr: 0x623F8, symSize: 0x28 }
  - { offsetInCU: 0x6D28B, offset: 0x37DE00, size: 0x8, addend: 0x0, symName: __ZNSt3__16__treeINS_12__value_typeI23llama_rope_scaling_typePKcEENS_19__map_value_compareIS2_S5_NS_4lessIS2_EELb1EEENS_9allocatorIS5_EEE7destroyEPNS_11__tree_nodeIS5_PvEE, symObjAddr: 0x2FFE4, symBinAddr: 0x89688, symSize: 0x40 }
  - { offsetInCU: 0x6D706, offset: 0x37E27B, size: 0x8, addend: 0x0, symName: __Z28llama_rope_scaling_type_name23llama_rope_scaling_type, symObjAddr: 0x50, symBinAddr: 0x62420, symSize: 0xDC }
  - { offsetInCU: 0x6DB4D, offset: 0x37E6C2, size: 0x8, addend: 0x0, symName: __ZN11llama_modelC2ERK18llama_model_params, symObjAddr: 0x12C, symBinAddr: 0x624FC, symSize: 0x240 }
  - { offsetInCU: 0x6E2C2, offset: 0x37EE37, size: 0x8, addend: 0x0, symName: __ZN11llama_modelC2ERK18llama_model_params, symObjAddr: 0x12C, symBinAddr: 0x624FC, symSize: 0x240 }
  - { offsetInCU: 0x6EC84, offset: 0x37F7F9, size: 0x8, addend: 0x0, symName: __ZNSt3__16vectorINS_4pairINS_12basic_stringIcNS_11char_traitsIcEENS_9allocatorIcEEEEP11ggml_tensorEENS5_ISA_EEED1B8ue170006Ev, symObjAddr: 0x36C, symBinAddr: 0x6273C, symSize: 0x74 }
  - { offsetInCU: 0x6EF73, offset: 0x37FAE8, size: 0x8, addend: 0x0, symName: __ZNSt3__113unordered_mapINS_12basic_stringIcNS_11char_traitsIcEENS_9allocatorIcEEEES6_NS_4hashIS6_EENS_8equal_toIS6_EENS4_INS_4pairIKS6_S6_EEEEED1B8ue170006Ev, symObjAddr: 0x3E0, symBinAddr: 0x627B0, symSize: 0x84 }
  - { offsetInCU: 0x6FB1E, offset: 0x380693, size: 0x8, addend: 0x0, symName: __ZN11llama_modelC1ERK18llama_model_params, symObjAddr: 0x4D8, symBinAddr: 0x62834, symSize: 0x4 }
  - { offsetInCU: 0x6FB5C, offset: 0x3806D1, size: 0x8, addend: 0x0, symName: __ZN11llama_modelC1ERK18llama_model_params, symObjAddr: 0x4D8, symBinAddr: 0x62834, symSize: 0x4 }
  - { offsetInCU: 0x6FC66, offset: 0x3807DB, size: 0x8, addend: 0x0, symName: __ZN11llama_modelD2Ev, symObjAddr: 0x4DC, symBinAddr: 0x62838, symSize: 0x180 }
  - { offsetInCU: 0x70BD5, offset: 0x38174A, size: 0x8, addend: 0x0, symName: __ZN11llama_model4implD2Ev, symObjAddr: 0x30024, symBinAddr: 0x896C8, symSize: 0x1E0 }
  - { offsetInCU: 0x71AAD, offset: 0x382622, size: 0x8, addend: 0x0, symName: __ZN11llama_modelD1Ev, symObjAddr: 0x65C, symBinAddr: 0x629B8, symSize: 0x4 }
  - { offsetInCU: 0x71AD0, offset: 0x382645, size: 0x8, addend: 0x0, symName: __ZN11llama_modelD1Ev, symObjAddr: 0x65C, symBinAddr: 0x629B8, symSize: 0x4 }
  - { offsetInCU: 0x71AFE, offset: 0x382673, size: 0x8, addend: 0x0, symName: __ZN11llama_model10load_statsER18llama_model_loader, symObjAddr: 0x660, symBinAddr: 0x629BC, symSize: 0x10 }
  - { offsetInCU: 0x71B37, offset: 0x3826AC, size: 0x8, addend: 0x0, symName: __ZN11llama_model10load_statsER18llama_model_loader, symObjAddr: 0x660, symBinAddr: 0x629BC, symSize: 0x10 }
  - { offsetInCU: 0x71BBC, offset: 0x382731, size: 0x8, addend: 0x0, symName: __ZN11llama_model9load_archER18llama_model_loader, symObjAddr: 0x670, symBinAddr: 0x629CC, symSize: 0x174 }
  - { offsetInCU: 0x72833, offset: 0x3833A8, size: 0x8, addend: 0x0, symName: __ZN11llama_model12load_hparamsER18llama_model_loader, symObjAddr: 0x7E4, symBinAddr: 0x62B40, symSize: 0x2A34 }
  - { offsetInCU: 0x75779, offset: 0x3862EE, size: 0x8, addend: 0x0, symName: __ZNSt3__14pairIKNS_12basic_stringIcNS_11char_traitsIcEENS_9allocatorIcEEEES6_EC2B8ue170006IRPKcRS7_LPv0EEEOT_OT0_, symObjAddr: 0x302BC, symBinAddr: 0x89960, symSize: 0x144 }
  - { offsetInCU: 0x765C5, offset: 0x38713A, size: 0x8, addend: 0x0, symName: __ZNSt3__112__hash_tableINS_17__hash_value_typeINS_12basic_stringIcNS_11char_traitsIcEENS_9allocatorIcEEEES7_EENS_22__unordered_map_hasherIS7_S8_NS_4hashIS7_EENS_8equal_toIS7_EELb1EEENS_21__unordered_map_equalIS7_S8_SD_SB_Lb1EEENS5_IS8_EEE28__node_insert_unique_prepareB8ue170006EmRS8_, symObjAddr: 0x3089C, symBinAddr: 0x89AA4, symSize: 0x2F0 }
  - { offsetInCU: 0x768F5, offset: 0x38746A, size: 0x8, addend: 0x0, symName: _llama_model_rope_type, symObjAddr: 0x3360, symBinAddr: 0x656BC, symSize: 0x6C }
  - { offsetInCU: 0x76923, offset: 0x387498, size: 0x8, addend: 0x0, symName: __ZN11llama_model10load_vocabER18llama_model_loader, symObjAddr: 0x33CC, symBinAddr: 0x65728, symSize: 0x4C }
  - { offsetInCU: 0x76959, offset: 0x3874CE, size: 0x8, addend: 0x0, symName: __ZNSt3__110unique_ptrINS_11__hash_nodeINS_17__hash_value_typeINS_12basic_stringIcNS_11char_traitsIcEENS_9allocatorIcEEEES8_EEPvEENS_22__hash_node_destructorINS6_ISB_EEEEED1B8ue170006Ev, symObjAddr: 0x30254, symBinAddr: 0x898F8, symSize: 0x68 }
  - { offsetInCU: 0x76D10, offset: 0x387885, size: 0x8, addend: 0x0, symName: __ZNK11llama_model9arch_nameEv, symObjAddr: 0x3218, symBinAddr: 0x65574, symSize: 0xA4 }
  - { offsetInCU: 0x77091, offset: 0x387C06, size: 0x8, addend: 0x0, symName: __ZNK11llama_model9type_nameEv, symObjAddr: 0x32BC, symBinAddr: 0x65618, symSize: 0xA4 }
  - { offsetInCU: 0x770A3, offset: 0x387C18, size: 0x8, addend: 0x0, symName: __ZNK11llama_model9type_nameEv, symObjAddr: 0x32BC, symBinAddr: 0x65618, symSize: 0xA4 }
  - { offsetInCU: 0x77424, offset: 0x387F99, size: 0x8, addend: 0x0, symName: _llama_model_rope_type, symObjAddr: 0x3360, symBinAddr: 0x656BC, symSize: 0x6C }
  - { offsetInCU: 0x77436, offset: 0x387FAB, size: 0x8, addend: 0x0, symName: __ZN11llama_model10load_vocabER18llama_model_loader, symObjAddr: 0x33CC, symBinAddr: 0x65728, symSize: 0x4C }
  - { offsetInCU: 0x7846F, offset: 0x388FE4, size: 0x8, addend: 0x0, symName: __ZN11llama_model12load_tensorsER18llama_model_loader, symObjAddr: 0x3418, symBinAddr: 0x65774, symSize: 0x17EF4 }
  - { offsetInCU: 0x9D47B, offset: 0x3ADFF0, size: 0x8, addend: 0x0, symName: __ZNSt3__16vectorINS_4pairIP19ggml_backend_deviceP24ggml_backend_buffer_typeEENS_9allocatorIS6_EEE18__insert_with_sizeB8ue170006INS_11__wrap_iterIPS6_EESD_EESD_NSB_IPKS6_EET_T0_l, symObjAddr: 0x30D38, symBinAddr: 0x89F40, symSize: 0x390 }
  - { offsetInCU: 0x9DEF6, offset: 0x3AEA6B, size: 0x8, addend: 0x0, symName: __ZNSt3__16vectorIN11llama_model4impl9layer_devENS_9allocatorIS3_EEE8__appendEm, symObjAddr: 0x310DC, symBinAddr: 0x8A2D0, symSize: 0x128 }
  - { offsetInCU: 0x9E3DA, offset: 0x3AEF4F, size: 0x8, addend: 0x0, symName: __ZNKSt3__16vectorIN11llama_model4impl9layer_devENS_9allocatorIS3_EEE20__throw_length_errorB8ue170006Ev, symObjAddr: 0x31204, symBinAddr: 0x8A3F8, symSize: 0x14 }
  - { offsetInCU: 0x9E3F4, offset: 0x3AEF69, size: 0x8, addend: 0x0, symName: '__ZZN11llama_model12load_tensorsER18llama_model_loaderENK3$_1clEi', symObjAddr: 0x1B320, symBinAddr: 0x7D67C, symSize: 0x1C8 }
  - { offsetInCU: 0x9E78C, offset: 0x3AF301, size: 0x8, addend: 0x0, symName: '__ZZN11llama_model12load_tensorsER18llama_model_loaderENK3$_3clERK11LLM_TN_IMPLRKSt16initializer_listIxEi', symObjAddr: 0x1B4E8, symBinAddr: 0x7D844, symSize: 0x10EC }
  - { offsetInCU: 0x9E7A4, offset: 0x3AF319, size: 0x8, addend: 0x0, symName: __ZNSt3__16vectorI11llama_layerNS_9allocatorIS1_EEE8__appendEm, symObjAddr: 0x3126C, symBinAddr: 0x8A420, symSize: 0x1CC }
  - { offsetInCU: 0x9ECEB, offset: 0x3AF860, size: 0x8, addend: 0x0, symName: __ZNKSt3__16vectorI11llama_layerNS_9allocatorIS1_EEE20__throw_length_errorB8ue170006Ev, symObjAddr: 0x31438, symBinAddr: 0x8A5EC, symSize: 0x14 }
  - { offsetInCU: 0x9ED1E, offset: 0x3AF893, size: 0x8, addend: 0x0, symName: '__ZZN11llama_model12load_tensorsER18llama_model_loaderENK3$_3clERK11LLM_TN_IMPLRKSt16initializer_listIxEi', symObjAddr: 0x1B4E8, symBinAddr: 0x7D844, symSize: 0x10EC }
  - { offsetInCU: 0xA1E9A, offset: 0x3B2A0F, size: 0x8, addend: 0x0, symName: __ZNSt3__16vectorINS_4pairIP12ggml_contextNS_13unordered_mapIjP19ggml_backend_bufferNS_4hashIjEENS_8equal_toIjEENS_9allocatorINS1_IKjS6_EEEEEEEENSB_ISG_EEE7reserveEm, symObjAddr: 0x1C6C4, symBinAddr: 0x7E930, symSize: 0x19C }
  - { offsetInCU: 0xA1EAB, offset: 0x3B2A20, size: 0x8, addend: 0x0, symName: __ZNSt3__16vectorINS_4pairIP12ggml_contextNS_13unordered_mapIjP19ggml_backend_bufferNS_4hashIjEENS_8equal_toIjEENS_9allocatorINS1_IKjS6_EEEEEEEENSB_ISG_EEE7reserveEm, symObjAddr: 0x1C6C4, symBinAddr: 0x7E930, symSize: 0x19C }
  - { offsetInCU: 0xA2B29, offset: 0x3B369E, size: 0x8, addend: 0x0, symName: __ZNSt3__112__hash_tableINS_17__hash_value_typeIjP19ggml_backend_bufferEENS_22__unordered_map_hasherIjS4_NS_4hashIjEENS_8equal_toIjEELb1EEENS_21__unordered_map_equalIjS4_S9_S7_Lb1EEENS_9allocatorIS4_EEE11__do_rehashILb1EEEvm, symObjAddr: 0x3154C, symBinAddr: 0x8A6D8, symSize: 0x1AC }
  - { offsetInCU: 0xA2FC6, offset: 0x3B3B3B, size: 0x8, addend: 0x0, symName: __ZNSt3__112__hash_tableINS_17__hash_value_typeIjP19ggml_backend_bufferEENS_22__unordered_map_hasherIjS4_NS_4hashIjEENS_8equal_toIjEELb1EEENS_21__unordered_map_equalIjS4_S9_S7_Lb1EEENS_9allocatorIS4_EEE25__emplace_unique_key_argsIjJRjRS3_EEENS_4pairINS_15__hash_iteratorIPNS_11__hash_nodeIS4_PvEEEEbEERKT_DpOT0_, symObjAddr: 0x31820, symBinAddr: 0x8A884, symSize: 0x300 }
  - { offsetInCU: 0xA3ABD, offset: 0x3B4632, size: 0x8, addend: 0x0, symName: __ZNSt3__16vectorINS_10unique_ptrI11llama_mlockNS_14default_deleteIS2_EEEENS_9allocatorIS5_EEE24__emplace_back_slow_pathIJPS2_EEEvDpOT_, symObjAddr: 0x31B20, symBinAddr: 0x8AB84, symSize: 0x128 }
  - { offsetInCU: 0xA412D, offset: 0x3B4CA2, size: 0x8, addend: 0x0, symName: __ZNSt3__113unordered_mapIjP19ggml_backend_bufferNS_4hashIjEENS_8equal_toIjEENS_9allocatorINS_4pairIKjS2_EEEEEC2ERKSC_, symObjAddr: 0x31EA4, symBinAddr: 0x8AEF4, symSize: 0x130 }
  - { offsetInCU: 0xA44D3, offset: 0x3B5048, size: 0x8, addend: 0x0, symName: __ZNSt3__16vectorINS_4pairIP12ggml_contextNS_13unordered_mapIjP19ggml_backend_bufferNS_4hashIjEENS_8equal_toIjEENS_9allocatorINS1_IKjS6_EEEEEEEENSB_ISG_EEE24__emplace_back_slow_pathIJRS3_RSF_EEEvDpOT_, symObjAddr: 0x31C5C, symBinAddr: 0x8ACAC, symSize: 0x248 }
  - { offsetInCU: 0xA50F8, offset: 0x3B5C6D, size: 0x8, addend: 0x0, symName: __ZNSt3__16vectorINS_4pairINS_12basic_stringIcNS_11char_traitsIcEENS_9allocatorIcEEEEP11ggml_tensorEENS5_ISA_EEE24__emplace_back_slow_pathIJPKcRS9_EEEvDpOT_, symObjAddr: 0x322D4, symBinAddr: 0x8B324, symSize: 0x224 }
  - { offsetInCU: 0xA5FAF, offset: 0x3B6B24, size: 0x8, addend: 0x0, symName: '__ZNSt3__110__function6__funcIZNK11llama_model10print_infoEvE3$_5NS_9allocatorIS3_EEFjjEED1Ev', symObjAddr: 0x32694, symBinAddr: 0x8B5C0, symSize: 0x4 }
  - { offsetInCU: 0xA60B5, offset: 0x3B6C2A, size: 0x8, addend: 0x0, symName: __ZNSt3__112__hash_tableINS_17__hash_value_typeIjP19ggml_backend_bufferEENS_22__unordered_map_hasherIjS4_NS_4hashIjEENS_8equal_toIjEELb1EEENS_21__unordered_map_equalIjS4_S9_S7_Lb1EEENS_9allocatorIS4_EEED1Ev, symObjAddr: 0x31504, symBinAddr: 0x8A690, symSize: 0x48 }
  - { offsetInCU: 0xA60C0, offset: 0x3B6C35, size: 0x8, addend: 0x0, symName: __ZNKSt3__16vectorINS_4pairIP19ggml_backend_deviceP24ggml_backend_buffer_typeEENS_9allocatorIS6_EEE20__throw_length_errorB8ue170006Ev, symObjAddr: 0x239CC, symBinAddr: 0x85ACC, symSize: 0x14 }
  - { offsetInCU: 0xA610D, offset: 0x3B6C82, size: 0x8, addend: 0x0, symName: __ZNSt3__16vectorIN11llama_model4impl9layer_devENS_9allocatorIS3_EEE8__appendEm, symObjAddr: 0x310DC, symBinAddr: 0x8A2D0, symSize: 0x128 }
  - { offsetInCU: 0xA6118, offset: 0x3B6C8D, size: 0x8, addend: 0x0, symName: __ZNSt3__113unordered_mapIjP19ggml_backend_bufferNS_4hashIjEENS_8equal_toIjEENS_9allocatorINS_4pairIKjS2_EEEEED1B8ue170006Ev, symObjAddr: 0x1C944, symBinAddr: 0x7EACC, symSize: 0x48 }
  - { offsetInCU: 0xA63EF, offset: 0x3B6F64, size: 0x8, addend: 0x0, symName: __ZNSt3__16vectorINS_4pairIP12ggml_contextNS_13unordered_mapIjP19ggml_backend_bufferNS_4hashIjEENS_8equal_toIjEENS_9allocatorINS1_IKjS6_EEEEEEEENSB_ISG_EEED1B8ue170006Ev, symObjAddr: 0x1C98C, symBinAddr: 0x7EB14, symSize: 0x8C }
  - { offsetInCU: 0xA685B, offset: 0x3B73D0, size: 0x8, addend: 0x0, symName: __ZNK11llama_model9n_devicesEv, symObjAddr: 0x1B30C, symBinAddr: 0x7D668, symSize: 0x14 }
  - { offsetInCU: 0xA687F, offset: 0x3B73F4, size: 0x8, addend: 0x0, symName: __ZNK11llama_model9n_devicesEv, symObjAddr: 0x1B30C, symBinAddr: 0x7D668, symSize: 0x14 }
  - { offsetInCU: 0xA69B9, offset: 0x3B752E, size: 0x8, addend: 0x0, symName: __ZNKSt3__16vectorIP19ggml_backend_deviceNS_9allocatorIS2_EEE20__throw_out_of_rangeB8ue170006Ev, symObjAddr: 0x23A7C, symBinAddr: 0x85AE0, symSize: 0x14 }
  - { offsetInCU: 0xA799F, offset: 0x3B8514, size: 0x8, addend: 0x0, symName: __ZNSt3__111basic_regexIcNS_12regex_traitsIcEEE7__parseIPKcEET_S7_S7_, symObjAddr: 0x23B60, symBinAddr: 0x85AF4, symSize: 0x354 }
  - { offsetInCU: 0xA8C04, offset: 0x3B9779, size: 0x8, addend: 0x0, symName: __ZNKSt3__16vectorIN11llama_model4impl9layer_devENS_9allocatorIS3_EEE20__throw_out_of_rangeB8ue170006Ev, symObjAddr: 0x31258, symBinAddr: 0x8A40C, symSize: 0x14 }
  - { offsetInCU: 0xA8C2E, offset: 0x3B97A3, size: 0x8, addend: 0x0, symName: __ZNSt3__16vectorI11llama_layerNS_9allocatorIS1_EEE8__appendEm, symObjAddr: 0x3126C, symBinAddr: 0x8A420, symSize: 0x1CC }
  - { offsetInCU: 0xA9070, offset: 0x3B9BE5, size: 0x8, addend: 0x0, symName: __ZNKSt3__16vectorINS_4pairIP12ggml_contextNS_13unordered_mapIjP19ggml_backend_bufferNS_4hashIjEENS_8equal_toIjEENS_9allocatorINS1_IKjS6_EEEEEEEENSB_ISG_EEE20__throw_length_errorB8ue170006Ev, symObjAddr: 0x31460, symBinAddr: 0x8A600, symSize: 0x14 }
  - { offsetInCU: 0xA9564, offset: 0x3BA0D9, size: 0x8, addend: 0x0, symName: __ZNKSt3__16vectorINS_4pairIP12ggml_contextNS_13unordered_mapIjP19ggml_backend_bufferNS_4hashIjEENS_8equal_toIjEENS_9allocatorINS1_IKjS6_EEEEEEEENSB_ISG_EEE20__throw_length_errorB8ue170006Ev, symObjAddr: 0x31460, symBinAddr: 0x8A600, symSize: 0x14 }
  - { offsetInCU: 0xA958E, offset: 0x3BA103, size: 0x8, addend: 0x0, symName: __ZNSt3__114__split_bufferINS_4pairIP12ggml_contextNS_13unordered_mapIjP19ggml_backend_bufferNS_4hashIjEENS_8equal_toIjEENS_9allocatorINS1_IKjS6_EEEEEEEERNSB_ISG_EEED1Ev, symObjAddr: 0x31474, symBinAddr: 0x8A614, symSize: 0x7C }
  - { offsetInCU: 0xA9645, offset: 0x3BA1BA, size: 0x8, addend: 0x0, symName: __ZNK11llama_model4descEv, symObjAddr: 0x1CA18, symBinAddr: 0x7EBA0, symSize: 0xA4 }
  - { offsetInCU: 0xA9A01, offset: 0x3BA576, size: 0x8, addend: 0x0, symName: __ZNK11llama_model4sizeEv, symObjAddr: 0x1CABC, symBinAddr: 0x7EC44, symSize: 0xC }
  - { offsetInCU: 0xA9A13, offset: 0x3BA588, size: 0x8, addend: 0x0, symName: __ZNK11llama_model4sizeEv, symObjAddr: 0x1CABC, symBinAddr: 0x7EC44, symSize: 0xC }
  - { offsetInCU: 0xA9A37, offset: 0x3BA5AC, size: 0x8, addend: 0x0, symName: __ZNK11llama_model4sizeEv, symObjAddr: 0x1CABC, symBinAddr: 0x7EC44, symSize: 0xC }
  - { offsetInCU: 0xA9A70, offset: 0x3BA5E5, size: 0x8, addend: 0x0, symName: __ZNK11llama_model9n_tensorsEv, symObjAddr: 0x1CAC8, symBinAddr: 0x7EC50, symSize: 0x14 }
  - { offsetInCU: 0xA9A9C, offset: 0x3BA611, size: 0x8, addend: 0x0, symName: __ZNK11llama_model9n_tensorsEv, symObjAddr: 0x1CAC8, symBinAddr: 0x7EC50, symSize: 0x14 }
  - { offsetInCU: 0xA9ABA, offset: 0x3BA62F, size: 0x8, addend: 0x0, symName: __ZNK11llama_model10n_elementsEv, symObjAddr: 0x1CADC, symBinAddr: 0x7EC64, symSize: 0xC }
  - { offsetInCU: 0xA9ADE, offset: 0x3BA653, size: 0x8, addend: 0x0, symName: __ZNK11llama_model10n_elementsEv, symObjAddr: 0x1CADC, symBinAddr: 0x7EC64, symSize: 0xC }
  - { offsetInCU: 0xAA77D, offset: 0x3BB2F2, size: 0x8, addend: 0x0, symName: '__ZZNK11llama_model10print_infoEvENK3$_4clERKNSt3__18functionIFjjEEEj', symObjAddr: 0x1DA30, symBinAddr: 0x7FBB8, symSize: 0x3B4 }
  - { offsetInCU: 0xAB842, offset: 0x3BC3B7, size: 0x8, addend: 0x0, symName: __ZNSt3__125__throw_bad_function_callB8ue170006Ev, symObjAddr: 0x2FA08, symBinAddr: 0x893A4, symSize: 0x34 }
  - { offsetInCU: 0xAB942, offset: 0x3BC4B7, size: 0x8, addend: 0x0, symName: __ZNK11llama_model9dev_layerEi, symObjAddr: 0x1DDE4, symBinAddr: 0x7FF6C, symSize: 0x34 }
  - { offsetInCU: 0xAB9D6, offset: 0x3BC54B, size: 0x8, addend: 0x0, symName: __ZNK11llama_model10dev_outputEv, symObjAddr: 0x1DE18, symBinAddr: 0x7FFA0, symSize: 0xC }
  - { offsetInCU: 0xAB9E1, offset: 0x3BC556, size: 0x8, addend: 0x0, symName: __ZNK11llama_model10dev_outputEv, symObjAddr: 0x1DE18, symBinAddr: 0x7FFA0, symSize: 0xC }
  - { offsetInCU: 0xABA0D, offset: 0x3BC582, size: 0x8, addend: 0x0, symName: __ZNK11llama_model10dev_outputEv, symObjAddr: 0x1DE18, symBinAddr: 0x7FFA0, symSize: 0xC }
  - { offsetInCU: 0xABAA7, offset: 0x3BC61C, size: 0x8, addend: 0x0, symName: __ZNK11llama_model11select_buftEi, symObjAddr: 0x1DE24, symBinAddr: 0x7FFAC, symSize: 0x2A8 }
  - { offsetInCU: 0xAC0BA, offset: 0x3BCC2F, size: 0x8, addend: 0x0, symName: __ZNK11llama_model20has_tensor_overridesEv, symObjAddr: 0x1E0CC, symBinAddr: 0x80254, symSize: 0xC }
  - { offsetInCU: 0xAC0E6, offset: 0x3BCC5B, size: 0x8, addend: 0x0, symName: __ZNK11llama_model20has_tensor_overridesEv, symObjAddr: 0x1E0CC, symBinAddr: 0x80254, symSize: 0xC }
  - { offsetInCU: 0xAC134, offset: 0x3BCCA9, size: 0x8, addend: 0x0, symName: __ZNK11llama_model10get_tensorEPKc, symObjAddr: 0x1E0D8, symBinAddr: 0x80260, symSize: 0xE8 }
  - { offsetInCU: 0xAC3F2, offset: 0x3BCF67, size: 0x8, addend: 0x0, symName: __ZNK11llama_model18get_rope_freq_baseERK13llama_cparamsi, symObjAddr: 0x1E1C0, symBinAddr: 0x80348, symSize: 0x44 }
  - { offsetInCU: 0xAC426, offset: 0x3BCF9B, size: 0x8, addend: 0x0, symName: __ZNK11llama_model19get_rope_freq_scaleERK13llama_cparamsi, symObjAddr: 0x1E204, symBinAddr: 0x8038C, symSize: 0x44 }
  - { offsetInCU: 0xAC47E, offset: 0x3BCFF3, size: 0x8, addend: 0x0, symName: __ZNK11llama_model16get_rope_factorsERK13llama_cparamsi, symObjAddr: 0x1E248, symBinAddr: 0x803D0, symSize: 0x48 }
  - { offsetInCU: 0xAC4B9, offset: 0x3BD02E, size: 0x8, addend: 0x0, symName: __ZNK11llama_model16get_rope_factorsERK13llama_cparamsi, symObjAddr: 0x1E248, symBinAddr: 0x803D0, symSize: 0x48 }
  - { offsetInCU: 0xAC603, offset: 0x3BD178, size: 0x8, addend: 0x0, symName: __ZNK11llama_model13create_memoryERK19llama_memory_paramsR13llama_cparams, symObjAddr: 0x1E290, symBinAddr: 0x80418, symSize: 0x288 }
  - { offsetInCU: 0xACBDD, offset: 0x3BD752, size: 0x8, addend: 0x0, symName: __ZNK11llama_model11build_graphERK16llm_graph_paramsP11ggml_cgraph14llm_graph_type, symObjAddr: 0x1E518, symBinAddr: 0x806A0, symSize: 0xD08 }
  - { offsetInCU: 0xAE39B, offset: 0x3BEF10, size: 0x8, addend: 0x0, symName: __ZN14llm_build_bertC2ERK11llama_modelRK16llm_graph_paramsP11ggml_cgraph, symObjAddr: 0x35E98, symBinAddr: 0x8EDC4, symSize: 0x8B8 }
  - { offsetInCU: 0xAEB23, offset: 0x3BF698, size: 0x8, addend: 0x0, symName: __ZN17llm_build_graniteC2ERK11llama_modelRK16llm_graph_paramsP11ggml_cgraphb, symObjAddr: 0x4A8D8, symBinAddr: 0xA3804, symSize: 0x830 }
  - { offsetInCU: 0xAF163, offset: 0x3BFCD8, size: 0x8, addend: 0x0, symName: __ZNSt3__110unique_ptrI17llm_graph_contextNS_14default_deleteIS1_EEEaSB8ue170006I14llm_build_phi3ILb1EENS2_IS7_EEvvEERS4_ONS0_IT_T0_EE, symObjAddr: 0x20670, symBinAddr: 0x827F8, symSize: 0x54 }
  - { offsetInCU: 0xAF300, offset: 0x3BFE75, size: 0x8, addend: 0x0, symName: __ZNSt3__110unique_ptrI14llm_build_phi3ILb1EENS_14default_deleteIS2_EEED1B8ue170006Ev, symObjAddr: 0x206C4, symBinAddr: 0x8284C, symSize: 0x4C }
  - { offsetInCU: 0xAF48F, offset: 0x3C0004, size: 0x8, addend: 0x0, symName: __ZNSt3__110unique_ptrI17llm_graph_contextNS_14default_deleteIS1_EEEaSB8ue170006I15llm_build_dots1NS2_IS6_EEvvEERS4_ONS0_IT_T0_EE, symObjAddr: 0x2315C, symBinAddr: 0x852E4, symSize: 0x54 }
  - { offsetInCU: 0xAF62C, offset: 0x3C01A1, size: 0x8, addend: 0x0, symName: __ZNSt3__110unique_ptrI15llm_build_dots1NS_14default_deleteIS1_EEED1B8ue170006Ev, symObjAddr: 0x231B0, symBinAddr: 0x85338, symSize: 0x4C }
  - { offsetInCU: 0xAF7BB, offset: 0x3C0330, size: 0x8, addend: 0x0, symName: __ZNSt3__110unique_ptrI17llm_graph_contextNS_14default_deleteIS1_EEEaSB8ue170006I16llm_build_exaoneNS2_IS6_EEvvEERS4_ONS0_IT_T0_EE, symObjAddr: 0x227F0, symBinAddr: 0x84978, symSize: 0x54 }
  - { offsetInCU: 0xAF958, offset: 0x3C04CD, size: 0x8, addend: 0x0, symName: __ZNSt3__110unique_ptrI16llm_build_exaoneNS_14default_deleteIS1_EEED1B8ue170006Ev, symObjAddr: 0x22844, symBinAddr: 0x849CC, symSize: 0x4C }
  - { offsetInCU: 0xAFAE7, offset: 0x3C065C, size: 0x8, addend: 0x0, symName: __ZNSt3__110unique_ptrI17llm_graph_contextNS_14default_deleteIS1_EEEaSB8ue170006I20llm_build_rwkv6qwen2NS2_IS6_EEvvEERS4_ONS0_IT_T0_EE, symObjAddr: 0x22A08, symBinAddr: 0x84B90, symSize: 0x54 }
  - { offsetInCU: 0xAFC84, offset: 0x3C07F9, size: 0x8, addend: 0x0, symName: __ZNSt3__110unique_ptrI20llm_build_rwkv6qwen2NS_14default_deleteIS1_EEED1B8ue170006Ev, symObjAddr: 0x22A5C, symBinAddr: 0x84BE4, symSize: 0x4C }
  - { offsetInCU: 0xAFE30, offset: 0x3C09A5, size: 0x8, addend: 0x0, symName: __ZNSt3__110unique_ptrI17llm_graph_contextNS_14default_deleteIS1_EEEaSB8ue170006I26llm_build_wavtokenizer_decNS2_IS6_EEvvEERS4_ONS0_IT_T0_EE, symObjAddr: 0x22E38, symBinAddr: 0x84FC0, symSize: 0x54 }
  - { offsetInCU: 0xAFFCD, offset: 0x3C0B42, size: 0x8, addend: 0x0, symName: __ZNSt3__110unique_ptrI26llm_build_wavtokenizer_decNS_14default_deleteIS1_EEED1B8ue170006Ev, symObjAddr: 0x22E8C, symBinAddr: 0x85014, symSize: 0x4C }
  - { offsetInCU: 0xB015C, offset: 0x3C0CD1, size: 0x8, addend: 0x0, symName: __ZNSt3__110unique_ptrI17llm_graph_contextNS_14default_deleteIS1_EEEaSB8ue170006I20llm_build_starcoder2NS2_IS6_EEvvEERS4_ONS0_IT_T0_EE, symObjAddr: 0x211F4, symBinAddr: 0x8337C, symSize: 0x54 }
  - { offsetInCU: 0xB02F9, offset: 0x3C0E6E, size: 0x8, addend: 0x0, symName: __ZNSt3__110unique_ptrI20llm_build_starcoder2NS_14default_deleteIS1_EEED1B8ue170006Ev, symObjAddr: 0x21248, symBinAddr: 0x833D0, symSize: 0x4C }
  - { offsetInCU: 0xB0488, offset: 0x3C0FFD, size: 0x8, addend: 0x0, symName: __ZNSt3__110unique_ptrI17llm_graph_contextNS_14default_deleteIS1_EEEaSB8ue170006I15llm_build_olmo2NS2_IS6_EEvvEERS4_ONS0_IT_T0_EE, symObjAddr: 0x21948, symBinAddr: 0x83AD0, symSize: 0x54 }
  - { offsetInCU: 0xB0625, offset: 0x3C119A, size: 0x8, addend: 0x0, symName: __ZNSt3__110unique_ptrI15llm_build_olmo2NS_14default_deleteIS1_EEED1B8ue170006Ev, symObjAddr: 0x2199C, symBinAddr: 0x83B24, symSize: 0x4C }
  - { offsetInCU: 0xB07B4, offset: 0x3C1329, size: 0x8, addend: 0x0, symName: __ZNSt3__110unique_ptrI17llm_graph_contextNS_14default_deleteIS1_EEEaSB8ue170006I22llm_build_cohere2_iswaNS2_IS6_EEvvEERS4_ONS0_IT_T0_EE, symObjAddr: 0x21624, symBinAddr: 0x837AC, symSize: 0x54 }
  - { offsetInCU: 0xB0951, offset: 0x3C14C6, size: 0x8, addend: 0x0, symName: __ZNSt3__110unique_ptrI22llm_build_cohere2_iswaNS_14default_deleteIS1_EEED1B8ue170006Ev, symObjAddr: 0x21678, symBinAddr: 0x83800, symSize: 0x4C }
  - { offsetInCU: 0xB0AE0, offset: 0x3C1655, size: 0x8, addend: 0x0, symName: __ZNSt3__110unique_ptrI17llm_graph_contextNS_14default_deleteIS1_EEEaSB8ue170006I19llm_build_chameleonNS2_IS6_EEvvEERS4_ONS0_IT_T0_EE, symObjAddr: 0x22D2C, symBinAddr: 0x84EB4, symSize: 0x54 }
  - { offsetInCU: 0xB0C7D, offset: 0x3C17F2, size: 0x8, addend: 0x0, symName: __ZNSt3__110unique_ptrI19llm_build_chameleonNS_14default_deleteIS1_EEED1B8ue170006Ev, symObjAddr: 0x22D80, symBinAddr: 0x84F08, symSize: 0x4C }
  - { offsetInCU: 0xB0E0C, offset: 0x3C1981, size: 0x8, addend: 0x0, symName: __ZNSt3__110unique_ptrI17llm_graph_contextNS_14default_deleteIS1_EEEaSB8ue170006I15llm_build_rwkv7NS2_IS6_EEvvEERS4_ONS0_IT_T0_EE, symObjAddr: 0x22B14, symBinAddr: 0x84C9C, symSize: 0x54 }
  - { offsetInCU: 0xB0FA9, offset: 0x3C1B1E, size: 0x8, addend: 0x0, symName: __ZNSt3__110unique_ptrI15llm_build_rwkv7NS_14default_deleteIS1_EEED1B8ue170006Ev, symObjAddr: 0x22B68, symBinAddr: 0x84CF0, symSize: 0x4C }
  - { offsetInCU: 0xB1155, offset: 0x3C1CCA, size: 0x8, addend: 0x0, symName: __ZNSt3__110unique_ptrI17llm_graph_contextNS_14default_deleteIS1_EEEaSB8ue170006I13llm_build_plmNS2_IS6_EEvvEERS4_ONS0_IT_T0_EE, symObjAddr: 0x22F44, symBinAddr: 0x850CC, symSize: 0x54 }
  - { offsetInCU: 0xB12F2, offset: 0x3C1E67, size: 0x8, addend: 0x0, symName: __ZNSt3__110unique_ptrI13llm_build_plmNS_14default_deleteIS1_EEED1B8ue170006Ev, symObjAddr: 0x22F98, symBinAddr: 0x85120, symSize: 0x4C }
  - { offsetInCU: 0xB1481, offset: 0x3C1FF6, size: 0x8, addend: 0x0, symName: __ZNSt3__110unique_ptrI17llm_graph_contextNS_14default_deleteIS1_EEEaSB8ue170006I16llm_build_arwkv7NS2_IS6_EEvvEERS4_ONS0_IT_T0_EE, symObjAddr: 0x22C20, symBinAddr: 0x84DA8, symSize: 0x54 }
  - { offsetInCU: 0xB161E, offset: 0x3C2193, size: 0x8, addend: 0x0, symName: __ZNSt3__110unique_ptrI16llm_build_arwkv7NS_14default_deleteIS1_EEED1B8ue170006Ev, symObjAddr: 0x22C74, symBinAddr: 0x84DFC, symSize: 0x4C }
  - { offsetInCU: 0xB17CA, offset: 0x3C233F, size: 0x8, addend: 0x0, symName: __ZNSt3__110unique_ptrI17llm_graph_contextNS_14default_deleteIS1_EEEaSB8ue170006I15llm_build_gemmaNS2_IS6_EEvvEERS4_ONS0_IT_T0_EE, symObjAddr: 0x20ED0, symBinAddr: 0x83058, symSize: 0x54 }
  - { offsetInCU: 0xB1967, offset: 0x3C24DC, size: 0x8, addend: 0x0, symName: __ZNSt3__110unique_ptrI15llm_build_gemmaNS_14default_deleteIS1_EEED1B8ue170006Ev, symObjAddr: 0x20F24, symBinAddr: 0x830AC, symSize: 0x4C }
  - { offsetInCU: 0xB1AF6, offset: 0x3C266B, size: 0x8, addend: 0x0, symName: __ZNSt3__110unique_ptrI17llm_graph_contextNS_14default_deleteIS1_EEEaSB8ue170006I18llm_build_nemotronNS2_IS6_EEvvEERS4_ONS0_IT_T0_EE, symObjAddr: 0x226E4, symBinAddr: 0x8486C, symSize: 0x54 }
  - { offsetInCU: 0xB1C93, offset: 0x3C2808, size: 0x8, addend: 0x0, symName: __ZNSt3__110unique_ptrI18llm_build_nemotronNS_14default_deleteIS1_EEED1B8ue170006Ev, symObjAddr: 0x22738, symBinAddr: 0x848C0, symSize: 0x4C }
  - { offsetInCU: 0xB1E22, offset: 0x3C2997, size: 0x8, addend: 0x0, symName: __ZNSt3__110unique_ptrI17llm_graph_contextNS_14default_deleteIS1_EEEaSB8ue170006I15llm_build_rwkv6NS2_IS6_EEvvEERS4_ONS0_IT_T0_EE, symObjAddr: 0x228FC, symBinAddr: 0x84A84, symSize: 0x54 }
  - { offsetInCU: 0xB1FBF, offset: 0x3C2B34, size: 0x8, addend: 0x0, symName: __ZNSt3__110unique_ptrI15llm_build_rwkv6NS_14default_deleteIS1_EEED1B8ue170006Ev, symObjAddr: 0x22950, symBinAddr: 0x84AD8, symSize: 0x4C }
  - { offsetInCU: 0xB216B, offset: 0x3C2CE0, size: 0x8, addend: 0x0, symName: __ZNSt3__110unique_ptrI17llm_graph_contextNS_14default_deleteIS1_EEEaSB8ue170006I18llm_build_minicpm3NS2_IS6_EEvvEERS4_ONS0_IT_T0_EE, symObjAddr: 0x20DC4, symBinAddr: 0x82F4C, symSize: 0x54 }
  - { offsetInCU: 0xB2308, offset: 0x3C2E7D, size: 0x8, addend: 0x0, symName: __ZNSt3__110unique_ptrI18llm_build_minicpm3NS_14default_deleteIS1_EEED1B8ue170006Ev, symObjAddr: 0x20E18, symBinAddr: 0x82FA0, symSize: 0x4C }
  - { offsetInCU: 0xB2497, offset: 0x3C300C, size: 0x8, addend: 0x0, symName: __ZNSt3__110unique_ptrI17llm_graph_contextNS_14default_deleteIS1_EEEaSB8ue170006I21llm_build_gemma2_iswaNS2_IS6_EEvvEERS4_ONS0_IT_T0_EE, symObjAddr: 0x20FDC, symBinAddr: 0x83164, symSize: 0x54 }
  - { offsetInCU: 0xB2634, offset: 0x3C31A9, size: 0x8, addend: 0x0, symName: __ZNSt3__110unique_ptrI21llm_build_gemma2_iswaNS_14default_deleteIS1_EEED1B8ue170006Ev, symObjAddr: 0x21030, symBinAddr: 0x831B8, symSize: 0x4C }
  - { offsetInCU: 0xB27C3, offset: 0x3C3338, size: 0x8, addend: 0x0, symName: __ZNSt3__110unique_ptrI17llm_graph_contextNS_14default_deleteIS1_EEEaSB8ue170006I21llm_build_gemma3_iswaNS2_IS6_EEvvEERS4_ONS0_IT_T0_EE, symObjAddr: 0x210E8, symBinAddr: 0x83270, symSize: 0x54 }
  - { offsetInCU: 0xB2960, offset: 0x3C34D5, size: 0x8, addend: 0x0, symName: __ZNSt3__110unique_ptrI21llm_build_gemma3_iswaNS_14default_deleteIS1_EEED1B8ue170006Ev, symObjAddr: 0x2113C, symBinAddr: 0x832C4, symSize: 0x4C }
  - { offsetInCU: 0xB2AEF, offset: 0x3C3664, size: 0x8, addend: 0x0, symName: __ZNSt3__110unique_ptrI17llm_graph_contextNS_14default_deleteIS1_EEEaSB8ue170006I18llm_build_qwen2moeNS2_IS6_EEvvEERS4_ONS0_IT_T0_EE, symObjAddr: 0x20240, symBinAddr: 0x823C8, symSize: 0x54 }
  - { offsetInCU: 0xB2C8C, offset: 0x3C3801, size: 0x8, addend: 0x0, symName: __ZNSt3__110unique_ptrI18llm_build_qwen2moeNS_14default_deleteIS1_EEED1B8ue170006Ev, symObjAddr: 0x20294, symBinAddr: 0x8241C, symSize: 0x4C }
  - { offsetInCU: 0xB2E1B, offset: 0x3C3990, size: 0x8, addend: 0x0, symName: __ZNSt3__110unique_ptrI17llm_graph_contextNS_14default_deleteIS1_EEEaSB8ue170006I15llm_build_qwen2NS2_IS6_EEvvEERS4_ONS0_IT_T0_EE, symObjAddr: 0x20028, symBinAddr: 0x821B0, symSize: 0x54 }
  - { offsetInCU: 0xB2FB8, offset: 0x3C3B2D, size: 0x8, addend: 0x0, symName: __ZNSt3__110unique_ptrI15llm_build_qwen2NS_14default_deleteIS1_EEED1B8ue170006Ev, symObjAddr: 0x2007C, symBinAddr: 0x82204, symSize: 0x4C }
  - { offsetInCU: 0xB3147, offset: 0x3C3CBC, size: 0x8, addend: 0x0, symName: __ZNSt3__110unique_ptrI17llm_graph_contextNS_14default_deleteIS1_EEEaSB8ue170006I18llm_build_stablelmNS2_IS6_EEvvEERS4_ONS0_IT_T0_EE, symObjAddr: 0x1FE10, symBinAddr: 0x81F98, symSize: 0x54 }
  - { offsetInCU: 0xB32E4, offset: 0x3C3E59, size: 0x8, addend: 0x0, symName: __ZNSt3__110unique_ptrI18llm_build_stablelmNS_14default_deleteIS1_EEED1B8ue170006Ev, symObjAddr: 0x1FE64, symBinAddr: 0x81FEC, symSize: 0x4C }
  - { offsetInCU: 0xB3473, offset: 0x3C3FE8, size: 0x8, addend: 0x0, symName: __ZNSt3__110unique_ptrI17llm_graph_contextNS_14default_deleteIS1_EEEaSB8ue170006I15llm_build_olmoeNS2_IS6_EEvvEERS4_ONS0_IT_T0_EE, symObjAddr: 0x21A54, symBinAddr: 0x83BDC, symSize: 0x54 }
  - { offsetInCU: 0xB3610, offset: 0x3C4185, size: 0x8, addend: 0x0, symName: __ZNSt3__110unique_ptrI15llm_build_olmoeNS_14default_deleteIS1_EEED1B8ue170006Ev, symObjAddr: 0x21AA8, symBinAddr: 0x83C30, symSize: 0x4C }
  - { offsetInCU: 0xB379F, offset: 0x3C4314, size: 0x8, addend: 0x0, symName: __ZNSt3__110unique_ptrI17llm_graph_contextNS_14default_deleteIS1_EEEaSB8ue170006I17llm_build_qwen2vlNS2_IS6_EEvvEERS4_ONS0_IT_T0_EE, symObjAddr: 0x20134, symBinAddr: 0x822BC, symSize: 0x54 }
  - { offsetInCU: 0xB393C, offset: 0x3C44B1, size: 0x8, addend: 0x0, symName: __ZNSt3__110unique_ptrI17llm_build_qwen2vlNS_14default_deleteIS1_EEED1B8ue170006Ev, symObjAddr: 0x20188, symBinAddr: 0x82310, symSize: 0x4C }
  - { offsetInCU: 0xB3ACB, offset: 0x3C4640, size: 0x8, addend: 0x0, symName: __ZNSt3__110unique_ptrI17llm_graph_contextNS_14default_deleteIS1_EEEaSB8ue170006I16llm_build_t5_encNS2_IS6_EEvvEERS4_ONS0_IT_T0_EE, symObjAddr: 0x223C0, symBinAddr: 0x84548, symSize: 0x54 }
  - { offsetInCU: 0xB3C68, offset: 0x3C47DD, size: 0x8, addend: 0x0, symName: __ZNSt3__110unique_ptrI16llm_build_t5_encNS_14default_deleteIS1_EEED1B8ue170006Ev, symObjAddr: 0x22414, symBinAddr: 0x8459C, symSize: 0x4C }
  - { offsetInCU: 0xB3DF7, offset: 0x3C496C, size: 0x8, addend: 0x0, symName: __ZNSt3__110unique_ptrI17llm_graph_contextNS_14default_deleteIS1_EEEaSB8ue170006I15llm_build_bloomNS2_IS6_EEvvEERS4_ONS0_IT_T0_EE, symObjAddr: 0x1FBF8, symBinAddr: 0x81D80, symSize: 0x54 }
  - { offsetInCU: 0xB3F94, offset: 0x3C4B09, size: 0x8, addend: 0x0, symName: __ZNSt3__110unique_ptrI15llm_build_bloomNS_14default_deleteIS1_EEED1B8ue170006Ev, symObjAddr: 0x1FC4C, symBinAddr: 0x81DD4, symSize: 0x4C }
  - { offsetInCU: 0xB4123, offset: 0x3C4C98, size: 0x8, addend: 0x0, symName: __ZNSt3__110unique_ptrI17llm_graph_contextNS_14default_deleteIS1_EEEaSB8ue170006I18llm_build_neo_bertNS2_IS6_EEvvEERS4_ONS0_IT_T0_EE, symObjAddr: 0x1FAEC, symBinAddr: 0x81C74, symSize: 0x54 }
  - { offsetInCU: 0xB42C0, offset: 0x3C4E35, size: 0x8, addend: 0x0, symName: __ZNSt3__110unique_ptrI18llm_build_neo_bertNS_14default_deleteIS1_EEED1B8ue170006Ev, symObjAddr: 0x1FB40, symBinAddr: 0x81CC8, symSize: 0x4C }
  - { offsetInCU: 0xB444F, offset: 0x3C4FC4, size: 0x8, addend: 0x0, symName: __ZNSt3__110unique_ptrI17llm_graph_contextNS_14default_deleteIS1_EEEaSB8ue170006I14llm_build_dbrxNS2_IS6_EEvvEERS4_ONS0_IT_T0_EE, symObjAddr: 0x21730, symBinAddr: 0x838B8, symSize: 0x54 }
  - { offsetInCU: 0xB45EC, offset: 0x3C5161, size: 0x8, addend: 0x0, symName: __ZNSt3__110unique_ptrI14llm_build_dbrxNS_14default_deleteIS1_EEED1B8ue170006Ev, symObjAddr: 0x21784, symBinAddr: 0x8390C, symSize: 0x4C }
  - { offsetInCU: 0xB477B, offset: 0x3C52F0, size: 0x8, addend: 0x0, symName: __ZNSt3__110unique_ptrI17llm_graph_contextNS_14default_deleteIS1_EEEaSB8ue170006I16llm_build_refactNS2_IS6_EEvvEERS4_ONS0_IT_T0_EE, symObjAddr: 0x1F9E0, symBinAddr: 0x81B68, symSize: 0x54 }
  - { offsetInCU: 0xB4918, offset: 0x3C548D, size: 0x8, addend: 0x0, symName: __ZNSt3__110unique_ptrI16llm_build_refactNS_14default_deleteIS1_EEED1B8ue170006Ev, symObjAddr: 0x1FA34, symBinAddr: 0x81BBC, symSize: 0x4C }
  - { offsetInCU: 0xB4AA7, offset: 0x3C561C, size: 0x8, addend: 0x0, symName: __ZNSt3__110unique_ptrI17llm_graph_contextNS_14default_deleteIS1_EEEaSB8ue170006I19llm_build_internlm2NS2_IS6_EEvvEERS4_ONS0_IT_T0_EE, symObjAddr: 0x20CB8, symBinAddr: 0x82E40, symSize: 0x54 }
  - { offsetInCU: 0xB4C44, offset: 0x3C57B9, size: 0x8, addend: 0x0, symName: __ZNSt3__110unique_ptrI19llm_build_internlm2NS_14default_deleteIS1_EEED1B8ue170006Ev, symObjAddr: 0x20D0C, symBinAddr: 0x82E94, symSize: 0x4C }
  - { offsetInCU: 0xB4DD3, offset: 0x3C5948, size: 0x8, addend: 0x0, symName: __ZNSt3__110unique_ptrI17llm_graph_contextNS_14default_deleteIS1_EEEaSB8ue170006I14llm_build_grokNS2_IS6_EEvvEERS4_ONS0_IT_T0_EE, symObjAddr: 0x1F7C8, symBinAddr: 0x81950, symSize: 0x54 }
  - { offsetInCU: 0xB4F70, offset: 0x3C5AE5, size: 0x8, addend: 0x0, symName: __ZNSt3__110unique_ptrI14llm_build_grokNS_14default_deleteIS1_EEED1B8ue170006Ev, symObjAddr: 0x1F81C, symBinAddr: 0x819A4, symSize: 0x4C }
  - { offsetInCU: 0xB50FF, offset: 0x3C5C74, size: 0x8, addend: 0x0, symName: __ZNSt3__110unique_ptrI17llm_graph_contextNS_14default_deleteIS1_EEEaSB8ue170006I19llm_build_codeshellNS2_IS6_EEvvEERS4_ONS0_IT_T0_EE, symObjAddr: 0x20AA0, symBinAddr: 0x82C28, symSize: 0x54 }
  - { offsetInCU: 0xB529C, offset: 0x3C5E11, size: 0x8, addend: 0x0, symName: __ZNSt3__110unique_ptrI19llm_build_codeshellNS_14default_deleteIS1_EEED1B8ue170006Ev, symObjAddr: 0x20AF4, symBinAddr: 0x82C7C, symSize: 0x4C }
  - { offsetInCU: 0xB542B, offset: 0x3C5FA0, size: 0x8, addend: 0x0, symName: __ZNSt3__110unique_ptrI17llm_graph_contextNS_14default_deleteIS1_EEEaSB8ue170006I14llm_build_glm4NS2_IS6_EEvvEERS4_ONS0_IT_T0_EE, symObjAddr: 0x221A8, symBinAddr: 0x84330, symSize: 0x54 }
  - { offsetInCU: 0xB55C8, offset: 0x3C613D, size: 0x8, addend: 0x0, symName: __ZNSt3__110unique_ptrI14llm_build_glm4NS_14default_deleteIS1_EEED1B8ue170006Ev, symObjAddr: 0x221FC, symBinAddr: 0x84384, symSize: 0x4C }
  - { offsetInCU: 0xB5757, offset: 0x3C62CC, size: 0x8, addend: 0x0, symName: __ZNSt3__110unique_ptrI17llm_graph_contextNS_14default_deleteIS1_EEEaSB8ue170006I17llm_build_gptneoxNS2_IS6_EEvvEERS4_ONS0_IT_T0_EE, symObjAddr: 0x21C6C, symBinAddr: 0x83DF4, symSize: 0x54 }
  - { offsetInCU: 0xB58F4, offset: 0x3C6469, size: 0x8, addend: 0x0, symName: __ZNSt3__110unique_ptrI17llm_build_gptneoxNS_14default_deleteIS1_EEED1B8ue170006Ev, symObjAddr: 0x21CC0, symBinAddr: 0x83E48, symSize: 0x4C }
  - { offsetInCU: 0xB5A83, offset: 0x3C65F8, size: 0x8, addend: 0x0, symName: __ZNSt3__110unique_ptrI17llm_graph_contextNS_14default_deleteIS1_EEEaSB8ue170006I14llm_build_deciNS2_IS6_EEvvEERS4_ONS0_IT_T0_EE, symObjAddr: 0x1F4A4, symBinAddr: 0x8162C, symSize: 0x54 }
  - { offsetInCU: 0xB5C20, offset: 0x3C6795, size: 0x8, addend: 0x0, symName: __ZNSt3__110unique_ptrI14llm_build_deciNS_14default_deleteIS1_EEED1B8ue170006Ev, symObjAddr: 0x1F4F8, symBinAddr: 0x81680, symSize: 0x4C }
  - { offsetInCU: 0xB5DAF, offset: 0x3C6924, size: 0x8, addend: 0x0, symName: __ZNSt3__110unique_ptrI17llm_graph_contextNS_14default_deleteIS1_EEEaSB8ue170006I15llm_build_llamaNS2_IS6_EEvvEERS4_ONS0_IT_T0_EE, symObjAddr: 0x1F28C, symBinAddr: 0x81414, symSize: 0x54 }
  - { offsetInCU: 0xB5F4C, offset: 0x3C6AC1, size: 0x8, addend: 0x0, symName: __ZNSt3__110unique_ptrI15llm_build_llamaNS_14default_deleteIS1_EEED1B8ue170006Ev, symObjAddr: 0x1F2E0, symBinAddr: 0x81468, symSize: 0x4C }
  - { offsetInCU: 0xB60DB, offset: 0x3C6C50, size: 0x8, addend: 0x0, symName: __ZNSt3__110unique_ptrI17llm_graph_contextNS_14default_deleteIS1_EEEaSB8ue170006I15llm_build_orionNS2_IS6_EEvvEERS4_ONS0_IT_T0_EE, symObjAddr: 0x20BAC, symBinAddr: 0x82D34, symSize: 0x54 }
  - { offsetInCU: 0xB6278, offset: 0x3C6DED, size: 0x8, addend: 0x0, symName: __ZNSt3__110unique_ptrI15llm_build_orionNS_14default_deleteIS1_EEED1B8ue170006Ev, symObjAddr: 0x20C00, symBinAddr: 0x82D88, symSize: 0x4C }
  - { offsetInCU: 0xB6407, offset: 0x3C6F7C, size: 0x8, addend: 0x0, symName: __ZNSt3__110unique_ptrI17llm_graph_contextNS_14default_deleteIS1_EEEaSB8ue170006I20llm_build_llama_iswaNS2_IS6_EEvvEERS4_ONS0_IT_T0_EE, symObjAddr: 0x1F398, symBinAddr: 0x81520, symSize: 0x54 }
  - { offsetInCU: 0xB65A4, offset: 0x3C7119, size: 0x8, addend: 0x0, symName: __ZNSt3__110unique_ptrI20llm_build_llama_iswaNS_14default_deleteIS1_EEED1B8ue170006Ev, symObjAddr: 0x1F3EC, symBinAddr: 0x81574, symSize: 0x4C }
  - { offsetInCU: 0xB6733, offset: 0x3C72A8, size: 0x8, addend: 0x0, symName: __ZNSt3__110unique_ptrI17llm_graph_contextNS_14default_deleteIS1_EEEaSB8ue170006I17llm_build_chatglmNS2_IS6_EEvvEERS4_ONS0_IT_T0_EE, symObjAddr: 0x2209C, symBinAddr: 0x84224, symSize: 0x54 }
  - { offsetInCU: 0xB68D0, offset: 0x3C7445, size: 0x8, addend: 0x0, symName: __ZNSt3__110unique_ptrI17llm_build_chatglmNS_14default_deleteIS1_EEED1B8ue170006Ev, symObjAddr: 0x220F0, symBinAddr: 0x84278, symSize: 0x4C }
  - { offsetInCU: 0xB6A5F, offset: 0x3C75D4, size: 0x8, addend: 0x0, symName: __ZNSt3__110unique_ptrI17llm_graph_contextNS_14default_deleteIS1_EEEaSB8ue170006I14llm_build_gpt2NS2_IS6_EEvvEERS4_ONS0_IT_T0_EE, symObjAddr: 0x20994, symBinAddr: 0x82B1C, symSize: 0x54 }
  - { offsetInCU: 0xB6BFC, offset: 0x3C7771, size: 0x8, addend: 0x0, symName: __ZNSt3__110unique_ptrI14llm_build_gpt2NS_14default_deleteIS1_EEED1B8ue170006Ev, symObjAddr: 0x209E8, symBinAddr: 0x82B70, symSize: 0x4C }
  - { offsetInCU: 0xB6D8B, offset: 0x3C7900, size: 0x8, addend: 0x0, symName: __ZNSt3__110unique_ptrI17llm_graph_contextNS_14default_deleteIS1_EEEaSB8ue170006I18llm_build_baichuanNS2_IS6_EEvvEERS4_ONS0_IT_T0_EE, symObjAddr: 0x1F5B0, symBinAddr: 0x81738, symSize: 0x54 }
  - { offsetInCU: 0xB6F28, offset: 0x3C7A9D, size: 0x8, addend: 0x0, symName: __ZNSt3__110unique_ptrI18llm_build_baichuanNS_14default_deleteIS1_EEED1B8ue170006Ev, symObjAddr: 0x1F604, symBinAddr: 0x8178C, symSize: 0x4C }
  - { offsetInCU: 0xB70B7, offset: 0x3C7C2C, size: 0x8, addend: 0x0, symName: __ZNSt3__110unique_ptrI17llm_graph_contextNS_14default_deleteIS1_EEEaSB8ue170006I16llm_build_falconNS2_IS6_EEvvEERS4_ONS0_IT_T0_EE, symObjAddr: 0x1F6BC, symBinAddr: 0x81844, symSize: 0x54 }
  - { offsetInCU: 0xB7254, offset: 0x3C7DC9, size: 0x8, addend: 0x0, symName: __ZNSt3__110unique_ptrI16llm_build_falconNS_14default_deleteIS1_EEED1B8ue170006Ev, symObjAddr: 0x1F710, symBinAddr: 0x81898, symSize: 0x4C }
  - { offsetInCU: 0xB73E3, offset: 0x3C7F58, size: 0x8, addend: 0x0, symName: __ZNSt3__110unique_ptrI17llm_graph_contextNS_14default_deleteIS1_EEEaSB8ue170006I14llm_build_qwenNS2_IS6_EEvvEERS4_ONS0_IT_T0_EE, symObjAddr: 0x1FF1C, symBinAddr: 0x820A4, symSize: 0x54 }
  - { offsetInCU: 0xB7580, offset: 0x3C80F5, size: 0x8, addend: 0x0, symName: __ZNSt3__110unique_ptrI14llm_build_qwenNS_14default_deleteIS1_EEED1B8ue170006Ev, symObjAddr: 0x1FF70, symBinAddr: 0x820F8, symSize: 0x4C }
  - { offsetInCU: 0xB770F, offset: 0x3C8284, size: 0x8, addend: 0x0, symName: __ZNSt3__110unique_ptrI17llm_graph_contextNS_14default_deleteIS1_EEEaSB8ue170006I19llm_build_deepseek2NS2_IS6_EEvvEERS4_ONS0_IT_T0_EE, symObjAddr: 0x21F90, symBinAddr: 0x84118, symSize: 0x54 }
  - { offsetInCU: 0xB78AC, offset: 0x3C8421, size: 0x8, addend: 0x0, symName: __ZNSt3__110unique_ptrI19llm_build_deepseek2NS_14default_deleteIS1_EEED1B8ue170006Ev, symObjAddr: 0x21FE4, symBinAddr: 0x8416C, symSize: 0x4C }
  - { offsetInCU: 0xB7A3B, offset: 0x3C85B0, size: 0x8, addend: 0x0, symName: __ZNSt3__110unique_ptrI17llm_graph_contextNS_14default_deleteIS1_EEEaSB8ue170006I15llm_build_qwen3NS2_IS6_EEvvEERS4_ONS0_IT_T0_EE, symObjAddr: 0x2034C, symBinAddr: 0x824D4, symSize: 0x54 }
  - { offsetInCU: 0xB7BD8, offset: 0x3C874D, size: 0x8, addend: 0x0, symName: __ZNSt3__110unique_ptrI15llm_build_qwen3NS_14default_deleteIS1_EEED1B8ue170006Ev, symObjAddr: 0x203A0, symBinAddr: 0x82528, symSize: 0x4C }
  - { offsetInCU: 0xB7D67, offset: 0x3C88DC, size: 0x8, addend: 0x0, symName: __ZNSt3__110unique_ptrI17llm_graph_contextNS_14default_deleteIS1_EEEaSB8ue170006I14llm_build_phi2NS2_IS6_EEvvEERS4_ONS0_IT_T0_EE, symObjAddr: 0x20564, symBinAddr: 0x826EC, symSize: 0x54 }
  - { offsetInCU: 0xB7F04, offset: 0x3C8A79, size: 0x8, addend: 0x0, symName: __ZNSt3__110unique_ptrI14llm_build_phi2NS_14default_deleteIS1_EEED1B8ue170006Ev, symObjAddr: 0x205B8, symBinAddr: 0x82740, symSize: 0x4C }
  - { offsetInCU: 0xB8093, offset: 0x3C8C08, size: 0x8, addend: 0x0, symName: __ZNSt3__110unique_ptrI17llm_graph_contextNS_14default_deleteIS1_EEEaSB8ue170006I15llm_build_plamoNS2_IS6_EEvvEERS4_ONS0_IT_T0_EE, symObjAddr: 0x20888, symBinAddr: 0x82A10, symSize: 0x54 }
  - { offsetInCU: 0xB8230, offset: 0x3C8DA5, size: 0x8, addend: 0x0, symName: __ZNSt3__110unique_ptrI15llm_build_plamoNS_14default_deleteIS1_EEED1B8ue170006Ev, symObjAddr: 0x208DC, symBinAddr: 0x82A64, symSize: 0x4C }
  - { offsetInCU: 0xB83BF, offset: 0x3C8F34, size: 0x8, addend: 0x0, symName: __ZNSt3__110unique_ptrI17llm_graph_contextNS_14default_deleteIS1_EEEaSB8ue170006I13llm_build_mptNS2_IS6_EEvvEERS4_ONS0_IT_T0_EE, symObjAddr: 0x1FD04, symBinAddr: 0x81E8C, symSize: 0x54 }
  - { offsetInCU: 0xB855C, offset: 0x3C90D1, size: 0x8, addend: 0x0, symName: __ZNSt3__110unique_ptrI13llm_build_mptNS_14default_deleteIS1_EEED1B8ue170006Ev, symObjAddr: 0x1FD58, symBinAddr: 0x81EE0, symSize: 0x4C }
  - { offsetInCU: 0xB86EB, offset: 0x3C9260, size: 0x8, addend: 0x0, symName: __ZNSt3__110unique_ptrI17llm_graph_contextNS_14default_deleteIS1_EEEaSB8ue170006I19llm_build_starcoderNS2_IS6_EEvvEERS4_ONS0_IT_T0_EE, symObjAddr: 0x1F8D4, symBinAddr: 0x81A5C, symSize: 0x54 }
  - { offsetInCU: 0xB8888, offset: 0x3C93FD, size: 0x8, addend: 0x0, symName: __ZNSt3__110unique_ptrI19llm_build_starcoderNS_14default_deleteIS1_EEED1B8ue170006Ev, symObjAddr: 0x1F928, symBinAddr: 0x81AB0, symSize: 0x4C }
  - { offsetInCU: 0xB8A17, offset: 0x3C958C, size: 0x8, addend: 0x0, symName: __ZNSt3__110unique_ptrI17llm_graph_contextNS_14default_deleteIS1_EEEaSB8ue170006I17llm_build_openelmNS2_IS6_EEvvEERS4_ONS0_IT_T0_EE, symObjAddr: 0x21B60, symBinAddr: 0x83CE8, symSize: 0x54 }
  - { offsetInCU: 0xB8BB4, offset: 0x3C9729, size: 0x8, addend: 0x0, symName: __ZNSt3__110unique_ptrI17llm_build_openelmNS_14default_deleteIS1_EEED1B8ue170006Ev, symObjAddr: 0x21BB4, symBinAddr: 0x83D3C, symSize: 0x4C }
  - { offsetInCU: 0xB8D43, offset: 0x3C98B8, size: 0x8, addend: 0x0, symName: __ZNSt3__110unique_ptrI17llm_graph_contextNS_14default_deleteIS1_EEEaSB8ue170006I16llm_build_xverseNS2_IS6_EEvvEERS4_ONS0_IT_T0_EE, symObjAddr: 0x2140C, symBinAddr: 0x83594, symSize: 0x54 }
  - { offsetInCU: 0xB8EE0, offset: 0x3C9A55, size: 0x8, addend: 0x0, symName: __ZNSt3__110unique_ptrI16llm_build_xverseNS_14default_deleteIS1_EEED1B8ue170006Ev, symObjAddr: 0x21460, symBinAddr: 0x835E8, symSize: 0x4C }
  - { offsetInCU: 0xB906F, offset: 0x3C9BE4, size: 0x8, addend: 0x0, symName: __ZNSt3__110unique_ptrI17llm_graph_contextNS_14default_deleteIS1_EEEaSB8ue170006I18llm_build_qwen3moeNS2_IS6_EEvvEERS4_ONS0_IT_T0_EE, symObjAddr: 0x20458, symBinAddr: 0x825E0, symSize: 0x54 }
  - { offsetInCU: 0xB920C, offset: 0x3C9D81, size: 0x8, addend: 0x0, symName: __ZNSt3__110unique_ptrI18llm_build_qwen3moeNS_14default_deleteIS1_EEED1B8ue170006Ev, symObjAddr: 0x204AC, symBinAddr: 0x82634, symSize: 0x4C }
  - { offsetInCU: 0xB939B, offset: 0x3C9F10, size: 0x8, addend: 0x0, symName: __ZNSt3__110unique_ptrI17llm_graph_contextNS_14default_deleteIS1_EEEaSB8ue170006I15llm_build_arceeNS2_IS6_EEvvEERS4_ONS0_IT_T0_EE, symObjAddr: 0x23268, symBinAddr: 0x853F0, symSize: 0x54 }
  - { offsetInCU: 0xB9538, offset: 0x3CA0AD, size: 0x8, addend: 0x0, symName: __ZNSt3__110unique_ptrI15llm_build_arceeNS_14default_deleteIS1_EEED1B8ue170006Ev, symObjAddr: 0x232BC, symBinAddr: 0x85444, symSize: 0x4C }
  - { offsetInCU: 0xB96C7, offset: 0x3CA23C, size: 0x8, addend: 0x0, symName: __ZNSt3__110unique_ptrI17llm_graph_contextNS_14default_deleteIS1_EEEaSB8ue170006I14llm_build_olmoNS2_IS6_EEvvEERS4_ONS0_IT_T0_EE, symObjAddr: 0x2183C, symBinAddr: 0x839C4, symSize: 0x54 }
  - { offsetInCU: 0xB9864, offset: 0x3CA3D9, size: 0x8, addend: 0x0, symName: __ZNSt3__110unique_ptrI14llm_build_olmoNS_14default_deleteIS1_EEED1B8ue170006Ev, symObjAddr: 0x21890, symBinAddr: 0x83A18, symSize: 0x4C }
  - { offsetInCU: 0xB99F3, offset: 0x3CA568, size: 0x8, addend: 0x0, symName: __ZNSt3__110unique_ptrI17llm_graph_contextNS_14default_deleteIS1_EEEaSB8ue170006I19llm_build_command_rNS2_IS6_EEvvEERS4_ONS0_IT_T0_EE, symObjAddr: 0x21518, symBinAddr: 0x836A0, symSize: 0x54 }
  - { offsetInCU: 0xB9B90, offset: 0x3CA705, size: 0x8, addend: 0x0, symName: __ZNSt3__110unique_ptrI19llm_build_command_rNS_14default_deleteIS1_EEED1B8ue170006Ev, symObjAddr: 0x2156C, symBinAddr: 0x836F4, symSize: 0x4C }
  - { offsetInCU: 0xB9D1F, offset: 0x3CA894, size: 0x8, addend: 0x0, symName: __ZNSt3__110unique_ptrI17llm_graph_contextNS_14default_deleteIS1_EEEaSB8ue170006I16llm_build_bitnetNS2_IS6_EEvvEERS4_ONS0_IT_T0_EE, symObjAddr: 0x222B4, symBinAddr: 0x8443C, symSize: 0x54 }
  - { offsetInCU: 0xB9EBC, offset: 0x3CAA31, size: 0x8, addend: 0x0, symName: __ZNSt3__110unique_ptrI16llm_build_bitnetNS_14default_deleteIS1_EEED1B8ue170006Ev, symObjAddr: 0x22308, symBinAddr: 0x84490, symSize: 0x4C }
  - { offsetInCU: 0xBA04B, offset: 0x3CABC0, size: 0x8, addend: 0x0, symName: __ZNSt3__110unique_ptrI17llm_graph_contextNS_14default_deleteIS1_EEEaSB8ue170006I15llm_build_mambaNS2_IS6_EEvvEERS4_ONS0_IT_T0_EE, symObjAddr: 0x21300, symBinAddr: 0x83488, symSize: 0x54 }
  - { offsetInCU: 0xBA1E8, offset: 0x3CAD5D, size: 0x8, addend: 0x0, symName: __ZNSt3__110unique_ptrI15llm_build_mambaNS_14default_deleteIS1_EEED1B8ue170006Ev, symObjAddr: 0x21354, symBinAddr: 0x834DC, symSize: 0x4C }
  - { offsetInCU: 0xBA377, offset: 0x3CAEEC, size: 0x8, addend: 0x0, symName: __ZNSt3__110unique_ptrI17llm_graph_contextNS_14default_deleteIS1_EEEaSB8ue170006I16llm_build_arcticNS2_IS6_EEvvEERS4_ONS0_IT_T0_EE, symObjAddr: 0x21D78, symBinAddr: 0x83F00, symSize: 0x54 }
  - { offsetInCU: 0xBA514, offset: 0x3CB089, size: 0x8, addend: 0x0, symName: __ZNSt3__110unique_ptrI16llm_build_arcticNS_14default_deleteIS1_EEED1B8ue170006Ev, symObjAddr: 0x21DCC, symBinAddr: 0x83F54, symSize: 0x4C }
  - { offsetInCU: 0xBA6A3, offset: 0x3CB218, size: 0x8, addend: 0x0, symName: __ZNSt3__110unique_ptrI17llm_graph_contextNS_14default_deleteIS1_EEEaSB8ue170006I14llm_build_jaisNS2_IS6_EEvvEERS4_ONS0_IT_T0_EE, symObjAddr: 0x225D8, symBinAddr: 0x84760, symSize: 0x54 }
  - { offsetInCU: 0xBA840, offset: 0x3CB3B5, size: 0x8, addend: 0x0, symName: __ZNSt3__110unique_ptrI14llm_build_jaisNS_14default_deleteIS1_EEED1B8ue170006Ev, symObjAddr: 0x2262C, symBinAddr: 0x847B4, symSize: 0x4C }
  - { offsetInCU: 0xBA9CF, offset: 0x3CB544, size: 0x8, addend: 0x0, symName: __ZNSt3__110unique_ptrI17llm_graph_contextNS_14default_deleteIS1_EEEaSB8ue170006I18llm_build_deepseekNS2_IS6_EEvvEERS4_ONS0_IT_T0_EE, symObjAddr: 0x21E84, symBinAddr: 0x8400C, symSize: 0x54 }
  - { offsetInCU: 0xBAB6C, offset: 0x3CB6E1, size: 0x8, addend: 0x0, symName: __ZNSt3__110unique_ptrI18llm_build_deepseekNS_14default_deleteIS1_EEED1B8ue170006Ev, symObjAddr: 0x21ED8, symBinAddr: 0x84060, symSize: 0x4C }
  - { offsetInCU: 0xBACFB, offset: 0x3CB870, size: 0x8, addend: 0x0, symName: __ZNSt3__110unique_ptrI17llm_graph_contextNS_14default_deleteIS1_EEEaSB8ue170006I20llm_build_bailingmoeNS2_IS6_EEvvEERS4_ONS0_IT_T0_EE, symObjAddr: 0x23050, symBinAddr: 0x851D8, symSize: 0x54 }
  - { offsetInCU: 0xBAE98, offset: 0x3CBA0D, size: 0x8, addend: 0x0, symName: __ZNSt3__110unique_ptrI20llm_build_bailingmoeNS_14default_deleteIS1_EEED1B8ue170006Ev, symObjAddr: 0x230A4, symBinAddr: 0x8522C, symSize: 0x4C }
  - { offsetInCU: 0xBB027, offset: 0x3CBB9C, size: 0x8, addend: 0x0, symName: __ZNSt3__110unique_ptrI17llm_graph_contextNS_14default_deleteIS1_EEEaSB8ue170006I14llm_build_phi3ILb0EENS2_IS7_EEvvEERS4_ONS0_IT_T0_EE, symObjAddr: 0x2077C, symBinAddr: 0x82904, symSize: 0x54 }
  - { offsetInCU: 0xBB1C4, offset: 0x3CBD39, size: 0x8, addend: 0x0, symName: __ZNSt3__110unique_ptrI14llm_build_phi3ILb0EENS_14default_deleteIS2_EEED1B8ue170006Ev, symObjAddr: 0x207D0, symBinAddr: 0x82958, symSize: 0x4C }
  - { offsetInCU: 0xBB353, offset: 0x3CBEC8, size: 0x8, addend: 0x0, symName: __ZNSt3__110unique_ptrI17llm_graph_contextNS_14default_deleteIS1_EEEaSB8ue170006I16llm_build_t5_decNS2_IS6_EEvvEERS4_ONS0_IT_T0_EE, symObjAddr: 0x224CC, symBinAddr: 0x84654, symSize: 0x54 }
  - { offsetInCU: 0xBB4F0, offset: 0x3CC065, size: 0x8, addend: 0x0, symName: __ZNSt3__110unique_ptrI16llm_build_t5_decNS_14default_deleteIS1_EEED1B8ue170006Ev, symObjAddr: 0x22520, symBinAddr: 0x846A8, symSize: 0x4C }
  - { offsetInCU: 0xBB67F, offset: 0x3CC1F4, size: 0x8, addend: 0x0, symName: __ZNSt3__110unique_ptrI17llm_graph_contextNS_14default_deleteIS1_EEED1B8ue170006Ev, symObjAddr: 0x23308, symBinAddr: 0x85490, symSize: 0x4C }
  - { offsetInCU: 0xBB93E, offset: 0x3CC4B3, size: 0x8, addend: 0x0, symName: __ZN15llm_build_llamaC2ERK11llama_modelRK16llm_graph_paramsP11ggml_cgraph, symObjAddr: 0x32B8C, symBinAddr: 0x8BAB8, symSize: 0x714 }
  - { offsetInCU: 0xBC198, offset: 0x3CCD0D, size: 0x8, addend: 0x0, symName: __ZN20llm_build_llama_iswaC2ERK11llama_modelRK16llm_graph_paramsP11ggml_cgraph, symObjAddr: 0x332A0, symBinAddr: 0x8C1CC, symSize: 0x864 }
  - { offsetInCU: 0xBCA22, offset: 0x3CD597, size: 0x8, addend: 0x0, symName: __ZN14llm_build_deciC2ERK11llama_modelRK16llm_graph_paramsP11ggml_cgraph, symObjAddr: 0x33B04, symBinAddr: 0x8CA30, symSize: 0x750 }
  - { offsetInCU: 0xBD18E, offset: 0x3CDD03, size: 0x8, addend: 0x0, symName: __ZN18llm_build_baichuanC2ERK11llama_modelRK16llm_graph_paramsP11ggml_cgraph, symObjAddr: 0x34254, symBinAddr: 0x8D180, symSize: 0x598 }
  - { offsetInCU: 0xBD824, offset: 0x3CE399, size: 0x8, addend: 0x0, symName: __ZN16llm_build_falconC2ERK11llama_modelRK16llm_graph_paramsP11ggml_cgraph, symObjAddr: 0x347EC, symBinAddr: 0x8D718, symSize: 0x59C }
  - { offsetInCU: 0xBDF14, offset: 0x3CEA89, size: 0x8, addend: 0x0, symName: __ZN14llm_build_grokC2ERK11llama_modelRK16llm_graph_paramsP11ggml_cgraph, symObjAddr: 0x34D88, symBinAddr: 0x8DCB4, symSize: 0x6AC }
  - { offsetInCU: 0xBE692, offset: 0x3CF207, size: 0x8, addend: 0x0, symName: __ZN19llm_build_starcoderC2ERK11llama_modelRK16llm_graph_paramsP11ggml_cgraph, symObjAddr: 0x35434, symBinAddr: 0x8E360, symSize: 0x5A8 }
  - { offsetInCU: 0xBEDA8, offset: 0x3CF91D, size: 0x8, addend: 0x0, symName: __ZN16llm_build_refactC2ERK11llama_modelRK16llm_graph_paramsP11ggml_cgraph, symObjAddr: 0x359DC, symBinAddr: 0x8E908, symSize: 0x4BC }
  - { offsetInCU: 0xBF3E3, offset: 0x3CFF58, size: 0x8, addend: 0x0, symName: __ZN18llm_build_neo_bertC2ERK11llama_modelRK16llm_graph_paramsP11ggml_cgraph, symObjAddr: 0x36750, symBinAddr: 0x8F67C, symSize: 0x4FC }
  - { offsetInCU: 0xBFAB6, offset: 0x3D062B, size: 0x8, addend: 0x0, symName: __ZN15llm_build_bloomC2ERK11llama_modelRK16llm_graph_paramsP11ggml_cgraph, symObjAddr: 0x36C4C, symBinAddr: 0x8FB78, symSize: 0x574 }
  - { offsetInCU: 0xC017C, offset: 0x3D0CF1, size: 0x8, addend: 0x0, symName: __ZN13llm_build_mptC2ERK11llama_modelRK16llm_graph_paramsP11ggml_cgraph, symObjAddr: 0x371C0, symBinAddr: 0x900EC, symSize: 0x6C8 }
  - { offsetInCU: 0xC0905, offset: 0x3D147A, size: 0x8, addend: 0x0, symName: __ZN18llm_build_stablelmC2ERK11llama_modelRK16llm_graph_paramsP11ggml_cgraph, symObjAddr: 0x37888, symBinAddr: 0x907B4, symSize: 0x688 }
  - { offsetInCU: 0xC106F, offset: 0x3D1BE4, size: 0x8, addend: 0x0, symName: __ZN14llm_build_qwenC2ERK11llama_modelRK16llm_graph_paramsP11ggml_cgraph, symObjAddr: 0x37F10, symBinAddr: 0x90E3C, symSize: 0x570 }
  - { offsetInCU: 0xC1773, offset: 0x3D22E8, size: 0x8, addend: 0x0, symName: __ZN15llm_build_qwen2C2ERK11llama_modelRK16llm_graph_paramsP11ggml_cgraph, symObjAddr: 0x38480, symBinAddr: 0x913AC, symSize: 0x590 }
  - { offsetInCU: 0xC1E95, offset: 0x3D2A0A, size: 0x8, addend: 0x0, symName: __ZN17llm_build_qwen2vlC2ERK11llama_modelRK16llm_graph_paramsP11ggml_cgraph, symObjAddr: 0x38A10, symBinAddr: 0x9193C, symSize: 0x5D8 }
  - { offsetInCU: 0xC276D, offset: 0x3D32E2, size: 0x8, addend: 0x0, symName: __ZN18llm_build_qwen2moeC2ERK11llama_modelRK16llm_graph_paramsP11ggml_cgraph, symObjAddr: 0x38FE8, symBinAddr: 0x91F14, symSize: 0x724 }
  - { offsetInCU: 0xC2F95, offset: 0x3D3B0A, size: 0x8, addend: 0x0, symName: __ZN15llm_build_qwen3C2ERK11llama_modelRK16llm_graph_paramsP11ggml_cgraph, symObjAddr: 0x3970C, symBinAddr: 0x92638, symSize: 0x5D0 }
  - { offsetInCU: 0xC3666, offset: 0x3D41DB, size: 0x8, addend: 0x0, symName: __ZN18llm_build_qwen3moeC2ERK11llama_modelRK16llm_graph_paramsP11ggml_cgraph, symObjAddr: 0x39CDC, symBinAddr: 0x92C08, symSize: 0x5D0 }
  - { offsetInCU: 0xC3D48, offset: 0x3D48BD, size: 0x8, addend: 0x0, symName: __ZN14llm_build_phi2C2ERK11llama_modelRK16llm_graph_paramsP11ggml_cgraph, symObjAddr: 0x3A2AC, symBinAddr: 0x931D8, symSize: 0x690 }
  - { offsetInCU: 0xC4586, offset: 0x3D50FB, size: 0x8, addend: 0x0, symName: __ZN14llm_build_phi3ILb1EEC2ERK11llama_modelRK16llm_graph_paramsP11ggml_cgraph, symObjAddr: 0x3A93C, symBinAddr: 0x93868, symSize: 0x784 }
  - { offsetInCU: 0xC4DF8, offset: 0x3D596D, size: 0x8, addend: 0x0, symName: __ZN14llm_build_phi3ILb0EEC2ERK11llama_modelRK16llm_graph_paramsP11ggml_cgraph, symObjAddr: 0x3B0C0, symBinAddr: 0x93FEC, symSize: 0x784 }
  - { offsetInCU: 0xC566A, offset: 0x3D61DF, size: 0x8, addend: 0x0, symName: __ZN15llm_build_plamoC2ERK11llama_modelRK16llm_graph_paramsP11ggml_cgraph, symObjAddr: 0x3B844, symBinAddr: 0x94770, symSize: 0x4E8 }
  - { offsetInCU: 0xC5CED, offset: 0x3D6862, size: 0x8, addend: 0x0, symName: __ZN14llm_build_gpt2C2ERK11llama_modelRK16llm_graph_paramsP11ggml_cgraph, symObjAddr: 0x3BD2C, symBinAddr: 0x94C58, symSize: 0x5A0 }
  - { offsetInCU: 0xC6403, offset: 0x3D6F78, size: 0x8, addend: 0x0, symName: __ZN19llm_build_codeshellC2ERK11llama_modelRK16llm_graph_paramsP11ggml_cgraph, symObjAddr: 0x3C2CC, symBinAddr: 0x951F8, symSize: 0x5C8 }
  - { offsetInCU: 0xC6B11, offset: 0x3D7686, size: 0x8, addend: 0x0, symName: __ZN15llm_build_orionC2ERK11llama_modelRK16llm_graph_paramsP11ggml_cgraph, symObjAddr: 0x3C894, symBinAddr: 0x957C0, symSize: 0x548 }
  - { offsetInCU: 0xC7194, offset: 0x3D7D09, size: 0x8, addend: 0x0, symName: __ZN19llm_build_internlm2C2ERK11llama_modelRK16llm_graph_paramsP11ggml_cgraph, symObjAddr: 0x3CDDC, symBinAddr: 0x95D08, symSize: 0x5F0 }
  - { offsetInCU: 0xC78AB, offset: 0x3D8420, size: 0x8, addend: 0x0, symName: __ZN18llm_build_minicpm3C2ERK11llama_modelRK16llm_graph_paramsP11ggml_cgraph, symObjAddr: 0x3D3CC, symBinAddr: 0x962F8, symSize: 0xAC8 }
  - { offsetInCU: 0xC8423, offset: 0x3D8F98, size: 0x8, addend: 0x0, symName: __ZN15llm_build_gemmaC2ERK11llama_modelRK16llm_graph_paramsP11ggml_cgraph, symObjAddr: 0x3DE94, symBinAddr: 0x96DC0, symSize: 0x550 }
  - { offsetInCU: 0xC8AB0, offset: 0x3D9625, size: 0x8, addend: 0x0, symName: __ZN21llm_build_gemma2_iswaC2ERK11llama_modelRK16llm_graph_paramsP11ggml_cgraph, symObjAddr: 0x3E3E4, symBinAddr: 0x97310, symSize: 0x5E0 }
  - { offsetInCU: 0xC91BD, offset: 0x3D9D32, size: 0x8, addend: 0x0, symName: __ZN21llm_build_gemma3_iswaC2ERK11llama_modelRK16llm_graph_paramsP11ggml_cgraph, symObjAddr: 0x3E9C4, symBinAddr: 0x978F0, symSize: 0x6B4 }
  - { offsetInCU: 0xC9964, offset: 0x3DA4D9, size: 0x8, addend: 0x0, symName: __ZN20llm_build_starcoder2C2ERK11llama_modelRK16llm_graph_paramsP11ggml_cgraph, symObjAddr: 0x3F078, symBinAddr: 0x97FA4, symSize: 0x5F0 }
  - { offsetInCU: 0xCA07B, offset: 0x3DABF0, size: 0x8, addend: 0x0, symName: __ZN15llm_build_mambaC2ERK11llama_modelRK16llm_graph_paramsP11ggml_cgraph, symObjAddr: 0x3F668, symBinAddr: 0x98594, symSize: 0x224 }
  - { offsetInCU: 0xCA4FE, offset: 0x3DB073, size: 0x8, addend: 0x0, symName: __ZN16llm_build_xverseC2ERK11llama_modelRK16llm_graph_paramsP11ggml_cgraph, symObjAddr: 0x3FEE8, symBinAddr: 0x98E14, symSize: 0x548 }
  - { offsetInCU: 0xCAB81, offset: 0x3DB6F6, size: 0x8, addend: 0x0, symName: __ZN19llm_build_command_rC2ERK11llama_modelRK16llm_graph_paramsP11ggml_cgraph, symObjAddr: 0x40430, symBinAddr: 0x9935C, symSize: 0x644 }
  - { offsetInCU: 0xCB307, offset: 0x3DBE7C, size: 0x8, addend: 0x0, symName: __ZN22llm_build_cohere2_iswaC2ERK11llama_modelRK16llm_graph_paramsP11ggml_cgraph, symObjAddr: 0x40A74, symBinAddr: 0x999A0, symSize: 0x658 }
  - { offsetInCU: 0xCBA9C, offset: 0x3DC611, size: 0x8, addend: 0x0, symName: __ZN14llm_build_dbrxC2ERK11llama_modelRK16llm_graph_paramsP11ggml_cgraph, symObjAddr: 0x410CC, symBinAddr: 0x99FF8, symSize: 0x5CC }
  - { offsetInCU: 0xCC190, offset: 0x3DCD05, size: 0x8, addend: 0x0, symName: __ZN14llm_build_olmoC2ERK11llama_modelRK16llm_graph_paramsP11ggml_cgraph, symObjAddr: 0x41698, symBinAddr: 0x9A5C4, symSize: 0x604 }
  - { offsetInCU: 0xCC808, offset: 0x3DD37D, size: 0x8, addend: 0x0, symName: __ZN15llm_build_olmo2C2ERK11llama_modelRK16llm_graph_paramsP11ggml_cgraph, symObjAddr: 0x41C9C, symBinAddr: 0x9ABC8, symSize: 0x5D4 }
  - { offsetInCU: 0xCCEE0, offset: 0x3DDA55, size: 0x8, addend: 0x0, symName: __ZN15llm_build_olmoeC2ERK11llama_modelRK16llm_graph_paramsP11ggml_cgraph, symObjAddr: 0x42270, symBinAddr: 0x9B19C, symSize: 0x5CC }
  - { offsetInCU: 0xCD5B5, offset: 0x3DE12A, size: 0x8, addend: 0x0, symName: __ZN17llm_build_openelmC2ERK11llama_modelRK16llm_graph_paramsP11ggml_cgraph, symObjAddr: 0x4283C, symBinAddr: 0x9B768, symSize: 0x63C }
  - { offsetInCU: 0xCDCEC, offset: 0x3DE861, size: 0x8, addend: 0x0, symName: __ZN17llm_build_gptneoxC2ERK11llama_modelRK16llm_graph_paramsP11ggml_cgraph, symObjAddr: 0x42E78, symBinAddr: 0x9BDA4, symSize: 0x6C8 }
  - { offsetInCU: 0xCE498, offset: 0x3DF00D, size: 0x8, addend: 0x0, symName: __ZN16llm_build_arcticC2ERK11llama_modelRK16llm_graph_paramsP11ggml_cgraph, symObjAddr: 0x43540, symBinAddr: 0x9C46C, symSize: 0x62C }
  - { offsetInCU: 0xCEB94, offset: 0x3DF709, size: 0x8, addend: 0x0, symName: __ZN18llm_build_deepseekC2ERK11llama_modelRK16llm_graph_paramsP11ggml_cgraph, symObjAddr: 0x43B6C, symBinAddr: 0x9CA98, symSize: 0x740 }
  - { offsetInCU: 0xCF356, offset: 0x3DFECB, size: 0x8, addend: 0x0, symName: __ZN19llm_build_deepseek2C2ERK11llama_modelRK16llm_graph_paramsP11ggml_cgraph, symObjAddr: 0x442AC, symBinAddr: 0x9D1D8, symSize: 0xCA4 }
  - { offsetInCU: 0xD0020, offset: 0x3E0B95, size: 0x8, addend: 0x0, symName: __ZN17llm_build_chatglmC2ERK11llama_modelRK16llm_graph_paramsP11ggml_cgraph, symObjAddr: 0x44F50, symBinAddr: 0x9DE7C, symSize: 0x64C }
  - { offsetInCU: 0xD0821, offset: 0x3E1396, size: 0x8, addend: 0x0, symName: __ZN14llm_build_glm4C2ERK11llama_modelRK16llm_graph_paramsP11ggml_cgraph, symObjAddr: 0x4559C, symBinAddr: 0x9E4C8, symSize: 0x6D0 }
  - { offsetInCU: 0xD1070, offset: 0x3E1BE5, size: 0x8, addend: 0x0, symName: __ZN16llm_build_bitnetC2ERK11llama_modelRK16llm_graph_paramsP11ggml_cgraph, symObjAddr: 0x45C6C, symBinAddr: 0x9EB98, symSize: 0x780 }
  - { offsetInCU: 0xD194A, offset: 0x3E24BF, size: 0x8, addend: 0x0, symName: __ZN16llm_build_t5_encC2ERK11llama_modelRK16llm_graph_paramsP11ggml_cgraph, symObjAddr: 0x463EC, symBinAddr: 0x9F318, symSize: 0x4B8 }
  - { offsetInCU: 0xD1FCB, offset: 0x3E2B40, size: 0x8, addend: 0x0, symName: __ZN16llm_build_t5_decC2ERK11llama_modelRK16llm_graph_paramsP11ggml_cgraph, symObjAddr: 0x468A4, symBinAddr: 0x9F7D0, symSize: 0x6F8 }
  - { offsetInCU: 0xD282C, offset: 0x3E33A1, size: 0x8, addend: 0x0, symName: __ZN14llm_build_jaisC2ERK11llama_modelRK16llm_graph_paramsP11ggml_cgraph, symObjAddr: 0x46F9C, symBinAddr: 0x9FEC8, symSize: 0x524 }
  - { offsetInCU: 0xD2EED, offset: 0x3E3A62, size: 0x8, addend: 0x0, symName: __ZN18llm_build_nemotronC2ERK11llama_modelRK16llm_graph_paramsP11ggml_cgraph, symObjAddr: 0x474C0, symBinAddr: 0xA03EC, symSize: 0x5D4 }
  - { offsetInCU: 0xD3605, offset: 0x3E417A, size: 0x8, addend: 0x0, symName: __ZN16llm_build_exaoneC2ERK11llama_modelRK16llm_graph_paramsP11ggml_cgraph, symObjAddr: 0x47A94, symBinAddr: 0xA09C0, symSize: 0x670 }
  - { offsetInCU: 0xD3D69, offset: 0x3E48DE, size: 0x8, addend: 0x0, symName: __ZN15llm_build_rwkv6C2ERK11llama_modelRK16llm_graph_paramsP11ggml_cgraph, symObjAddr: 0x48104, symBinAddr: 0xA1030, symSize: 0x5B4 }
  - { offsetInCU: 0xD45F3, offset: 0x3E5168, size: 0x8, addend: 0x0, symName: __ZN20llm_build_rwkv6qwen2C2ERK11llama_modelRK16llm_graph_paramsP11ggml_cgraph, symObjAddr: 0x491BC, symBinAddr: 0xA20E8, symSize: 0x46C }
  - { offsetInCU: 0xD4D13, offset: 0x3E5888, size: 0x8, addend: 0x0, symName: __ZN15llm_build_rwkv7C2ERK11llama_modelRK16llm_graph_paramsP11ggml_cgraph, symObjAddr: 0x49628, symBinAddr: 0xA2554, symSize: 0x5E4 }
  - { offsetInCU: 0xD560B, offset: 0x3E6180, size: 0x8, addend: 0x0, symName: __ZN16llm_build_arwkv7C2ERK11llama_modelRK16llm_graph_paramsP11ggml_cgraph, symObjAddr: 0x4A464, symBinAddr: 0xA3390, symSize: 0x474 }
  - { offsetInCU: 0xD5D42, offset: 0x3E68B7, size: 0x8, addend: 0x0, symName: __ZN19llm_build_chameleonC2ERK11llama_modelRK16llm_graph_paramsP11ggml_cgraph, symObjAddr: 0x4B108, symBinAddr: 0xA4034, symSize: 0x840 }
  - { offsetInCU: 0xD6601, offset: 0x3E7176, size: 0x8, addend: 0x0, symName: __ZN26llm_build_wavtokenizer_decC2ERK11llama_modelRK16llm_graph_paramsP11ggml_cgraph, symObjAddr: 0x4B948, symBinAddr: 0xA4874, symSize: 0x5F8 }
  - { offsetInCU: 0xD6E2E, offset: 0x3E79A3, size: 0x8, addend: 0x0, symName: __ZN13llm_build_plmC2ERK11llama_modelRK16llm_graph_paramsP11ggml_cgraph, symObjAddr: 0x4BF40, symBinAddr: 0xA4E6C, symSize: 0x8D4 }
  - { offsetInCU: 0xD782A, offset: 0x3E839F, size: 0x8, addend: 0x0, symName: __ZN20llm_build_bailingmoeC2ERK11llama_modelRK16llm_graph_paramsP11ggml_cgraph, symObjAddr: 0x4C814, symBinAddr: 0xA5740, symSize: 0x670 }
  - { offsetInCU: 0xD7FBE, offset: 0x3E8B33, size: 0x8, addend: 0x0, symName: __ZN15llm_build_dots1C2ERK11llama_modelRK16llm_graph_paramsP11ggml_cgraph, symObjAddr: 0x4CE84, symBinAddr: 0xA5DB0, symSize: 0x6DC }
  - { offsetInCU: 0xD86E6, offset: 0x3E925B, size: 0x8, addend: 0x0, symName: __ZN15llm_build_arceeC2ERK11llama_modelRK16llm_graph_paramsP11ggml_cgraph, symObjAddr: 0x4D560, symBinAddr: 0xA648C, symSize: 0x698 }
  - { offsetInCU: 0xD8D01, offset: 0x3E9876, size: 0x8, addend: 0x0, symName: _llama_model_default_params, symObjAddr: 0x23354, symBinAddr: 0x854DC, symSize: 0x28 }
  - { offsetInCU: 0xD8D2D, offset: 0x3E98A2, size: 0x8, addend: 0x0, symName: _llama_model_get_vocab, symObjAddr: 0x2337C, symBinAddr: 0x85504, symSize: 0xC }
  - { offsetInCU: 0xD8D8D, offset: 0x3E9902, size: 0x8, addend: 0x0, symName: _llama_free_model, symObjAddr: 0x23388, symBinAddr: 0x85510, symSize: 0x1C }
  - { offsetInCU: 0xD8DB6, offset: 0x3E992B, size: 0x8, addend: 0x0, symName: _llama_free_model, symObjAddr: 0x23388, symBinAddr: 0x85510, symSize: 0x1C }
  - { offsetInCU: 0xD8DFC, offset: 0x3E9971, size: 0x8, addend: 0x0, symName: _llama_model_free, symObjAddr: 0x233A4, symBinAddr: 0x8552C, symSize: 0x1C }
  - { offsetInCU: 0xD8E43, offset: 0x3E99B8, size: 0x8, addend: 0x0, symName: _llama_model_n_ctx_train, symObjAddr: 0x233C0, symBinAddr: 0x85548, symSize: 0x8 }
  - { offsetInCU: 0xD8E60, offset: 0x3E99D5, size: 0x8, addend: 0x0, symName: _llama_model_n_embd, symObjAddr: 0x233C8, symBinAddr: 0x85550, symSize: 0x8 }
  - { offsetInCU: 0xD8E7D, offset: 0x3E99F2, size: 0x8, addend: 0x0, symName: _llama_model_n_layer, symObjAddr: 0x233D0, symBinAddr: 0x85558, symSize: 0x8 }
  - { offsetInCU: 0xD8E9A, offset: 0x3E9A0F, size: 0x8, addend: 0x0, symName: _llama_model_n_head, symObjAddr: 0x233D8, symBinAddr: 0x85560, symSize: 0xC }
  - { offsetInCU: 0xD8EB7, offset: 0x3E9A2C, size: 0x8, addend: 0x0, symName: _llama_model_n_head_kv, symObjAddr: 0x233E4, symBinAddr: 0x8556C, symSize: 0xC }
  - { offsetInCU: 0xD8EE3, offset: 0x3E9A58, size: 0x8, addend: 0x0, symName: _llama_model_n_swa, symObjAddr: 0x233F0, symBinAddr: 0x85578, symSize: 0x8 }
  - { offsetInCU: 0xD8F0F, offset: 0x3E9A84, size: 0x8, addend: 0x0, symName: _llama_model_n_cls_out, symObjAddr: 0x233F8, symBinAddr: 0x85580, symSize: 0x8 }
  - { offsetInCU: 0xD8F5F, offset: 0x3E9AD4, size: 0x8, addend: 0x0, symName: _llama_model_cls_label, symObjAddr: 0x23400, symBinAddr: 0x85588, symSize: 0x4C }
  - { offsetInCU: 0xD9071, offset: 0x3E9BE6, size: 0x8, addend: 0x0, symName: _llama_n_ctx_train, symObjAddr: 0x2344C, symBinAddr: 0x855D4, symSize: 0x8 }
  - { offsetInCU: 0xD909F, offset: 0x3E9C14, size: 0x8, addend: 0x0, symName: _llama_n_ctx_train, symObjAddr: 0x2344C, symBinAddr: 0x855D4, symSize: 0x8 }
  - { offsetInCU: 0xD90D5, offset: 0x3E9C4A, size: 0x8, addend: 0x0, symName: _llama_n_embd, symObjAddr: 0x23454, symBinAddr: 0x855DC, symSize: 0x8 }
  - { offsetInCU: 0xD9103, offset: 0x3E9C78, size: 0x8, addend: 0x0, symName: _llama_n_embd, symObjAddr: 0x23454, symBinAddr: 0x855DC, symSize: 0x8 }
  - { offsetInCU: 0xD9139, offset: 0x3E9CAE, size: 0x8, addend: 0x0, symName: _llama_n_layer, symObjAddr: 0x2345C, symBinAddr: 0x855E4, symSize: 0x8 }
  - { offsetInCU: 0xD9167, offset: 0x3E9CDC, size: 0x8, addend: 0x0, symName: _llama_n_layer, symObjAddr: 0x2345C, symBinAddr: 0x855E4, symSize: 0x8 }
  - { offsetInCU: 0xD919D, offset: 0x3E9D12, size: 0x8, addend: 0x0, symName: _llama_n_head, symObjAddr: 0x23464, symBinAddr: 0x855EC, symSize: 0xC }
  - { offsetInCU: 0xD91CB, offset: 0x3E9D40, size: 0x8, addend: 0x0, symName: _llama_n_head, symObjAddr: 0x23464, symBinAddr: 0x855EC, symSize: 0xC }
  - { offsetInCU: 0xD91E8, offset: 0x3E9D5D, size: 0x8, addend: 0x0, symName: _llama_model_rope_freq_scale_train, symObjAddr: 0x23470, symBinAddr: 0x855F8, symSize: 0x8 }
  - { offsetInCU: 0xD923A, offset: 0x3E9DAF, size: 0x8, addend: 0x0, symName: _llama_model_meta_val_str, symObjAddr: 0x23478, symBinAddr: 0x85600, symSize: 0x140 }
  - { offsetInCU: 0xD993C, offset: 0x3EA4B1, size: 0x8, addend: 0x0, symName: __ZNKSt3__112__hash_tableINS_17__hash_value_typeINS_12basic_stringIcNS_11char_traitsIcEENS_9allocatorIcEEEES7_EENS_22__unordered_map_hasherIS7_S8_NS_4hashIS7_EENS_8equal_toIS7_EELb1EEENS_21__unordered_map_equalIS7_S8_SD_SB_Lb1EEENS5_IS8_EEE4findIS7_EENS_21__hash_const_iteratorIPNS_11__hash_nodeIS8_PvEEEERKT_, symObjAddr: 0x4DBF8, symBinAddr: 0xA6B24, symSize: 0x23C }
  - { offsetInCU: 0xD9BF2, offset: 0x3EA767, size: 0x8, addend: 0x0, symName: _llama_model_meta_count, symObjAddr: 0x235B8, symBinAddr: 0x85740, symSize: 0x8 }
  - { offsetInCU: 0xD9C20, offset: 0x3EA795, size: 0x8, addend: 0x0, symName: _llama_model_meta_count, symObjAddr: 0x235B8, symBinAddr: 0x85740, symSize: 0x8 }
  - { offsetInCU: 0xD9C3F, offset: 0x3EA7B4, size: 0x8, addend: 0x0, symName: _llama_model_meta_count, symObjAddr: 0x235B8, symBinAddr: 0x85740, symSize: 0x8 }
  - { offsetInCU: 0xD9CF8, offset: 0x3EA86D, size: 0x8, addend: 0x0, symName: _llama_model_meta_key_by_index, symObjAddr: 0x235C0, symBinAddr: 0x85748, symSize: 0x8C }
  - { offsetInCU: 0xD9F09, offset: 0x3EAA7E, size: 0x8, addend: 0x0, symName: _llama_model_meta_val_str_by_index, symObjAddr: 0x2364C, symBinAddr: 0x857D4, symSize: 0x8C }
  - { offsetInCU: 0xDA108, offset: 0x3EAC7D, size: 0x8, addend: 0x0, symName: _llama_model_desc, symObjAddr: 0x236D8, symBinAddr: 0x85860, symSize: 0xF0 }
  - { offsetInCU: 0xDA6B9, offset: 0x3EB22E, size: 0x8, addend: 0x0, symName: _llama_model_size, symObjAddr: 0x237C8, symBinAddr: 0x85950, symSize: 0xC }
  - { offsetInCU: 0xDA6E4, offset: 0x3EB259, size: 0x8, addend: 0x0, symName: _llama_model_size, symObjAddr: 0x237C8, symBinAddr: 0x85950, symSize: 0xC }
  - { offsetInCU: 0xDA712, offset: 0x3EB287, size: 0x8, addend: 0x0, symName: _llama_model_size, symObjAddr: 0x237C8, symBinAddr: 0x85950, symSize: 0xC }
  - { offsetInCU: 0xDA72E, offset: 0x3EB2A3, size: 0x8, addend: 0x0, symName: _llama_model_size, symObjAddr: 0x237C8, symBinAddr: 0x85950, symSize: 0xC }
  - { offsetInCU: 0xDA74D, offset: 0x3EB2C2, size: 0x8, addend: 0x0, symName: _llama_model_chat_template, symObjAddr: 0x237D4, symBinAddr: 0x8595C, symSize: 0x10C }
  - { offsetInCU: 0xDAAEB, offset: 0x3EB660, size: 0x8, addend: 0x0, symName: _llama_model_n_params, symObjAddr: 0x238E0, symBinAddr: 0x85A68, symSize: 0xC }
  - { offsetInCU: 0xDAB19, offset: 0x3EB68E, size: 0x8, addend: 0x0, symName: _llama_model_n_params, symObjAddr: 0x238E0, symBinAddr: 0x85A68, symSize: 0xC }
  - { offsetInCU: 0xDAB35, offset: 0x3EB6AA, size: 0x8, addend: 0x0, symName: _llama_model_n_params, symObjAddr: 0x238E0, symBinAddr: 0x85A68, symSize: 0xC }
  - { offsetInCU: 0xDAB54, offset: 0x3EB6C9, size: 0x8, addend: 0x0, symName: _llama_model_has_encoder, symObjAddr: 0x238EC, symBinAddr: 0x85A74, symSize: 0x14 }
  - { offsetInCU: 0xDAB80, offset: 0x3EB6F5, size: 0x8, addend: 0x0, symName: _llama_model_has_decoder, symObjAddr: 0x23900, symBinAddr: 0x85A88, symSize: 0x10 }
  - { offsetInCU: 0xDABAC, offset: 0x3EB721, size: 0x8, addend: 0x0, symName: _llama_model_decoder_start_token, symObjAddr: 0x23910, symBinAddr: 0x85A98, symSize: 0x8 }
  - { offsetInCU: 0xDABD8, offset: 0x3EB74D, size: 0x8, addend: 0x0, symName: _llama_model_is_recurrent, symObjAddr: 0x23918, symBinAddr: 0x85AA0, symSize: 0x20 }
  - { offsetInCU: 0xDAC04, offset: 0x3EB779, size: 0x8, addend: 0x0, symName: __Z29llama_internal_get_tensor_mapPK11llama_model, symObjAddr: 0x23938, symBinAddr: 0x85AC0, symSize: 0xC }
  - { offsetInCU: 0xDB2FE, offset: 0x3EBE73, size: 0x8, addend: 0x0, symName: __ZNSt3__111basic_regexIcNS_12regex_traitsIcEEE13__parse_egrepIPKcEET_S7_S7_, symObjAddr: 0x2453C, symBinAddr: 0x86484, symSize: 0x1B8 }
  - { offsetInCU: 0xDB813, offset: 0x3EC388, size: 0x8, addend: 0x0, symName: __ZNSt3__111basic_regexIcNS_12regex_traitsIcEEE24__parse_extended_reg_expIPKcEET_S7_S7_, symObjAddr: 0x24218, symBinAddr: 0x86160, symSize: 0x16C }
  - { offsetInCU: 0xDBB38, offset: 0x3EC6AD, size: 0x8, addend: 0x0, symName: __ZNSt3__111basic_regexIcNS_12regex_traitsIcEEE12__parse_grepIPKcEET_S7_S7_, symObjAddr: 0x24384, symBinAddr: 0x862CC, symSize: 0x1B8 }
  - { offsetInCU: 0xDBB4C, offset: 0x3EC6C1, size: 0x8, addend: 0x0, symName: __ZNSt3__111basic_regexIcNS_12regex_traitsIcEEE19__parse_alternativeIPKcEET_S7_S7_, symObjAddr: 0x24928, symBinAddr: 0x8663C, symSize: 0xA0 }
  - { offsetInCU: 0xDBC4A, offset: 0x3EC7BF, size: 0x8, addend: 0x0, symName: __ZNSt3__111basic_regexIcNS_12regex_traitsIcEEE21__parse_basic_reg_expIPKcEET_S7_S7_, symObjAddr: 0x240A0, symBinAddr: 0x85FE8, symSize: 0x178 }
  - { offsetInCU: 0xDBFAB, offset: 0x3ECB20, size: 0x8, addend: 0x0, symName: __ZNSt3__111basic_regexIcNS_12regex_traitsIcEEE24__parse_extended_reg_expIPKcEET_S7_S7_, symObjAddr: 0x24218, symBinAddr: 0x86160, symSize: 0x16C }
  - { offsetInCU: 0xDBFBF, offset: 0x3ECB34, size: 0x8, addend: 0x0, symName: __ZNSt3__111basic_regexIcNS_12regex_traitsIcEEE12__parse_grepIPKcEET_S7_S7_, symObjAddr: 0x24384, symBinAddr: 0x862CC, symSize: 0x1B8 }
  - { offsetInCU: 0xDC51B, offset: 0x3ED090, size: 0x8, addend: 0x0, symName: __ZNSt3__111basic_regexIcNS_12regex_traitsIcEEE16__parse_ecma_expIPKcEET_S7_S7_, symObjAddr: 0x23F00, symBinAddr: 0x85E48, symSize: 0x1A0 }
  - { offsetInCU: 0xDC935, offset: 0x3ED4AA, size: 0x8, addend: 0x0, symName: __ZNSt3__111basic_regexIcNS_12regex_traitsIcEEE12__parse_termIPKcEET_S7_S7_, symObjAddr: 0x249C8, symBinAddr: 0x866DC, symSize: 0x94 }
  - { offsetInCU: 0xDCBE8, offset: 0x3ED75D, size: 0x8, addend: 0x0, symName: __ZNSt3__111basic_regexIcNS_12regex_traitsIcEEE18__parse_nondupl_REIPKcEET_S7_S7_, symObjAddr: 0x2C3F8, symBinAddr: 0x889F4, symSize: 0x230 }
  - { offsetInCU: 0xDD103, offset: 0x3EDC78, size: 0x8, addend: 0x0, symName: __ZNSt3__111basic_regexIcNS_12regex_traitsIcEEE22__parse_RE_dupl_symbolIPKcEET_S7_S7_PNS_16__owns_one_stateIcEEjj, symObjAddr: 0x2C628, symBinAddr: 0x88C24, symSize: 0x284 }
  - { offsetInCU: 0xDD117, offset: 0x3EDC8C, size: 0x8, addend: 0x0, symName: __ZNSt3__111basic_regexIcNS_12regex_traitsIcEEE22__parse_RE_dupl_symbolIPKcEET_S7_S7_PNS_16__owns_one_stateIcEEjj, symObjAddr: 0x2C628, symBinAddr: 0x88C24, symSize: 0x284 }
  - { offsetInCU: 0xDD689, offset: 0x3EE1FE, size: 0x8, addend: 0x0, symName: __ZNSt3__111basic_regexIcNS_12regex_traitsIcEEE32__parse_one_char_or_coll_elem_REIPKcEET_S7_S7_, symObjAddr: 0x2C8AC, symBinAddr: 0x88EA8, symSize: 0x140 }
  - { offsetInCU: 0xDD6E2, offset: 0x3EE257, size: 0x8, addend: 0x0, symName: __ZNSt3__111basic_regexIcNS_12regex_traitsIcEEE22__parse_ERE_expressionIPKcEET_S7_S7_, symObjAddr: 0x2CB14, symBinAddr: 0x88FE8, symSize: 0x284 }
  - { offsetInCU: 0xDDB8C, offset: 0x3EE701, size: 0x8, addend: 0x0, symName: __ZNSt3__111basic_regexIcNS_12regex_traitsIcEEE20__parse_ORD_CHAR_EREIPKcEET_S7_S7_, symObjAddr: 0x2CD98, symBinAddr: 0x8926C, symSize: 0x78 }
  - { offsetInCU: 0xDDC5E, offset: 0x3EE7D3, size: 0x8, addend: 0x0, symName: __ZNSt3__111basic_regexIcNS_12regex_traitsIcEEE23__parse_ERE_dupl_symbolIPKcEET_S7_S7_PNS_16__owns_one_stateIcEEjj, symObjAddr: 0x24FAC, symBinAddr: 0x86CC0, symSize: 0x3F4 }
  - { offsetInCU: 0xDE1DF, offset: 0x3EED54, size: 0x8, addend: 0x0, symName: __ZNSt3__111basic_regexIcNS_12regex_traitsIcEEE17__parse_assertionIPKcEET_S7_S7_, symObjAddr: 0x24A5C, symBinAddr: 0x86770, symSize: 0x304 }
  - { offsetInCU: 0xDE7CB, offset: 0x3EF340, size: 0x8, addend: 0x0, symName: __ZNSt3__111basic_regexIcNS_12regex_traitsIcEEE12__parse_atomIPKcEET_S7_S7_, symObjAddr: 0x24D60, symBinAddr: 0x86A74, symSize: 0x24C }
  - { offsetInCU: 0xDEB87, offset: 0x3EF6FC, size: 0x8, addend: 0x0, symName: __ZNSt3__111basic_regexIcNS_12regex_traitsIcEEE23__parse_ERE_dupl_symbolIPKcEET_S7_S7_PNS_16__owns_one_stateIcEEjj, symObjAddr: 0x24FAC, symBinAddr: 0x86CC0, symSize: 0x3F4 }
  - { offsetInCU: 0xDF028, offset: 0x3EFB9D, size: 0x8, addend: 0x0, symName: __ZNSt3__111basic_regexIcNS_12regex_traitsIcEEE26__parse_bracket_expressionIPKcEET_S7_S7_, symObjAddr: 0x26AB4, symBinAddr: 0x87218, symSize: 0x150 }
  - { offsetInCU: 0xDF200, offset: 0x3EFD75, size: 0x8, addend: 0x0, symName: __ZNSt3__111basic_regexIcNS_12regex_traitsIcEEE19__parse_atom_escapeIPKcEET_S7_S7_, symObjAddr: 0x26950, symBinAddr: 0x870B4, symSize: 0x164 }
  - { offsetInCU: 0xDF3AB, offset: 0x3EFF20, size: 0x8, addend: 0x0, symName: __ZNSt3__111basic_regexIcNS_12regex_traitsIcEEE26__parse_bracket_expressionIPKcEET_S7_S7_, symObjAddr: 0x26AB4, symBinAddr: 0x87218, symSize: 0x150 }
  - { offsetInCU: 0xDF3BF, offset: 0x3EFF34, size: 0x8, addend: 0x0, symName: __ZNSt3__111basic_regexIcNS_12regex_traitsIcEEE25__parse_pattern_characterIPKcEET_S7_S7_, symObjAddr: 0x26C50, symBinAddr: 0x87368, symSize: 0x70 }
  - { offsetInCU: 0xE36E6, offset: 0x3F425B, size: 0x8, addend: 0x0, symName: __ZNSt3__111basic_regexIcNS_12regex_traitsIcEEE30__parse_character_class_escapeIPKcEET_S7_S7_, symObjAddr: 0x26D94, symBinAddr: 0x873D8, symSize: 0x1F8 }
  - { offsetInCU: 0xE3B2C, offset: 0x3F46A1, size: 0x8, addend: 0x0, symName: __ZNSt3__111basic_regexIcNS_12regex_traitsIcEEE24__parse_character_escapeIPKcEET_S7_S7_PNS_12basic_stringIcNS_11char_traitsIcEENS_9allocatorIcEEEE, symObjAddr: 0x26F8C, symBinAddr: 0x875D0, symSize: 0x3B0 }
  - { offsetInCU: 0xE4A70, offset: 0x3F55E5, size: 0x8, addend: 0x0, symName: __ZNSt3__111basic_regexIcNS_12regex_traitsIcEEE23__parse_expression_termIPKcEET_S7_S7_PNS_20__bracket_expressionIcS2_EE, symObjAddr: 0x294E4, symBinAddr: 0x87980, symSize: 0x538 }
  - { offsetInCU: 0xE7001, offset: 0x3F7B76, size: 0x8, addend: 0x0, symName: __ZNSt3__111basic_regexIcNS_12regex_traitsIcEEE25__parse_equivalence_classIPKcEET_S7_S7_PNS_20__bracket_expressionIcS2_EE, symObjAddr: 0x29A1C, symBinAddr: 0x87EB8, symSize: 0x2A0 }
  - { offsetInCU: 0xE7E22, offset: 0x3F8997, size: 0x8, addend: 0x0, symName: __ZNSt3__111basic_regexIcNS_12regex_traitsIcEEE18__parse_awk_escapeIPKcEET_S7_S7_PNS_12basic_stringIcNS_11char_traitsIcEENS_9allocatorIcEEEE, symObjAddr: 0x29EFC, symBinAddr: 0x88398, symSize: 0x2EC }
  - { offsetInCU: 0xE7F4A, offset: 0x3F8ABF, size: 0x8, addend: 0x0, symName: __ZNSt3__111basic_regexIcNS_12regex_traitsIcEEE24__parse_collating_symbolIPKcEET_S7_S7_RNS_12basic_stringIcNS_11char_traitsIcEENS_9allocatorIcEEEE, symObjAddr: 0x29CBC, symBinAddr: 0x88158, symSize: 0xE4 }
  - { offsetInCU: 0xE8316, offset: 0x3F8E8B, size: 0x8, addend: 0x0, symName: __ZNSt3__111basic_regexIcNS_12regex_traitsIcEEE20__parse_class_escapeIPKcEET_S7_S7_RNS_12basic_stringIcNS_11char_traitsIcEENS_9allocatorIcEEEEPNS_20__bracket_expressionIcS2_EE, symObjAddr: 0x29DA0, symBinAddr: 0x8823C, symSize: 0x15C }
  - { offsetInCU: 0xE8321, offset: 0x3F8E96, size: 0x8, addend: 0x0, symName: __ZNKSt3__112regex_traitsIcE18__lookup_classnameIPKcEEjT_S5_bc, symObjAddr: 0x2B164, symBinAddr: 0x888BC, symSize: 0x138 }
  - { offsetInCU: 0xE896C, offset: 0x3F94E1, size: 0x8, addend: 0x0, symName: __ZNKSt3__112regex_traitsIcE20__lookup_collatenameIPKcEENS_12basic_stringIcNS_11char_traitsIcEENS_9allocatorIcEEEET_SB_c, symObjAddr: 0x2AA5C, symBinAddr: 0x88684, symSize: 0x238 }
  - { offsetInCU: 0xE9A08, offset: 0x3FA57D, size: 0x8, addend: 0x0, symName: __ZNSt3__111basic_regexIcNS_12regex_traitsIcEEE20__parse_class_escapeIPKcEET_S7_S7_RNS_12basic_stringIcNS_11char_traitsIcEENS_9allocatorIcEEEEPNS_20__bracket_expressionIcS2_EE, symObjAddr: 0x29DA0, symBinAddr: 0x8823C, symSize: 0x15C }
  - { offsetInCU: 0xE9B91, offset: 0x3FA706, size: 0x8, addend: 0x0, symName: __ZNSt3__111basic_regexIcNS_12regex_traitsIcEEE18__parse_awk_escapeIPKcEET_S7_S7_PNS_12basic_stringIcNS_11char_traitsIcEENS_9allocatorIcEEEE, symObjAddr: 0x29EFC, symBinAddr: 0x88398, symSize: 0x2EC }
  - { offsetInCU: 0xED663, offset: 0x3FE1D8, size: 0x8, addend: 0x0, symName: __ZNSt3__111basic_regexIcNS_12regex_traitsIcEEE32__parse_one_char_or_coll_elem_REIPKcEET_S7_S7_, symObjAddr: 0x2C8AC, symBinAddr: 0x88EA8, symSize: 0x140 }
  - { offsetInCU: 0xEDA33, offset: 0x3FE5A8, size: 0x8, addend: 0x0, symName: __ZNSt3__111basic_regexIcNS_12regex_traitsIcEEE22__parse_ERE_expressionIPKcEET_S7_S7_, symObjAddr: 0x2CB14, symBinAddr: 0x88FE8, symSize: 0x284 }
  - { offsetInCU: 0xEDA83, offset: 0x3FE5F8, size: 0x8, addend: 0x0, symName: __ZNSt3__111basic_regexIcNS_12regex_traitsIcEEE20__parse_ORD_CHAR_EREIPKcEET_S7_S7_, symObjAddr: 0x2CD98, symBinAddr: 0x8926C, symSize: 0x78 }
  - { offsetInCU: 0xEDAE3, offset: 0x3FE658, size: 0x8, addend: 0x0, symName: __ZNSt3__111basic_regexIcNS_12regex_traitsIcEEE23__parse_QUOTED_CHAR_EREIPKcEET_S7_S7_, symObjAddr: 0x2CE10, symBinAddr: 0x892E4, symSize: 0xC0 }
  - { offsetInCU: 0xF4134, offset: 0x404CA9, size: 0x8, addend: 0x0, symName: __ZNSt3__117bad_function_callD1Ev, symObjAddr: 0x2FA3C, symBinAddr: 0x893D8, symSize: 0x4 }
  - { offsetInCU: 0xF4156, offset: 0x404CCB, size: 0x8, addend: 0x0, symName: __ZNSt3__117bad_function_callD1Ev, symObjAddr: 0x2FA3C, symBinAddr: 0x893D8, symSize: 0x4 }
  - { offsetInCU: 0xF418B, offset: 0x404D00, size: 0x8, addend: 0x0, symName: __ZNSt3__117bad_function_callD0Ev, symObjAddr: 0x2FA40, symBinAddr: 0x893DC, symSize: 0x14 }
  - { offsetInCU: 0xF4737, offset: 0x4052AC, size: 0x8, addend: 0x0, symName: __ZNSt3__13mapI23llama_rope_scaling_typePKcNS_4lessIS1_EENS_9allocatorINS_4pairIKS1_S3_EEEEEC2B8ue170006ESt16initializer_listIS9_ERKS5_, symObjAddr: 0x2FD4C, symBinAddr: 0x893F0, symSize: 0xF0 }
  - { offsetInCU: 0xF4B13, offset: 0x405688, size: 0x8, addend: 0x0, symName: __ZNSt3__16__treeINS_12__value_typeI23llama_rope_scaling_typePKcEENS_19__map_value_compareIS2_S5_NS_4lessIS2_EELb1EEENS_9allocatorIS5_EEE12__find_equalIS2_EERPNS_16__tree_node_baseIPvEENS_21__tree_const_iteratorIS5_PNS_11__tree_nodeIS5_SF_EElEERPNS_15__tree_end_nodeISH_EESI_RKT_, symObjAddr: 0x2FE3C, symBinAddr: 0x894E0, symSize: 0x1A8 }
  - { offsetInCU: 0xF4B7B, offset: 0x4056F0, size: 0x8, addend: 0x0, symName: __ZNSt3__16__treeINS_12__value_typeI23llama_rope_scaling_typePKcEENS_19__map_value_compareIS2_S5_NS_4lessIS2_EELb1EEENS_9allocatorIS5_EEE12__find_equalIS2_EERPNS_16__tree_node_baseIPvEENS_21__tree_const_iteratorIS5_PNS_11__tree_nodeIS5_SF_EElEERPNS_15__tree_end_nodeISH_EESI_RKT_, symObjAddr: 0x2FE3C, symBinAddr: 0x894E0, symSize: 0x1A8 }
  - { offsetInCU: 0xF4B97, offset: 0x40570C, size: 0x8, addend: 0x0, symName: __ZNSt3__16__treeINS_12__value_typeI23llama_rope_scaling_typePKcEENS_19__map_value_compareIS2_S5_NS_4lessIS2_EELb1EEENS_9allocatorIS5_EEE12__find_equalIS2_EERPNS_16__tree_node_baseIPvEENS_21__tree_const_iteratorIS5_PNS_11__tree_nodeIS5_SF_EElEERPNS_15__tree_end_nodeISH_EESI_RKT_, symObjAddr: 0x2FE3C, symBinAddr: 0x894E0, symSize: 0x1A8 }
  - { offsetInCU: 0xF5470, offset: 0x405FE5, size: 0x8, addend: 0x0, symName: __ZNSt3__16__treeINS_12__value_typeIP19ggml_backend_deviceNS_6vectorINS_4pairIS3_P24ggml_backend_buffer_typeEENS_9allocatorIS8_EEEEEENS_19__map_value_compareIS3_SC_NS_4lessIS3_EELb1EEENS9_ISC_EEE7destroyEPNS_11__tree_nodeISC_PvEE, symObjAddr: 0x30204, symBinAddr: 0x898A8, symSize: 0x50 }
  - { offsetInCU: 0xF5B29, offset: 0x40669E, size: 0x8, addend: 0x0, symName: __ZNSt3__112__hash_tableINS_17__hash_value_typeINS_12basic_stringIcNS_11char_traitsIcEENS_9allocatorIcEEEES7_EENS_22__unordered_map_hasherIS7_S8_NS_4hashIS7_EENS_8equal_toIS7_EELb1EEENS_21__unordered_map_equalIS7_S8_SD_SB_Lb1EEENS5_IS8_EEE11__do_rehashILb1EEEvm, symObjAddr: 0x30B8C, symBinAddr: 0x89D94, symSize: 0x1AC }
  - { offsetInCU: 0xF5F89, offset: 0x406AFE, size: 0x8, addend: 0x0, symName: __ZNSt3__16vectorINS_4pairIP19ggml_backend_deviceP24ggml_backend_buffer_typeEENS_9allocatorIS6_EEE18__insert_with_sizeB8ue170006INS_11__wrap_iterIPS6_EESD_EESD_NSB_IPKS6_EET_T0_l, symObjAddr: 0x30D38, symBinAddr: 0x89F40, symSize: 0x390 }
  - { offsetInCU: 0xF6706, offset: 0x40727B, size: 0x8, addend: 0x0, symName: __ZNKSt3__16vectorIN11llama_model4impl9layer_devENS_9allocatorIS3_EEE20__throw_length_errorB8ue170006Ev, symObjAddr: 0x31204, symBinAddr: 0x8A3F8, symSize: 0x14 }
  - { offsetInCU: 0xF6B16, offset: 0x40768B, size: 0x8, addend: 0x0, symName: __ZNKSt3__16vectorI11llama_layerNS_9allocatorIS1_EEE20__throw_length_errorB8ue170006Ev, symObjAddr: 0x31438, symBinAddr: 0x8A5EC, symSize: 0x14 }
  - { offsetInCU: 0xF6B4B, offset: 0x4076C0, size: 0x8, addend: 0x0, symName: __ZNSt3__114__split_bufferINS_4pairIP12ggml_contextNS_13unordered_mapIjP19ggml_backend_bufferNS_4hashIjEENS_8equal_toIjEENS_9allocatorINS1_IKjS6_EEEEEEEERNSB_ISG_EEED1Ev, symObjAddr: 0x31474, symBinAddr: 0x8A614, symSize: 0x7C }
  - { offsetInCU: 0xF6FD0, offset: 0x407B45, size: 0x8, addend: 0x0, symName: __ZNSt3__112__hash_tableINS_17__hash_value_typeIjP19ggml_backend_bufferEENS_22__unordered_map_hasherIjS4_NS_4hashIjEENS_8equal_toIjEELb1EEENS_21__unordered_map_equalIjS4_S9_S7_Lb1EEENS_9allocatorIS4_EEED1Ev, symObjAddr: 0x31504, symBinAddr: 0x8A690, symSize: 0x48 }
  - { offsetInCU: 0xF799D, offset: 0x408512, size: 0x8, addend: 0x0, symName: __ZNSt3__16vectorINS_4pairIP12ggml_contextNS_13unordered_mapIjP19ggml_backend_bufferNS_4hashIjEENS_8equal_toIjEENS_9allocatorINS1_IKjS6_EEEEEEEENSB_ISG_EEE24__emplace_back_slow_pathIJRS3_RSF_EEEvDpOT_, symObjAddr: 0x31C5C, symBinAddr: 0x8ACAC, symSize: 0x248 }
  - { offsetInCU: 0xF7CF2, offset: 0x408867, size: 0x8, addend: 0x0, symName: __ZNSt3__112__hash_tableINS_17__hash_value_typeIjP19ggml_backend_bufferEENS_22__unordered_map_hasherIjS4_NS_4hashIjEENS_8equal_toIjEELb1EEENS_21__unordered_map_equalIjS4_S9_S7_Lb1EEENS_9allocatorIS4_EEE25__emplace_unique_key_argsIjJRKNS_4pairIKjS3_EEEEENSH_INS_15__hash_iteratorIPNS_11__hash_nodeIS4_PvEEEEbEERKT_DpOT0_, symObjAddr: 0x31FD4, symBinAddr: 0x8B024, symSize: 0x300 }
  - { offsetInCU: 0xF8793, offset: 0x409308, size: 0x8, addend: 0x0, symName: __ZNKSt3__16vectorINS_4pairINS_12basic_stringIcNS_11char_traitsIcEENS_9allocatorIcEEEEP11ggml_tensorEENS5_ISA_EEE20__throw_length_errorB8ue170006Ev, symObjAddr: 0x3255C, symBinAddr: 0x8B5AC, symSize: 0x14 }
  - { offsetInCU: 0xF87C8, offset: 0x40933D, size: 0x8, addend: 0x0, symName: __ZNSt3__114__split_bufferINS_4pairINS_12basic_stringIcNS_11char_traitsIcEENS_9allocatorIcEEEEP11ggml_tensorEERNS5_ISA_EEED1Ev, symObjAddr: 0x324F8, symBinAddr: 0x8B548, symSize: 0x64 }
  - { offsetInCU: 0xF8A97, offset: 0x40960C, size: 0x8, addend: 0x0, symName: '__ZNSt3__110__function6__funcIZNK11llama_model10print_infoEvE3$_5NS_9allocatorIS3_EEFjjEED1Ev', symObjAddr: 0x32694, symBinAddr: 0x8B5C0, symSize: 0x4 }
  - { offsetInCU: 0xF8AC3, offset: 0x409638, size: 0x8, addend: 0x0, symName: '__ZNSt3__110__function6__funcIZNK11llama_model10print_infoEvE3$_5NS_9allocatorIS3_EEFjjEED0Ev', symObjAddr: 0x32698, symBinAddr: 0x8B5C4, symSize: 0x4 }
  - { offsetInCU: 0xF8B79, offset: 0x4096EE, size: 0x8, addend: 0x0, symName: '__ZNKSt3__110__function6__funcIZNK11llama_model10print_infoEvE3$_5NS_9allocatorIS3_EEFjjEE7__cloneEv', symObjAddr: 0x3269C, symBinAddr: 0x8B5C8, symSize: 0x34 }
  - { offsetInCU: 0xF8CC7, offset: 0x40983C, size: 0x8, addend: 0x0, symName: '__ZNKSt3__110__function6__funcIZNK11llama_model10print_infoEvE3$_5NS_9allocatorIS3_EEFjjEE7__cloneEPNS0_6__baseIS6_EE', symObjAddr: 0x326D0, symBinAddr: 0x8B5FC, symSize: 0x14 }
  - { offsetInCU: 0xF8D37, offset: 0x4098AC, size: 0x8, addend: 0x0, symName: '__ZNSt3__110__function6__funcIZNK11llama_model10print_infoEvE3$_5NS_9allocatorIS3_EEFjjEE7destroyEv', symObjAddr: 0x326E4, symBinAddr: 0x8B610, symSize: 0x4 }
  - { offsetInCU: 0xF8D88, offset: 0x4098FD, size: 0x8, addend: 0x0, symName: '__ZNSt3__110__function6__funcIZNK11llama_model10print_infoEvE3$_5NS_9allocatorIS3_EEFjjEE18destroy_deallocateEv', symObjAddr: 0x326E8, symBinAddr: 0x8B614, symSize: 0x4 }
  - { offsetInCU: 0xF8DBD, offset: 0x409932, size: 0x8, addend: 0x0, symName: '__ZNSt3__110__function6__funcIZNK11llama_model10print_infoEvE3$_5NS_9allocatorIS3_EEFjjEE18destroy_deallocateEv', symObjAddr: 0x326E8, symBinAddr: 0x8B614, symSize: 0x4 }
  - { offsetInCU: 0xF8DE0, offset: 0x409955, size: 0x8, addend: 0x0, symName: '__ZNSt3__110__function6__funcIZNK11llama_model10print_infoEvE3$_5NS_9allocatorIS3_EEFjjEE18destroy_deallocateEv', symObjAddr: 0x326E8, symBinAddr: 0x8B614, symSize: 0x4 }
  - { offsetInCU: 0xF8E0D, offset: 0x409982, size: 0x8, addend: 0x0, symName: '__ZNSt3__110__function6__funcIZNK11llama_model10print_infoEvE3$_5NS_9allocatorIS3_EEFjjEE18destroy_deallocateEv', symObjAddr: 0x326E8, symBinAddr: 0x8B614, symSize: 0x4 }
  - { offsetInCU: 0xF8E33, offset: 0x4099A8, size: 0x8, addend: 0x0, symName: '__ZNSt3__110__function6__funcIZNK11llama_model10print_infoEvE3$_5NS_9allocatorIS3_EEFjjEE18destroy_deallocateEv', symObjAddr: 0x326E8, symBinAddr: 0x8B614, symSize: 0x4 }
  - { offsetInCU: 0xF8ED9, offset: 0x409A4E, size: 0x8, addend: 0x0, symName: '__ZNSt3__110__function6__funcIZNK11llama_model10print_infoEvE3$_5NS_9allocatorIS3_EEFjjEEclEOj', symObjAddr: 0x326EC, symBinAddr: 0x8B618, symSize: 0x10 }
  - { offsetInCU: 0xF8F71, offset: 0x409AE6, size: 0x8, addend: 0x0, symName: '__ZNKSt3__110__function6__funcIZNK11llama_model10print_infoEvE3$_5NS_9allocatorIS3_EEFjjEE6targetERKSt9type_info', symObjAddr: 0x326FC, symBinAddr: 0x8B628, symSize: 0x60 }
  - { offsetInCU: 0xF8FF6, offset: 0x409B6B, size: 0x8, addend: 0x0, symName: '__ZNKSt3__110__function6__funcIZNK11llama_model10print_infoEvE3$_5NS_9allocatorIS3_EEFjjEE11target_typeEv', symObjAddr: 0x3275C, symBinAddr: 0x8B688, symSize: 0xC }
  - { offsetInCU: 0xF901B, offset: 0x409B90, size: 0x8, addend: 0x0, symName: '__ZNSt3__110__function6__funcIZNK11llama_model10print_infoEvE3$_6NS_9allocatorIS3_EEFjjEED1Ev', symObjAddr: 0x32768, symBinAddr: 0x8B694, symSize: 0x4 }
  - { offsetInCU: 0xF9047, offset: 0x409BBC, size: 0x8, addend: 0x0, symName: '__ZNSt3__110__function6__funcIZNK11llama_model10print_infoEvE3$_6NS_9allocatorIS3_EEFjjEED0Ev', symObjAddr: 0x3276C, symBinAddr: 0x8B698, symSize: 0x4 }
  - { offsetInCU: 0xF90FD, offset: 0x409C72, size: 0x8, addend: 0x0, symName: '__ZNKSt3__110__function6__funcIZNK11llama_model10print_infoEvE3$_6NS_9allocatorIS3_EEFjjEE7__cloneEv', symObjAddr: 0x32770, symBinAddr: 0x8B69C, symSize: 0x34 }
  - { offsetInCU: 0xF924B, offset: 0x409DC0, size: 0x8, addend: 0x0, symName: '__ZNKSt3__110__function6__funcIZNK11llama_model10print_infoEvE3$_6NS_9allocatorIS3_EEFjjEE7__cloneEPNS0_6__baseIS6_EE', symObjAddr: 0x327A4, symBinAddr: 0x8B6D0, symSize: 0x14 }
  - { offsetInCU: 0xF92BB, offset: 0x409E30, size: 0x8, addend: 0x0, symName: '__ZNSt3__110__function6__funcIZNK11llama_model10print_infoEvE3$_6NS_9allocatorIS3_EEFjjEE7destroyEv', symObjAddr: 0x327B8, symBinAddr: 0x8B6E4, symSize: 0x4 }
  - { offsetInCU: 0xF930C, offset: 0x409E81, size: 0x8, addend: 0x0, symName: '__ZNSt3__110__function6__funcIZNK11llama_model10print_infoEvE3$_6NS_9allocatorIS3_EEFjjEE18destroy_deallocateEv', symObjAddr: 0x327BC, symBinAddr: 0x8B6E8, symSize: 0x4 }
  - { offsetInCU: 0xF9341, offset: 0x409EB6, size: 0x8, addend: 0x0, symName: '__ZNSt3__110__function6__funcIZNK11llama_model10print_infoEvE3$_6NS_9allocatorIS3_EEFjjEE18destroy_deallocateEv', symObjAddr: 0x327BC, symBinAddr: 0x8B6E8, symSize: 0x4 }
  - { offsetInCU: 0xF9364, offset: 0x409ED9, size: 0x8, addend: 0x0, symName: '__ZNSt3__110__function6__funcIZNK11llama_model10print_infoEvE3$_6NS_9allocatorIS3_EEFjjEE18destroy_deallocateEv', symObjAddr: 0x327BC, symBinAddr: 0x8B6E8, symSize: 0x4 }
  - { offsetInCU: 0xF9391, offset: 0x409F06, size: 0x8, addend: 0x0, symName: '__ZNSt3__110__function6__funcIZNK11llama_model10print_infoEvE3$_6NS_9allocatorIS3_EEFjjEE18destroy_deallocateEv', symObjAddr: 0x327BC, symBinAddr: 0x8B6E8, symSize: 0x4 }
  - { offsetInCU: 0xF93B7, offset: 0x409F2C, size: 0x8, addend: 0x0, symName: '__ZNSt3__110__function6__funcIZNK11llama_model10print_infoEvE3$_6NS_9allocatorIS3_EEFjjEE18destroy_deallocateEv', symObjAddr: 0x327BC, symBinAddr: 0x8B6E8, symSize: 0x4 }
  - { offsetInCU: 0xF945D, offset: 0x409FD2, size: 0x8, addend: 0x0, symName: '__ZNSt3__110__function6__funcIZNK11llama_model10print_infoEvE3$_6NS_9allocatorIS3_EEFjjEEclEOj', symObjAddr: 0x327C0, symBinAddr: 0x8B6EC, symSize: 0x10 }
  - { offsetInCU: 0xF94F5, offset: 0x40A06A, size: 0x8, addend: 0x0, symName: '__ZNKSt3__110__function6__funcIZNK11llama_model10print_infoEvE3$_6NS_9allocatorIS3_EEFjjEE6targetERKSt9type_info', symObjAddr: 0x327D0, symBinAddr: 0x8B6FC, symSize: 0x60 }
  - { offsetInCU: 0xF957A, offset: 0x40A0EF, size: 0x8, addend: 0x0, symName: '__ZNKSt3__110__function6__funcIZNK11llama_model10print_infoEvE3$_6NS_9allocatorIS3_EEFjjEE11target_typeEv', symObjAddr: 0x32830, symBinAddr: 0x8B75C, symSize: 0xC }
  - { offsetInCU: 0xF959F, offset: 0x40A114, size: 0x8, addend: 0x0, symName: '__ZNSt3__110__function6__funcIZNK11llama_model10print_infoEvE3$_7NS_9allocatorIS3_EEFjjEED1Ev', symObjAddr: 0x3283C, symBinAddr: 0x8B768, symSize: 0x4 }
  - { offsetInCU: 0xF95CB, offset: 0x40A140, size: 0x8, addend: 0x0, symName: '__ZNSt3__110__function6__funcIZNK11llama_model10print_infoEvE3$_7NS_9allocatorIS3_EEFjjEED0Ev', symObjAddr: 0x32840, symBinAddr: 0x8B76C, symSize: 0x4 }
  - { offsetInCU: 0xF9681, offset: 0x40A1F6, size: 0x8, addend: 0x0, symName: '__ZNKSt3__110__function6__funcIZNK11llama_model10print_infoEvE3$_7NS_9allocatorIS3_EEFjjEE7__cloneEv', symObjAddr: 0x32844, symBinAddr: 0x8B770, symSize: 0x34 }
  - { offsetInCU: 0xF97CF, offset: 0x40A344, size: 0x8, addend: 0x0, symName: '__ZNKSt3__110__function6__funcIZNK11llama_model10print_infoEvE3$_7NS_9allocatorIS3_EEFjjEE7__cloneEPNS0_6__baseIS6_EE', symObjAddr: 0x32878, symBinAddr: 0x8B7A4, symSize: 0x14 }
  - { offsetInCU: 0xF983F, offset: 0x40A3B4, size: 0x8, addend: 0x0, symName: '__ZNSt3__110__function6__funcIZNK11llama_model10print_infoEvE3$_7NS_9allocatorIS3_EEFjjEE7destroyEv', symObjAddr: 0x3288C, symBinAddr: 0x8B7B8, symSize: 0x4 }
  - { offsetInCU: 0xF9890, offset: 0x40A405, size: 0x8, addend: 0x0, symName: '__ZNSt3__110__function6__funcIZNK11llama_model10print_infoEvE3$_7NS_9allocatorIS3_EEFjjEE18destroy_deallocateEv', symObjAddr: 0x32890, symBinAddr: 0x8B7BC, symSize: 0x4 }
  - { offsetInCU: 0xF98C5, offset: 0x40A43A, size: 0x8, addend: 0x0, symName: '__ZNSt3__110__function6__funcIZNK11llama_model10print_infoEvE3$_7NS_9allocatorIS3_EEFjjEE18destroy_deallocateEv', symObjAddr: 0x32890, symBinAddr: 0x8B7BC, symSize: 0x4 }
  - { offsetInCU: 0xF98E8, offset: 0x40A45D, size: 0x8, addend: 0x0, symName: '__ZNSt3__110__function6__funcIZNK11llama_model10print_infoEvE3$_7NS_9allocatorIS3_EEFjjEE18destroy_deallocateEv', symObjAddr: 0x32890, symBinAddr: 0x8B7BC, symSize: 0x4 }
  - { offsetInCU: 0xF9915, offset: 0x40A48A, size: 0x8, addend: 0x0, symName: '__ZNSt3__110__function6__funcIZNK11llama_model10print_infoEvE3$_7NS_9allocatorIS3_EEFjjEE18destroy_deallocateEv', symObjAddr: 0x32890, symBinAddr: 0x8B7BC, symSize: 0x4 }
  - { offsetInCU: 0xF993B, offset: 0x40A4B0, size: 0x8, addend: 0x0, symName: '__ZNSt3__110__function6__funcIZNK11llama_model10print_infoEvE3$_7NS_9allocatorIS3_EEFjjEE18destroy_deallocateEv', symObjAddr: 0x32890, symBinAddr: 0x8B7BC, symSize: 0x4 }
  - { offsetInCU: 0xF99E1, offset: 0x40A556, size: 0x8, addend: 0x0, symName: '__ZNSt3__110__function6__funcIZNK11llama_model10print_infoEvE3$_7NS_9allocatorIS3_EEFjjEEclEOj', symObjAddr: 0x32894, symBinAddr: 0x8B7C0, symSize: 0x10 }
  - { offsetInCU: 0xF9A79, offset: 0x40A5EE, size: 0x8, addend: 0x0, symName: '__ZNKSt3__110__function6__funcIZNK11llama_model10print_infoEvE3$_7NS_9allocatorIS3_EEFjjEE6targetERKSt9type_info', symObjAddr: 0x328A4, symBinAddr: 0x8B7D0, symSize: 0x60 }
  - { offsetInCU: 0xF9AFE, offset: 0x40A673, size: 0x8, addend: 0x0, symName: '__ZNKSt3__110__function6__funcIZNK11llama_model10print_infoEvE3$_7NS_9allocatorIS3_EEFjjEE11target_typeEv', symObjAddr: 0x32904, symBinAddr: 0x8B830, symSize: 0xC }
  - { offsetInCU: 0xF9B23, offset: 0x40A698, size: 0x8, addend: 0x0, symName: '__ZNSt3__110__function6__funcIZNK11llama_model10print_infoEvE3$_8NS_9allocatorIS3_EEFjjEED1Ev', symObjAddr: 0x32910, symBinAddr: 0x8B83C, symSize: 0x4 }
  - { offsetInCU: 0xF9B4F, offset: 0x40A6C4, size: 0x8, addend: 0x0, symName: '__ZNSt3__110__function6__funcIZNK11llama_model10print_infoEvE3$_8NS_9allocatorIS3_EEFjjEED0Ev', symObjAddr: 0x32914, symBinAddr: 0x8B840, symSize: 0x4 }
  - { offsetInCU: 0xF9C05, offset: 0x40A77A, size: 0x8, addend: 0x0, symName: '__ZNKSt3__110__function6__funcIZNK11llama_model10print_infoEvE3$_8NS_9allocatorIS3_EEFjjEE7__cloneEv', symObjAddr: 0x32918, symBinAddr: 0x8B844, symSize: 0x34 }
  - { offsetInCU: 0xF9D53, offset: 0x40A8C8, size: 0x8, addend: 0x0, symName: '__ZNKSt3__110__function6__funcIZNK11llama_model10print_infoEvE3$_8NS_9allocatorIS3_EEFjjEE7__cloneEPNS0_6__baseIS6_EE', symObjAddr: 0x3294C, symBinAddr: 0x8B878, symSize: 0x14 }
  - { offsetInCU: 0xF9DC3, offset: 0x40A938, size: 0x8, addend: 0x0, symName: '__ZNSt3__110__function6__funcIZNK11llama_model10print_infoEvE3$_8NS_9allocatorIS3_EEFjjEE7destroyEv', symObjAddr: 0x32960, symBinAddr: 0x8B88C, symSize: 0x4 }
  - { offsetInCU: 0xF9E14, offset: 0x40A989, size: 0x8, addend: 0x0, symName: '__ZNSt3__110__function6__funcIZNK11llama_model10print_infoEvE3$_8NS_9allocatorIS3_EEFjjEE18destroy_deallocateEv', symObjAddr: 0x32964, symBinAddr: 0x8B890, symSize: 0x4 }
  - { offsetInCU: 0xF9E49, offset: 0x40A9BE, size: 0x8, addend: 0x0, symName: '__ZNSt3__110__function6__funcIZNK11llama_model10print_infoEvE3$_8NS_9allocatorIS3_EEFjjEE18destroy_deallocateEv', symObjAddr: 0x32964, symBinAddr: 0x8B890, symSize: 0x4 }
  - { offsetInCU: 0xF9E6C, offset: 0x40A9E1, size: 0x8, addend: 0x0, symName: '__ZNSt3__110__function6__funcIZNK11llama_model10print_infoEvE3$_8NS_9allocatorIS3_EEFjjEE18destroy_deallocateEv', symObjAddr: 0x32964, symBinAddr: 0x8B890, symSize: 0x4 }
  - { offsetInCU: 0xF9E99, offset: 0x40AA0E, size: 0x8, addend: 0x0, symName: '__ZNSt3__110__function6__funcIZNK11llama_model10print_infoEvE3$_8NS_9allocatorIS3_EEFjjEE18destroy_deallocateEv', symObjAddr: 0x32964, symBinAddr: 0x8B890, symSize: 0x4 }
  - { offsetInCU: 0xF9EBF, offset: 0x40AA34, size: 0x8, addend: 0x0, symName: '__ZNSt3__110__function6__funcIZNK11llama_model10print_infoEvE3$_8NS_9allocatorIS3_EEFjjEE18destroy_deallocateEv', symObjAddr: 0x32964, symBinAddr: 0x8B890, symSize: 0x4 }
  - { offsetInCU: 0xF9F65, offset: 0x40AADA, size: 0x8, addend: 0x0, symName: '__ZNSt3__110__function6__funcIZNK11llama_model10print_infoEvE3$_8NS_9allocatorIS3_EEFjjEEclEOj', symObjAddr: 0x32968, symBinAddr: 0x8B894, symSize: 0x10 }
  - { offsetInCU: 0xF9FFD, offset: 0x40AB72, size: 0x8, addend: 0x0, symName: '__ZNKSt3__110__function6__funcIZNK11llama_model10print_infoEvE3$_8NS_9allocatorIS3_EEFjjEE6targetERKSt9type_info', symObjAddr: 0x32978, symBinAddr: 0x8B8A4, symSize: 0x60 }
  - { offsetInCU: 0xFA082, offset: 0x40ABF7, size: 0x8, addend: 0x0, symName: '__ZNKSt3__110__function6__funcIZNK11llama_model10print_infoEvE3$_8NS_9allocatorIS3_EEFjjEE11target_typeEv', symObjAddr: 0x329D8, symBinAddr: 0x8B904, symSize: 0xC }
  - { offsetInCU: 0xFA0A7, offset: 0x40AC1C, size: 0x8, addend: 0x0, symName: '__ZNSt3__110__function6__funcIZNK11llama_model10print_infoEvE3$_9NS_9allocatorIS3_EEFjjEED1Ev', symObjAddr: 0x329E4, symBinAddr: 0x8B910, symSize: 0x4 }
  - { offsetInCU: 0xFA0D3, offset: 0x40AC48, size: 0x8, addend: 0x0, symName: '__ZNSt3__110__function6__funcIZNK11llama_model10print_infoEvE3$_9NS_9allocatorIS3_EEFjjEED0Ev', symObjAddr: 0x329E8, symBinAddr: 0x8B914, symSize: 0x4 }
  - { offsetInCU: 0xFA189, offset: 0x40ACFE, size: 0x8, addend: 0x0, symName: '__ZNKSt3__110__function6__funcIZNK11llama_model10print_infoEvE3$_9NS_9allocatorIS3_EEFjjEE7__cloneEv', symObjAddr: 0x329EC, symBinAddr: 0x8B918, symSize: 0x34 }
  - { offsetInCU: 0xFA2D7, offset: 0x40AE4C, size: 0x8, addend: 0x0, symName: '__ZNKSt3__110__function6__funcIZNK11llama_model10print_infoEvE3$_9NS_9allocatorIS3_EEFjjEE7__cloneEPNS0_6__baseIS6_EE', symObjAddr: 0x32A20, symBinAddr: 0x8B94C, symSize: 0x14 }
  - { offsetInCU: 0xFA347, offset: 0x40AEBC, size: 0x8, addend: 0x0, symName: '__ZNSt3__110__function6__funcIZNK11llama_model10print_infoEvE3$_9NS_9allocatorIS3_EEFjjEE7destroyEv', symObjAddr: 0x32A34, symBinAddr: 0x8B960, symSize: 0x4 }
  - { offsetInCU: 0xFA398, offset: 0x40AF0D, size: 0x8, addend: 0x0, symName: '__ZNSt3__110__function6__funcIZNK11llama_model10print_infoEvE3$_9NS_9allocatorIS3_EEFjjEE18destroy_deallocateEv', symObjAddr: 0x32A38, symBinAddr: 0x8B964, symSize: 0x4 }
  - { offsetInCU: 0xFA3CD, offset: 0x40AF42, size: 0x8, addend: 0x0, symName: '__ZNSt3__110__function6__funcIZNK11llama_model10print_infoEvE3$_9NS_9allocatorIS3_EEFjjEE18destroy_deallocateEv', symObjAddr: 0x32A38, symBinAddr: 0x8B964, symSize: 0x4 }
  - { offsetInCU: 0xFA3F0, offset: 0x40AF65, size: 0x8, addend: 0x0, symName: '__ZNSt3__110__function6__funcIZNK11llama_model10print_infoEvE3$_9NS_9allocatorIS3_EEFjjEE18destroy_deallocateEv', symObjAddr: 0x32A38, symBinAddr: 0x8B964, symSize: 0x4 }
  - { offsetInCU: 0xFA41D, offset: 0x40AF92, size: 0x8, addend: 0x0, symName: '__ZNSt3__110__function6__funcIZNK11llama_model10print_infoEvE3$_9NS_9allocatorIS3_EEFjjEE18destroy_deallocateEv', symObjAddr: 0x32A38, symBinAddr: 0x8B964, symSize: 0x4 }
  - { offsetInCU: 0xFA443, offset: 0x40AFB8, size: 0x8, addend: 0x0, symName: '__ZNSt3__110__function6__funcIZNK11llama_model10print_infoEvE3$_9NS_9allocatorIS3_EEFjjEE18destroy_deallocateEv', symObjAddr: 0x32A38, symBinAddr: 0x8B964, symSize: 0x4 }
  - { offsetInCU: 0xFA4E9, offset: 0x40B05E, size: 0x8, addend: 0x0, symName: '__ZNSt3__110__function6__funcIZNK11llama_model10print_infoEvE3$_9NS_9allocatorIS3_EEFjjEEclEOj', symObjAddr: 0x32A3C, symBinAddr: 0x8B968, symSize: 0x10 }
  - { offsetInCU: 0xFA581, offset: 0x40B0F6, size: 0x8, addend: 0x0, symName: '__ZNKSt3__110__function6__funcIZNK11llama_model10print_infoEvE3$_9NS_9allocatorIS3_EEFjjEE6targetERKSt9type_info', symObjAddr: 0x32A4C, symBinAddr: 0x8B978, symSize: 0x60 }
  - { offsetInCU: 0xFA606, offset: 0x40B17B, size: 0x8, addend: 0x0, symName: '__ZNKSt3__110__function6__funcIZNK11llama_model10print_infoEvE3$_9NS_9allocatorIS3_EEFjjEE11target_typeEv', symObjAddr: 0x32AAC, symBinAddr: 0x8B9D8, symSize: 0xC }
  - { offsetInCU: 0xFA62B, offset: 0x40B1A0, size: 0x8, addend: 0x0, symName: '__ZNSt3__110__function6__funcIZNK11llama_model10print_infoEvE4$_10NS_9allocatorIS3_EEFjjEED1Ev', symObjAddr: 0x32AB8, symBinAddr: 0x8B9E4, symSize: 0x4 }
  - { offsetInCU: 0xFA657, offset: 0x40B1CC, size: 0x8, addend: 0x0, symName: '__ZNSt3__110__function6__funcIZNK11llama_model10print_infoEvE4$_10NS_9allocatorIS3_EEFjjEED0Ev', symObjAddr: 0x32ABC, symBinAddr: 0x8B9E8, symSize: 0x4 }
  - { offsetInCU: 0xFA70D, offset: 0x40B282, size: 0x8, addend: 0x0, symName: '__ZNKSt3__110__function6__funcIZNK11llama_model10print_infoEvE4$_10NS_9allocatorIS3_EEFjjEE7__cloneEv', symObjAddr: 0x32AC0, symBinAddr: 0x8B9EC, symSize: 0x34 }
  - { offsetInCU: 0xFA85B, offset: 0x40B3D0, size: 0x8, addend: 0x0, symName: '__ZNKSt3__110__function6__funcIZNK11llama_model10print_infoEvE4$_10NS_9allocatorIS3_EEFjjEE7__cloneEPNS0_6__baseIS6_EE', symObjAddr: 0x32AF4, symBinAddr: 0x8BA20, symSize: 0x14 }
  - { offsetInCU: 0xFA8CB, offset: 0x40B440, size: 0x8, addend: 0x0, symName: '__ZNSt3__110__function6__funcIZNK11llama_model10print_infoEvE4$_10NS_9allocatorIS3_EEFjjEE7destroyEv', symObjAddr: 0x32B08, symBinAddr: 0x8BA34, symSize: 0x4 }
  - { offsetInCU: 0xFA91C, offset: 0x40B491, size: 0x8, addend: 0x0, symName: '__ZNSt3__110__function6__funcIZNK11llama_model10print_infoEvE4$_10NS_9allocatorIS3_EEFjjEE18destroy_deallocateEv', symObjAddr: 0x32B0C, symBinAddr: 0x8BA38, symSize: 0x4 }
  - { offsetInCU: 0xFA951, offset: 0x40B4C6, size: 0x8, addend: 0x0, symName: '__ZNSt3__110__function6__funcIZNK11llama_model10print_infoEvE4$_10NS_9allocatorIS3_EEFjjEE18destroy_deallocateEv', symObjAddr: 0x32B0C, symBinAddr: 0x8BA38, symSize: 0x4 }
  - { offsetInCU: 0xFA974, offset: 0x40B4E9, size: 0x8, addend: 0x0, symName: '__ZNSt3__110__function6__funcIZNK11llama_model10print_infoEvE4$_10NS_9allocatorIS3_EEFjjEE18destroy_deallocateEv', symObjAddr: 0x32B0C, symBinAddr: 0x8BA38, symSize: 0x4 }
  - { offsetInCU: 0xFA9A1, offset: 0x40B516, size: 0x8, addend: 0x0, symName: '__ZNSt3__110__function6__funcIZNK11llama_model10print_infoEvE4$_10NS_9allocatorIS3_EEFjjEE18destroy_deallocateEv', symObjAddr: 0x32B0C, symBinAddr: 0x8BA38, symSize: 0x4 }
  - { offsetInCU: 0xFA9C7, offset: 0x40B53C, size: 0x8, addend: 0x0, symName: '__ZNSt3__110__function6__funcIZNK11llama_model10print_infoEvE4$_10NS_9allocatorIS3_EEFjjEE18destroy_deallocateEv', symObjAddr: 0x32B0C, symBinAddr: 0x8BA38, symSize: 0x4 }
  - { offsetInCU: 0xFAA6D, offset: 0x40B5E2, size: 0x8, addend: 0x0, symName: '__ZNSt3__110__function6__funcIZNK11llama_model10print_infoEvE4$_10NS_9allocatorIS3_EEFjjEEclEOj', symObjAddr: 0x32B10, symBinAddr: 0x8BA3C, symSize: 0x10 }
  - { offsetInCU: 0xFAB05, offset: 0x40B67A, size: 0x8, addend: 0x0, symName: '__ZNKSt3__110__function6__funcIZNK11llama_model10print_infoEvE4$_10NS_9allocatorIS3_EEFjjEE6targetERKSt9type_info', symObjAddr: 0x32B20, symBinAddr: 0x8BA4C, symSize: 0x60 }
  - { offsetInCU: 0xFAB8A, offset: 0x40B6FF, size: 0x8, addend: 0x0, symName: '__ZNKSt3__110__function6__funcIZNK11llama_model10print_infoEvE4$_10NS_9allocatorIS3_EEFjjEE11target_typeEv', symObjAddr: 0x32B80, symBinAddr: 0x8BAAC, symSize: 0xC }
  - { offsetInCU: 0xFAEC5, offset: 0x40BA3A, size: 0x8, addend: 0x0, symName: __ZNK15llm_build_mamba17build_mamba_layerEP11ggml_cgraphP11ggml_tensorS3_RK12llama_ubatchi, symObjAddr: 0x3F88C, symBinAddr: 0x987B8, symSize: 0x65C }
  - { offsetInCU: 0xFB681, offset: 0x40C1F6, size: 0x8, addend: 0x0, symName: __ZN16llm_build_xverseC2ERK11llama_modelRK16llm_graph_paramsP11ggml_cgraph, symObjAddr: 0x3FEE8, symBinAddr: 0x98E14, symSize: 0x548 }
  - { offsetInCU: 0xFB75C, offset: 0x40C2D1, size: 0x8, addend: 0x0, symName: __ZNK20llm_build_rwkv6_base20build_rwkv6_time_mixEP11ggml_cgraphP11ggml_tensorS3_S3_RK12llama_ubatchi, symObjAddr: 0x486B8, symBinAddr: 0xA15E4, symSize: 0x9E0 }
  - { offsetInCU: 0xFC2C2, offset: 0x40CE37, size: 0x8, addend: 0x0, symName: __ZNK20llm_build_rwkv6_base23build_rwkv6_channel_mixEPK11llama_layerP11ggml_tensorS4_8llm_arch, symObjAddr: 0x49098, symBinAddr: 0xA1FC4, symSize: 0x124 }
  - { offsetInCU: 0xFC2D5, offset: 0x40CE4A, size: 0x8, addend: 0x0, symName: __ZNK20llm_build_rwkv6_base23build_rwkv6_channel_mixEPK11llama_layerP11ggml_tensorS4_8llm_arch, symObjAddr: 0x49098, symBinAddr: 0xA1FC4, symSize: 0x124 }
  - { offsetInCU: 0xFC47D, offset: 0x40CFF2, size: 0x8, addend: 0x0, symName: __ZN20llm_build_rwkv6qwen2C2ERK11llama_modelRK16llm_graph_paramsP11ggml_cgraph, symObjAddr: 0x491BC, symBinAddr: 0xA20E8, symSize: 0x46C }
  - { offsetInCU: 0xFC67E, offset: 0x40D1F3, size: 0x8, addend: 0x0, symName: __ZNK20llm_build_rwkv7_base20build_rwkv7_time_mixEP11ggml_cgraphP11ggml_tensorS3_S3_RS3_RK12llama_ubatchi, symObjAddr: 0x49C0C, symBinAddr: 0xA2B38, symSize: 0x858 }
  - { offsetInCU: 0x46, offset: 0x40E1A6, size: 0x8, addend: 0x0, symName: __ZL25llama_model_quantize_implRKNSt3__112basic_stringIcNS_11char_traitsIcEENS_9allocatorIcEEEES7_PK27llama_model_quantize_params, symObjAddr: 0x248, symBinAddr: 0xA7040, symSize: 0x4DE4 }
  - { offsetInCU: 0x2841A, offset: 0x43657A, size: 0x8, addend: 0x0, symName: '__ZNSt3__111__introsortINS_17_ClassicAlgPolicyERZL25llama_model_quantize_implRKNS_12basic_stringIcNS_11char_traitsIcEENS_9allocatorIcEEEES9_PK27llama_model_quantize_paramsE3$_2PPKN18llama_model_loader19llama_tensor_weightELb0EEEvT1_SK_T0_NS_15iterator_traitsISK_E15difference_typeEb', symObjAddr: 0x5BBC, symBinAddr: 0xAC708, symSize: 0x990 }
  - { offsetInCU: 0x29122, offset: 0x437282, size: 0x8, addend: 0x0, symName: '__ZNSt3__127__insertion_sort_incompleteB8ue170006INS_17_ClassicAlgPolicyERZL25llama_model_quantize_implRKNS_12basic_stringIcNS_11char_traitsIcEENS_9allocatorIcEEEES9_PK27llama_model_quantize_paramsE3$_2PPKN18llama_model_loader19llama_tensor_weightEEEbT1_SK_T0_', symObjAddr: 0x67BC, symBinAddr: 0xAD308, symSize: 0x298 }
  - { offsetInCU: 0x41691, offset: 0x44F7F1, size: 0x8, addend: 0x0, symName: '__ZNSt3__17__sort3B8ue170006INS_17_ClassicAlgPolicyERZL25llama_model_quantize_implRKNS_12basic_stringIcNS_11char_traitsIcEENS_9allocatorIcEEEES9_PK27llama_model_quantize_paramsE3$_2PPKN18llama_model_loader19llama_tensor_weightEEEjT1_SK_SK_T0_', symObjAddr: 0x66DC, symBinAddr: 0xAD228, symSize: 0xE0 }
  - { offsetInCU: 0x419C5, offset: 0x44FB25, size: 0x8, addend: 0x0, symName: '__ZNSt3__124__sort5_maybe_branchlessB8ue170006INS_17_ClassicAlgPolicyERZL25llama_model_quantize_implRKNS_12basic_stringIcNS_11char_traitsIcEENS_9allocatorIcEEEES9_PK27llama_model_quantize_paramsE3$_2PPKN18llama_model_loader19llama_tensor_weightEEENS_9enable_ifIXntsr21__use_branchless_sortIT0_T1_EE5valueEvE4typeESM_SM_SM_SM_SM_SL_', symObjAddr: 0x654C, symBinAddr: 0xAD098, symSize: 0x190 }
  - { offsetInCU: 0x45500, offset: 0x453660, size: 0x8, addend: 0x0, symName: '__ZNSt3__114__thread_proxyB8ue170006INS_5tupleIJNS_10unique_ptrINS_15__thread_structENS_14default_deleteIS3_EEEEZL28llama_tensor_dequantize_implP11ggml_tensorRNS_6vectorI7no_initIfENS_9allocatorISB_EEEERNS9_INS_6threadENSC_ISG_EEEEmiE3$_09ggml_typePhPfmEEEEEPvSP_', symObjAddr: 0x12F60, symBinAddr: 0xADC0C, symSize: 0xB4 }
  - { offsetInCU: 0x45939, offset: 0x453A99, size: 0x8, addend: 0x0, symName: '__ZNSt3__114__thread_proxyB8ue170006INS_5tupleIJNS_10unique_ptrINS_15__thread_structENS_14default_deleteIS3_EEEEZL26llama_tensor_quantize_impl9ggml_typePKfPvxxxS9_RNS_6vectorINS_6threadENS_9allocatorISC_EEEEiE3$_1EEEEESA_SA_', symObjAddr: 0x1315C, symBinAddr: 0xADE08, symSize: 0x78 }
  - { offsetInCU: 0x4B144, offset: 0x4592A4, size: 0x8, addend: 0x0, symName: _llama_model_quantize_default_params, symObjAddr: 0x0, symBinAddr: 0xA6DF8, symSize: 0x2C }
  - { offsetInCU: 0x4B433, offset: 0x459593, size: 0x8, addend: 0x0, symName: _llama_model_quantize, symObjAddr: 0x2C, symBinAddr: 0xA6E24, symSize: 0x21C }
  - { offsetInCU: 0x51825, offset: 0x45F985, size: 0x8, addend: 0x0, symName: __ZNSt3__16vectorINS_6threadENS_9allocatorIS1_EEE7reserveEm, symObjAddr: 0x512C, symBinAddr: 0xABE24, symSize: 0xD4 }
  - { offsetInCU: 0x51C18, offset: 0x45FD78, size: 0x8, addend: 0x0, symName: __ZNSt3__16vectorINS_10unique_ptrI12gguf_context20gguf_context_deleterEENS_9allocatorIS4_EEEC1Em, symObjAddr: 0x5200, symBinAddr: 0xABEF8, symSize: 0xCC }
  - { offsetInCU: 0x51C2A, offset: 0x45FD8A, size: 0x8, addend: 0x0, symName: __ZNSt3__16vectorINS_10unique_ptrI12gguf_context20gguf_context_deleterEENS_9allocatorIS4_EEEC1Em, symObjAddr: 0x5200, symBinAddr: 0xABEF8, symSize: 0xCC }
  - { offsetInCU: 0x520C6, offset: 0x460226, size: 0x8, addend: 0x0, symName: '__ZZL25llama_model_quantize_implRKNSt3__112basic_stringIcNS_11char_traitsIcEENS_9allocatorIcEEEES7_PK27llama_model_quantize_paramsENK3$_4clEi', symObjAddr: 0x52CC, symBinAddr: 0xABFC4, symSize: 0x414 }
  - { offsetInCU: 0x533BE, offset: 0x46151E, size: 0x8, addend: 0x0, symName: '__ZZL25llama_model_quantize_implRKNSt3__112basic_stringIcNS_11char_traitsIcEENS_9allocatorIcEEEES7_PK27llama_model_quantize_paramsENK3$_3clEv', symObjAddr: 0x56E0, symBinAddr: 0xAC3D8, symSize: 0x1FC }
  - { offsetInCU: 0x53C1C, offset: 0x461D7C, size: 0x8, addend: 0x0, symName: __ZNKSt3__112__hash_tableINS_17__hash_value_typeINS_12basic_stringIcNS_11char_traitsIcEENS_9allocatorIcEEEENS_6vectorIfNS5_IfEEEEEENS_22__unordered_map_hasherIS7_SB_NS_4hashIS7_EENS_8equal_toIS7_EELb1EEENS_21__unordered_map_equalIS7_SB_SG_SE_Lb1EEENS5_ISB_EEE4findIS7_EENS_21__hash_const_iteratorIPNS_11__hash_nodeISB_PvEEEERKT_, symObjAddr: 0x126F8, symBinAddr: 0xAD840, symSize: 0x23C }
  - { offsetInCU: 0x53EA6, offset: 0x462006, size: 0x8, addend: 0x0, symName: __ZNSt3__16vectorI7no_initIfENS_9allocatorIS2_EEE8__appendEm, symObjAddr: 0x12DD0, symBinAddr: 0xADA7C, symSize: 0x17C }
  - { offsetInCU: 0x54279, offset: 0x4623D9, size: 0x8, addend: 0x0, symName: __ZNKSt3__16vectorI7no_initIfENS_9allocatorIS2_EEE20__throw_length_errorB8ue170006Ev, symObjAddr: 0x12F4C, symBinAddr: 0xADBF8, symSize: 0x14 }
  - { offsetInCU: 0x54476, offset: 0x4625D6, size: 0x8, addend: 0x0, symName: '__ZZL21llama_tensor_get_typeR19quantize_state_impl9ggml_typePK11ggml_tensor11llama_ftypeENK3$_6clEiiPKc', symObjAddr: 0x6BE0, symBinAddr: 0xAD6DC, symSize: 0x164 }
  - { offsetInCU: 0x54AB7, offset: 0x462C17, size: 0x8, addend: 0x0, symName: __ZN18llama_model_loaderD2Ev, symObjAddr: 0x1321C, symBinAddr: 0xADEC8, symSize: 0x1AC }
  - { offsetInCU: 0x558D7, offset: 0x463A37, size: 0x8, addend: 0x0, symName: __ZNKSt3__16vectorINS_6threadENS_9allocatorIS1_EEE20__throw_length_errorB8ue170006Ev, symObjAddr: 0x6A54, symBinAddr: 0xAD5A0, symSize: 0x14 }
  - { offsetInCU: 0x55900, offset: 0x463A60, size: 0x8, addend: 0x0, symName: __ZNKSt3__16vectorINS_10unique_ptrI12gguf_context20gguf_context_deleterEENS_9allocatorIS4_EEE20__throw_length_errorB8ue170006Ev, symObjAddr: 0x6A68, symBinAddr: 0xAD5B4, symSize: 0x14 }
  - { offsetInCU: 0x55927, offset: 0x463A87, size: 0x8, addend: 0x0, symName: __ZNKSt3__16vectorIPKN18llama_model_loader19llama_tensor_weightENS_9allocatorIS4_EEE20__throw_length_errorB8ue170006Ev, symObjAddr: 0x5B0C, symBinAddr: 0xAC6F4, symSize: 0x14 }
  - { offsetInCU: 0x55973, offset: 0x463AD3, size: 0x8, addend: 0x0, symName: '__ZZL21llama_tensor_get_typeR19quantize_state_impl9ggml_typePK11ggml_tensor11llama_ftypeENK3$_6clEiiPKc', symObjAddr: 0x6BE0, symBinAddr: 0xAD6DC, symSize: 0x164 }
  - { offsetInCU: 0x55A28, offset: 0x463B88, size: 0x8, addend: 0x0, symName: __ZNSt3__114basic_ofstreamIcNS_11char_traitsIcEEED1Ev, symObjAddr: 0x5944, symBinAddr: 0xAC5D4, symSize: 0x58 }
  - { offsetInCU: 0x55A70, offset: 0x463BD0, size: 0x8, addend: 0x0, symName: __ZNSt3__16vectorINS_10unique_ptrI12gguf_context20gguf_context_deleterEENS_9allocatorIS4_EEED1B8ue170006Ev, symObjAddr: 0x599C, symBinAddr: 0xAC62C, symSize: 0x70 }
  - { offsetInCU: 0x55C72, offset: 0x463DD2, size: 0x8, addend: 0x0, symName: __ZNSt3__16vectorINS_6threadENS_9allocatorIS1_EEED1B8ue170006Ev, symObjAddr: 0x5A0C, symBinAddr: 0xAC69C, symSize: 0x58 }
  - { offsetInCU: 0x562B5, offset: 0x464415, size: 0x8, addend: 0x0, symName: __ZNKSt3__16vectorINS_10unique_ptrI12gguf_context20gguf_context_deleterEENS_9allocatorIS4_EEE20__throw_length_errorB8ue170006Ev, symObjAddr: 0x6A68, symBinAddr: 0xAD5B4, symSize: 0x14 }
  - { offsetInCU: 0x562DE, offset: 0x46443E, size: 0x8, addend: 0x0, symName: __ZNSt3__114basic_ofstreamIcNS_11char_traitsIcEEEC1ERKNS_12basic_stringIcS2_NS_9allocatorIcEEEEj, symObjAddr: 0x6A7C, symBinAddr: 0xAD5C8, symSize: 0x114 }
  - { offsetInCU: 0x567BD, offset: 0x46491D, size: 0x8, addend: 0x0, symName: __ZNSt3__114basic_ofstreamIcNS_11char_traitsIcEEEC1ERKNS_12basic_stringIcS2_NS_9allocatorIcEEEEj, symObjAddr: 0x6A7C, symBinAddr: 0xAD5C8, symSize: 0x114 }
  - { offsetInCU: 0x6C475, offset: 0x47A5D5, size: 0x8, addend: 0x0, symName: __ZNKSt3__112__hash_tableINS_17__hash_value_typeINS_12basic_stringIcNS_11char_traitsIcEENS_9allocatorIcEEEENS_6vectorIfNS5_IfEEEEEENS_22__unordered_map_hasherIS7_SB_NS_4hashIS7_EENS_8equal_toIS7_EELb1EEENS_21__unordered_map_equalIS7_SB_SG_SE_Lb1EEENS5_ISB_EEE4findIS7_EENS_21__hash_const_iteratorIPNS_11__hash_nodeISB_PvEEEERKT_, symObjAddr: 0x126F8, symBinAddr: 0xAD840, symSize: 0x23C }
  - { offsetInCU: 0x6E393, offset: 0x47C4F3, size: 0x8, addend: 0x0, symName: __ZNKSt3__16vectorI7no_initIfENS_9allocatorIS2_EEE20__throw_length_errorB8ue170006Ev, symObjAddr: 0x12F4C, symBinAddr: 0xADBF8, symSize: 0x14 }
  - { offsetInCU: 0x6E3BC, offset: 0x47C51C, size: 0x8, addend: 0x0, symName: '__ZNSt3__114__thread_proxyB8ue170006INS_5tupleIJNS_10unique_ptrINS_15__thread_structENS_14default_deleteIS3_EEEEZL28llama_tensor_dequantize_implP11ggml_tensorRNS_6vectorI7no_initIfENS_9allocatorISB_EEEERNS9_INS_6threadENSC_ISG_EEEEmiE3$_09ggml_typePhPfmEEEEEPvSP_', symObjAddr: 0x12F60, symBinAddr: 0xADC0C, symSize: 0xB4 }
  - { offsetInCU: 0x6E5B4, offset: 0x47C714, size: 0x8, addend: 0x0, symName: '__ZNSt3__110unique_ptrINS_5tupleIJNS0_INS_15__thread_structENS_14default_deleteIS2_EEEEZL28llama_tensor_dequantize_implP11ggml_tensorRNS_6vectorI7no_initIfENS_9allocatorISA_EEEERNS8_INS_6threadENSB_ISF_EEEEmiE3$_09ggml_typePhPfmEEENS3_ISN_EEED1B8ue170006Ev', symObjAddr: 0x13014, symBinAddr: 0xADCC0, symSize: 0x48 }
  - { offsetInCU: 0x6E759, offset: 0x47C8B9, size: 0x8, addend: 0x0, symName: '__ZZL26llama_tensor_quantize_impl9ggml_typePKfPvxxxS1_RNSt3__16vectorINS3_6threadENS3_9allocatorIS5_EEEEiENK3$_1clEv', symObjAddr: 0x1305C, symBinAddr: 0xADD08, symSize: 0x100 }
  - { offsetInCU: 0x6E9B2, offset: 0x47CB12, size: 0x8, addend: 0x0, symName: '__ZNSt3__110unique_ptrINS_5tupleIJNS0_INS_15__thread_structENS_14default_deleteIS2_EEEEZL26llama_tensor_quantize_impl9ggml_typePKfPvxxxS8_RNS_6vectorINS_6threadENS_9allocatorISB_EEEEiE3$_1EEENS3_ISH_EEED1B8ue170006Ev', symObjAddr: 0x131D4, symBinAddr: 0xADE80, symSize: 0x48 }
  - { offsetInCU: 0x53, offset: 0x47D901, size: 0x8, addend: 0x0, symName: __MergedGlobals, symObjAddr: 0x1C860, symBinAddr: 0x238660, symSize: 0x0 }
  - { offsetInCU: 0x190, offset: 0x47DA3E, size: 0x8, addend: 0x0, symName: __ZL22llama_sampler_greedy_i, symObjAddr: 0x1C590, symBinAddr: 0x238390, symSize: 0x0 }
  - { offsetInCU: 0x19E, offset: 0x47DA4C, size: 0x8, addend: 0x0, symName: __ZL12get_rng_seedj, symObjAddr: 0x728, symBinAddr: 0xAE79C, symSize: 0x154 }
  - { offsetInCU: 0x1CA, offset: 0x47DA78, size: 0x8, addend: 0x0, symName: __MergedGlobals.142, symObjAddr: 0x221838, symBinAddr: 0x2A38A0, symSize: 0x0 }
  - { offsetInCU: 0x70A, offset: 0x47DFB8, size: 0x8, addend: 0x0, symName: __MergedGlobals, symObjAddr: 0x1C860, symBinAddr: 0x238660, symSize: 0x0 }
  - { offsetInCU: 0x727, offset: 0x47DFD5, size: 0x8, addend: 0x0, symName: __ZL23llama_sampler_softmax_i, symObjAddr: 0x1C5C0, symBinAddr: 0x2383C0, symSize: 0x0 }
  - { offsetInCU: 0x742, offset: 0x47DFF0, size: 0x8, addend: 0x0, symName: __ZL21llama_sampler_top_k_i, symObjAddr: 0x1C5F0, symBinAddr: 0x2383F0, symSize: 0x0 }
  - { offsetInCU: 0x75D, offset: 0x47E00B, size: 0x8, addend: 0x0, symName: __ZL21llama_sampler_top_p_i, symObjAddr: 0x1C620, symBinAddr: 0x238420, symSize: 0x0 }
  - { offsetInCU: 0x778, offset: 0x47E026, size: 0x8, addend: 0x0, symName: __ZL21llama_sampler_min_p_i, symObjAddr: 0x1C650, symBinAddr: 0x238450, symSize: 0x0 }
  - { offsetInCU: 0x793, offset: 0x47E041, size: 0x8, addend: 0x0, symName: __ZL23llama_sampler_typical_i, symObjAddr: 0x1C680, symBinAddr: 0x238480, symSize: 0x0 }
  - { offsetInCU: 0x7AE, offset: 0x47E05C, size: 0x8, addend: 0x0, symName: __ZL20llama_sampler_temp_i, symObjAddr: 0x1C6B0, symBinAddr: 0x2384B0, symSize: 0x0 }
  - { offsetInCU: 0x7C9, offset: 0x47E077, size: 0x8, addend: 0x0, symName: __ZL24llama_sampler_temp_ext_i, symObjAddr: 0x1C6E0, symBinAddr: 0x2384E0, symSize: 0x0 }
  - { offsetInCU: 0x7E4, offset: 0x47E092, size: 0x8, addend: 0x0, symName: __ZL19llama_sampler_xtc_i, symObjAddr: 0x1C710, symBinAddr: 0x238510, symSize: 0x0 }
  - { offsetInCU: 0x7FF, offset: 0x47E0AD, size: 0x8, addend: 0x0, symName: __MergedGlobals, symObjAddr: 0x1C860, symBinAddr: 0x238660, symSize: 0x0 }
  - { offsetInCU: 0x81C, offset: 0x47E0CA, size: 0x8, addend: 0x0, symName: __MergedGlobals, symObjAddr: 0x1C860, symBinAddr: 0x238660, symSize: 0x0 }
  - { offsetInCU: 0x82D, offset: 0x47E0DB, size: 0x8, addend: 0x0, symName: __ZL31llama_sampler_init_grammar_implPK11llama_vocabPKcS3_bPS3_mPKimS4_m, symObjAddr: 0xCD8, symBinAddr: 0xAED4C, symSize: 0x5CC }
  - { offsetInCU: 0x84E, offset: 0x47E0FC, size: 0x8, addend: 0x0, symName: __MergedGlobals.142, symObjAddr: 0x221838, symBinAddr: 0x2A38A0, symSize: 0x0 }
  - { offsetInCU: 0x15413, offset: 0x492CC1, size: 0x8, addend: 0x0, symName: '__ZNSt3__111__introsortINS_17_ClassicAlgPolicyERZL26llama_sampler_softmax_implP22llama_token_data_arrayE3$_0P16llama_token_dataLb0EEEvT1_S8_T0_NS_15iterator_traitsIS8_E15difference_typeEb', symObjAddr: 0x3024, symBinAddr: 0xB1044, symSize: 0xF08 }
  - { offsetInCU: 0x16A55, offset: 0x494303, size: 0x8, addend: 0x0, symName: '__ZNSt3__127__insertion_sort_incompleteB8ue170006INS_17_ClassicAlgPolicyERZL26llama_sampler_softmax_implP22llama_token_data_arrayE3$_0P16llama_token_dataEEbT1_S8_T0_', symObjAddr: 0x3F2C, symBinAddr: 0xB1F4C, symSize: 0x470 }
  - { offsetInCU: 0x1BFDB, offset: 0x499889, size: 0x8, addend: 0x0, symName: '__ZNSt3__111__introsortINS_17_ClassicAlgPolicyERZL24llama_sampler_top_k_implP22llama_token_data_arrayiE3$_1P16llama_token_dataLb0EEEvT1_S8_T0_NS_15iterator_traitsIS8_E15difference_typeEb', symObjAddr: 0x564C, symBinAddr: 0xB35BC, symSize: 0xCDC }
  - { offsetInCU: 0x1D402, offset: 0x49ACB0, size: 0x8, addend: 0x0, symName: '__ZNSt3__127__insertion_sort_incompleteB8ue170006INS_17_ClassicAlgPolicyERZL24llama_sampler_top_k_implP22llama_token_data_arrayiE3$_1P16llama_token_dataEEbT1_S8_T0_', symObjAddr: 0x6328, symBinAddr: 0xB4298, symSize: 0x470 }
  - { offsetInCU: 0x1DE94, offset: 0x49B742, size: 0x8, addend: 0x0, symName: '__ZNSt3__111__introsortINS_17_ClassicAlgPolicyERZL25llama_sampler_min_p_applyP13llama_samplerP22llama_token_data_arrayE3$_2P16llama_token_dataLb0EEEvT1_SA_T0_NS_15iterator_traitsISA_E15difference_typeEb', symObjAddr: 0x6EDC, symBinAddr: 0xB4E4C, symSize: 0xF08 }
  - { offsetInCU: 0x1F492, offset: 0x49CD40, size: 0x8, addend: 0x0, symName: '__ZNSt3__127__insertion_sort_incompleteB8ue170006INS_17_ClassicAlgPolicyERZL25llama_sampler_min_p_applyP13llama_samplerP22llama_token_data_arrayE3$_2P16llama_token_dataEEbT1_SA_T0_', symObjAddr: 0x7DE4, symBinAddr: 0xB5D54, symSize: 0x470 }
  - { offsetInCU: 0x218E0, offset: 0x49F18E, size: 0x8, addend: 0x0, symName: '__ZNSt3__111__introsortINS_17_ClassicAlgPolicyERZL27llama_sampler_typical_applyP13llama_samplerP22llama_token_data_arrayE3$_3PmLb0EEEvT1_S9_T0_NS_15iterator_traitsIS9_E15difference_typeEb', symObjAddr: 0x8C7C, symBinAddr: 0xB6BD8, symSize: 0xA7C }
  - { offsetInCU: 0x23423, offset: 0x4A0CD1, size: 0x8, addend: 0x0, symName: '__ZNSt3__127__insertion_sort_incompleteB8ue170006INS_17_ClassicAlgPolicyERZL27llama_sampler_typical_applyP13llama_samplerP22llama_token_data_arrayE3$_3PmEEbT1_S9_T0_', symObjAddr: 0x9894, symBinAddr: 0xB77F0, symSize: 0x37C }
  - { offsetInCU: 0x2E94C, offset: 0x4AC1FA, size: 0x8, addend: 0x0, symName: __ZNSt3__113regex_replaceB8ue170006INS_20back_insert_iteratorINS_12basic_stringIcNS_11char_traitsIcEENS_9allocatorIcEEEEEEPKcNS_12regex_traitsIcEEcEET_SD_T0_SE_RKNS_11basic_regexIT2_T1_EEPKSG_NS_15regex_constants15match_flag_typeE, symObjAddr: 0x145F4, symBinAddr: 0xB9014, symSize: 0x258 }
  - { offsetInCU: 0x31453, offset: 0x4AED01, size: 0x8, addend: 0x0, symName: '__ZNSt3__17__sort4B8ue170006INS_17_ClassicAlgPolicyERZL26llama_sampler_softmax_implP22llama_token_data_arrayE3$_0P16llama_token_dataEEvT1_S8_S8_S8_T0_', symObjAddr: 0x439C, symBinAddr: 0xB23BC, symSize: 0x180 }
  - { offsetInCU: 0x323A0, offset: 0x4AFC4E, size: 0x8, addend: 0x0, symName: '__ZNSt3__119__partial_sort_implB8ue170006INS_17_ClassicAlgPolicyERZL24llama_sampler_top_k_implP22llama_token_data_arrayiE3$_1P16llama_token_dataS7_EET1_S8_S8_T2_OT0_', symObjAddr: 0x51F4, symBinAddr: 0xB3178, symSize: 0x41C }
  - { offsetInCU: 0x32DF6, offset: 0x4B06A4, size: 0x8, addend: 0x0, symName: '__ZNSt3__17__sort4B8ue170006INS_17_ClassicAlgPolicyERZL24llama_sampler_top_k_implP22llama_token_data_arrayiE3$_1P16llama_token_dataEEvT1_S8_S8_S8_T0_', symObjAddr: 0x6798, symBinAddr: 0xB4708, symSize: 0x180 }
  - { offsetInCU: 0x33B4A, offset: 0x4B13F8, size: 0x8, addend: 0x0, symName: '__ZNSt3__17__sort4B8ue170006INS_17_ClassicAlgPolicyERZL25llama_sampler_min_p_applyP13llama_samplerP22llama_token_data_arrayE3$_2P16llama_token_dataEEvT1_SA_SA_SA_T0_', symObjAddr: 0x8254, symBinAddr: 0xB61C4, symSize: 0x180 }
  - { offsetInCU: 0x34EE6, offset: 0x4B2794, size: 0x8, addend: 0x0, symName: '__ZNSt3__124__sort5_maybe_branchlessB8ue170006INS_17_ClassicAlgPolicyERZL27llama_sampler_typical_applyP13llama_samplerP22llama_token_data_arrayE3$_3PmEENS_9enable_ifIXntsr21__use_branchless_sortIT0_T1_EE5valueEvE4typeESB_SB_SB_SB_SB_SA_', symObjAddr: 0x96F8, symBinAddr: 0xB7654, symSize: 0x19C }
  - { offsetInCU: 0x34F58, offset: 0x4B2806, size: 0x8, addend: 0x0, symName: '__ZNSt3__124__sort5_maybe_branchlessB8ue170006INS_17_ClassicAlgPolicyERZL27llama_sampler_typical_applyP13llama_samplerP22llama_token_data_arrayE3$_3PmEENS_9enable_ifIXntsr21__use_branchless_sortIT0_T1_EE5valueEvE4typeESB_SB_SB_SB_SB_SA_', symObjAddr: 0x96F8, symBinAddr: 0xB7654, symSize: 0x19C }
  - { offsetInCU: 0x34F90, offset: 0x4B283E, size: 0x8, addend: 0x0, symName: '__ZNSt3__124__sort5_maybe_branchlessB8ue170006INS_17_ClassicAlgPolicyERZL27llama_sampler_typical_applyP13llama_samplerP22llama_token_data_arrayE3$_3PmEENS_9enable_ifIXntsr21__use_branchless_sortIT0_T1_EE5valueEvE4typeESB_SB_SB_SB_SB_SA_', symObjAddr: 0x96F8, symBinAddr: 0xB7654, symSize: 0x19C }
  - { offsetInCU: 0x3A3B4, offset: 0x4B7C62, size: 0x8, addend: 0x0, symName: __ZL23llama_sampler_grammar_i, symObjAddr: 0x1C830, symBinAddr: 0x238630, symSize: 0x0 }
  - { offsetInCU: 0x3A3CF, offset: 0x4B7C7D, size: 0x8, addend: 0x0, symName: __ZL25llama_sampler_penalties_i, symObjAddr: 0x1C740, symBinAddr: 0x238540, symSize: 0x0 }
  - { offsetInCU: 0x3A3EF, offset: 0x4B7C9D, size: 0x8, addend: 0x0, symName: __ZL27llama_sampler_top_n_sigma_i, symObjAddr: 0x1C770, symBinAddr: 0x238570, symSize: 0x0 }
  - { offsetInCU: 0x3A40A, offset: 0x4B7CB8, size: 0x8, addend: 0x0, symName: __ZL19llama_sampler_dry_i, symObjAddr: 0x1C7A0, symBinAddr: 0x2385A0, symSize: 0x0 }
  - { offsetInCU: 0x3A425, offset: 0x4B7CD3, size: 0x8, addend: 0x0, symName: __ZL26llama_sampler_logit_bias_i, symObjAddr: 0x1C7D0, symBinAddr: 0x2385D0, symSize: 0x0 }
  - { offsetInCU: 0x3A440, offset: 0x4B7CEE, size: 0x8, addend: 0x0, symName: __ZL22llama_sampler_infill_i, symObjAddr: 0x1C800, symBinAddr: 0x238600, symSize: 0x0 }
  - { offsetInCU: 0x3B407, offset: 0x4B8CB5, size: 0x8, addend: 0x0, symName: __ZL17llama_sample_distP22llama_token_data_arrayRNSt3__123mersenne_twister_engineIjLm32ELm624ELm397ELm31ELj2567483615ELm11ELj4294967295ELm7ELj2636928640ELm15ELj4022730752ELm18ELj1812433253EEE, symObjAddr: 0x2D7C, symBinAddr: 0xB0D9C, symSize: 0x2A8 }
  - { offsetInCU: 0x3F5D5, offset: 0x4BCE83, size: 0x8, addend: 0x0, symName: _llama_sampler_init, symObjAddr: 0x0, symBinAddr: 0xAE074, symSize: 0x2C }
  - { offsetInCU: 0x3F5FD, offset: 0x4BCEAB, size: 0x8, addend: 0x0, symName: _llama_sampler_name, symObjAddr: 0x2C, symBinAddr: 0xAE0A0, symSize: 0x1C }
  - { offsetInCU: 0x3F635, offset: 0x4BCEE3, size: 0x8, addend: 0x0, symName: _llama_sampler_accept, symObjAddr: 0x48, symBinAddr: 0xAE0BC, symSize: 0x14 }
  - { offsetInCU: 0x3F662, offset: 0x4BCF10, size: 0x8, addend: 0x0, symName: _llama_sampler_apply, symObjAddr: 0x5C, symBinAddr: 0xAE0D0, symSize: 0x48 }
  - { offsetInCU: 0x3F698, offset: 0x4BCF46, size: 0x8, addend: 0x0, symName: _llama_sampler_reset, symObjAddr: 0xA4, symBinAddr: 0xAE118, symSize: 0x14 }
  - { offsetInCU: 0x3F6C6, offset: 0x4BCF74, size: 0x8, addend: 0x0, symName: _llama_sampler_reset, symObjAddr: 0xA4, symBinAddr: 0xAE118, symSize: 0x14 }
  - { offsetInCU: 0x3F713, offset: 0x4BCFC1, size: 0x8, addend: 0x0, symName: _llama_sampler_clone, symObjAddr: 0xB8, symBinAddr: 0xAE12C, symSize: 0x5C }
  - { offsetInCU: 0x3F764, offset: 0x4BD012, size: 0x8, addend: 0x0, symName: _llama_sampler_free, symObjAddr: 0x114, symBinAddr: 0xAE188, symSize: 0x3C }
  - { offsetInCU: 0x3F776, offset: 0x4BD024, size: 0x8, addend: 0x0, symName: _llama_sampler_free, symObjAddr: 0x114, symBinAddr: 0xAE188, symSize: 0x3C }
  - { offsetInCU: 0x3FCF2, offset: 0x4BD5A0, size: 0x8, addend: 0x0, symName: _llama_sampler_sample, symObjAddr: 0x150, symBinAddr: 0xAE1C4, symSize: 0x2FC }
  - { offsetInCU: 0x4080C, offset: 0x4BE0BA, size: 0x8, addend: 0x0, symName: __ZNKSt3__16vectorI16llama_token_dataNS_9allocatorIS1_EEE20__throw_length_errorB8ue170006Ev, symObjAddr: 0x5624, symBinAddr: 0xB3594, symSize: 0x14 }
  - { offsetInCU: 0x40836, offset: 0x4BE0E4, size: 0x8, addend: 0x0, symName: __ZNKSt3__16vectorIP16llama_token_dataNS_9allocatorIS2_EEE20__throw_length_errorB8ue170006Ev, symObjAddr: 0x5638, symBinAddr: 0xB35A8, symSize: 0x14 }
  - { offsetInCU: 0x40840, offset: 0x4BE0EE, size: 0x8, addend: 0x0, symName: _llama_sampler_chain_init, symObjAddr: 0x44C, symBinAddr: 0xAE4C0, symSize: 0x50 }
  - { offsetInCU: 0x40C2A, offset: 0x4BE4D8, size: 0x8, addend: 0x0, symName: _llama_sampler_chain_add, symObjAddr: 0x49C, symBinAddr: 0xAE510, symSize: 0x118 }
  - { offsetInCU: 0x41058, offset: 0x4BE906, size: 0x8, addend: 0x0, symName: _llama_sampler_chain_get, symObjAddr: 0x5B4, symBinAddr: 0xAE628, symSize: 0x2C }
  - { offsetInCU: 0x41063, offset: 0x4BE911, size: 0x8, addend: 0x0, symName: __ZNKSt3__16vectorIP13llama_samplerNS_9allocatorIS2_EEE20__throw_length_errorB8ue170006Ev, symObjAddr: 0x1AF7C, symBinAddr: 0xBD190, symSize: 0x14 }
  - { offsetInCU: 0x4108D, offset: 0x4BE93B, size: 0x8, addend: 0x0, symName: __ZNSt3__112__hash_tableINS_17__hash_value_typeIiNS_6vectorIiNS_9allocatorIiEEEEEENS_22__unordered_map_hasherIiS6_NS_4hashIiEENS_8equal_toIiEELb1EEENS_21__unordered_map_equalIiS6_SB_S9_Lb1EEENS3_IS6_EEE14__assign_multiINS_21__hash_const_iteratorIPNS_11__hash_nodeIS6_PvEEEEEEvT_SO_.cold.1, symObjAddr: 0x1AF90, symBinAddr: 0x1CE948, symSize: 0x3C }
  - { offsetInCU: 0x41098, offset: 0x4BE946, size: 0x8, addend: 0x0, symName: _llama_sampler_chain_get, symObjAddr: 0x5B4, symBinAddr: 0xAE628, symSize: 0x2C }
  - { offsetInCU: 0x41236, offset: 0x4BEAE4, size: 0x8, addend: 0x0, symName: _llama_sampler_chain_remove, symObjAddr: 0x5E0, symBinAddr: 0xAE654, symSize: 0x80 }
  - { offsetInCU: 0x414AB, offset: 0x4BED59, size: 0x8, addend: 0x0, symName: _llama_sampler_chain_n, symObjAddr: 0x660, symBinAddr: 0xAE6D4, symSize: 0x14 }
  - { offsetInCU: 0x41507, offset: 0x4BEDB5, size: 0x8, addend: 0x0, symName: _llama_sampler_init_greedy, symObjAddr: 0x674, symBinAddr: 0xAE6E8, symSize: 0x24 }
  - { offsetInCU: 0x415C8, offset: 0x4BEE76, size: 0x8, addend: 0x0, symName: _llama_sampler_init_dist, symObjAddr: 0x698, symBinAddr: 0xAE70C, symSize: 0x90 }
  - { offsetInCU: 0x4191D, offset: 0x4BF1CB, size: 0x8, addend: 0x0, symName: __ZNSt3__113random_deviceC1B8ue170006Ev, symObjAddr: 0x2A2C, symBinAddr: 0xB0A4C, symSize: 0x98 }
  - { offsetInCU: 0x41E06, offset: 0x4BF6B4, size: 0x8, addend: 0x0, symName: _llama_sampler_init_softmax, symObjAddr: 0x87C, symBinAddr: 0xAE8F0, symSize: 0x24 }
  - { offsetInCU: 0x41E47, offset: 0x4BF6F5, size: 0x8, addend: 0x0, symName: _llama_sampler_init_top_k, symObjAddr: 0x8A0, symBinAddr: 0xAE914, symSize: 0x40 }
  - { offsetInCU: 0x41E8B, offset: 0x4BF739, size: 0x8, addend: 0x0, symName: _llama_sampler_init_top_p, symObjAddr: 0x8E0, symBinAddr: 0xAE954, symSize: 0x50 }
  - { offsetInCU: 0x41ED8, offset: 0x4BF786, size: 0x8, addend: 0x0, symName: _llama_sampler_init_min_p, symObjAddr: 0x930, symBinAddr: 0xAE9A4, symSize: 0x50 }
  - { offsetInCU: 0x41F25, offset: 0x4BF7D3, size: 0x8, addend: 0x0, symName: _llama_sampler_init_typical, symObjAddr: 0x980, symBinAddr: 0xAE9F4, symSize: 0x50 }
  - { offsetInCU: 0x41F72, offset: 0x4BF820, size: 0x8, addend: 0x0, symName: _llama_sampler_init_temp, symObjAddr: 0x9D0, symBinAddr: 0xAEA44, symSize: 0x48 }
  - { offsetInCU: 0x41FB6, offset: 0x4BF864, size: 0x8, addend: 0x0, symName: _llama_sampler_init_temp_ext, symObjAddr: 0xA18, symBinAddr: 0xAEA8C, symSize: 0x5C }
  - { offsetInCU: 0x4200C, offset: 0x4BF8BA, size: 0x8, addend: 0x0, symName: _llama_sampler_init_xtc, symObjAddr: 0xA74, symBinAddr: 0xAEAE8, symSize: 0xB4 }
  - { offsetInCU: 0x42118, offset: 0x4BF9C6, size: 0x8, addend: 0x0, symName: _llama_sampler_init_mirostat, symObjAddr: 0xB28, symBinAddr: 0xAEB9C, symSize: 0xCC }
  - { offsetInCU: 0x4222D, offset: 0x4BFADB, size: 0x8, addend: 0x0, symName: _llama_sampler_init_mirostat_v2, symObjAddr: 0xBF4, symBinAddr: 0xAEC68, symSize: 0xB0 }
  - { offsetInCU: 0x42331, offset: 0x4BFBDF, size: 0x8, addend: 0x0, symName: _llama_sampler_init_grammar, symObjAddr: 0xCA4, symBinAddr: 0xAED18, symSize: 0x34 }
  - { offsetInCU: 0x426B7, offset: 0x4BFF65, size: 0x8, addend: 0x0, symName: __ZNSt3__111basic_regexIcNS_12regex_traitsIcEEEC2B8ue170006EPKcNS_15regex_constants18syntax_option_typeE, symObjAddr: 0xB060, symBinAddr: 0xB8F54, symSize: 0xC0 }
  - { offsetInCU: 0x42881, offset: 0x4C012F, size: 0x8, addend: 0x0, symName: _llama_sampler_init_grammar_lazy, symObjAddr: 0x12A4, symBinAddr: 0xAF318, symSize: 0x34 }
  - { offsetInCU: 0x42951, offset: 0x4C01FF, size: 0x8, addend: 0x0, symName: _llama_sampler_init_grammar_lazy_patterns, symObjAddr: 0x12D8, symBinAddr: 0xAF34C, symSize: 0x34 }
  - { offsetInCU: 0x42DEA, offset: 0x4C0698, size: 0x8, addend: 0x0, symName: _llama_sampler_init_penalties, symObjAddr: 0x130C, symBinAddr: 0xAF380, symSize: 0xE8 }
  - { offsetInCU: 0x431DF, offset: 0x4C0A8D, size: 0x8, addend: 0x0, symName: _llama_sampler_init_top_n_sigma, symObjAddr: 0x13F4, symBinAddr: 0xAF468, symSize: 0x48 }
  - { offsetInCU: 0x44993, offset: 0x4C2241, size: 0x8, addend: 0x0, symName: _llama_sampler_init_dry, symObjAddr: 0x143C, symBinAddr: 0xAF4B0, symSize: 0xB14 }
  - { offsetInCU: 0x484E5, offset: 0x4C5D93, size: 0x8, addend: 0x0, symName: __ZNSt3__112__hash_tableINS_17__hash_value_typeIiNS_6vectorIiNS_9allocatorIiEEEEEENS_22__unordered_map_hasherIiS6_NS_4hashIiEENS_8equal_toIiEELb1EEENS_21__unordered_map_equalIiS6_SB_S9_Lb1EEENS3_IS6_EEE27__node_insert_multi_prepareEmRS6_, symObjAddr: 0x187D4, symBinAddr: 0xBA9E8, symSize: 0x27C }
  - { offsetInCU: 0x4877E, offset: 0x4C602C, size: 0x8, addend: 0x0, symName: __ZNSt3__112__hash_tableINS_17__hash_value_typeIiNS_6vectorIiNS_9allocatorIiEEEEEENS_22__unordered_map_hasherIiS6_NS_4hashIiEENS_8equal_toIiEELb1EEENS_21__unordered_map_equalIiS6_SB_S9_Lb1EEENS3_IS6_EEE19__node_insert_multiEPNS_11__hash_nodeIS6_PvEE, symObjAddr: 0x18664, symBinAddr: 0xBA878, symSize: 0x124 }
  - { offsetInCU: 0x48975, offset: 0x4C6223, size: 0x8, addend: 0x0, symName: __ZNKSt3__16vectorI16llama_token_dataNS_9allocatorIS1_EEE20__throw_length_errorB8ue170006Ev, symObjAddr: 0x5624, symBinAddr: 0xB3594, symSize: 0x14 }
  - { offsetInCU: 0x48B2E, offset: 0x4C63DC, size: 0x8, addend: 0x0, symName: __ZNSt3__118unordered_multimapIiNS_6vectorIiNS_9allocatorIiEEEENS_4hashIiEENS_8equal_toIiEENS2_INS_4pairIKiS4_EEEEED1B8ue170006Ev, symObjAddr: 0x1F98, symBinAddr: 0xAFFC4, symSize: 0x68 }
  - { offsetInCU: 0x48F94, offset: 0x4C6842, size: 0x8, addend: 0x0, symName: __ZNSt3__110unique_ptrINS_11__hash_nodeINS_17__hash_value_typeIiNS_6vectorIiNS_9allocatorIiEEEEEEPvEENS_22__hash_node_destructorINS4_IS9_EEEEED1B8ue170006Ev, symObjAddr: 0x18788, symBinAddr: 0xBA99C, symSize: 0x4C }
  - { offsetInCU: 0x4965E, offset: 0x4C6F0C, size: 0x8, addend: 0x0, symName: __Z30llama_sampler_init_dry_testingiffiiRKNSt3__16vectorINS0_IiNS_9allocatorIiEEEENS1_IS3_EEEE, symObjAddr: 0x2000, symBinAddr: 0xB002C, symSize: 0x250 }
  - { offsetInCU: 0x4A932, offset: 0x4C81E0, size: 0x8, addend: 0x0, symName: _llama_sampler_init_logit_bias, symObjAddr: 0x2250, symBinAddr: 0xB027C, symSize: 0xD0 }
  - { offsetInCU: 0x4AE40, offset: 0x4C86EE, size: 0x8, addend: 0x0, symName: __ZNKSt3__16vectorI16llama_logit_biasNS_9allocatorIS1_EEE20__throw_length_errorB8ue170006Ev, symObjAddr: 0x1A728, symBinAddr: 0xBC93C, symSize: 0x14 }
  - { offsetInCU: 0x4AE6A, offset: 0x4C8718, size: 0x8, addend: 0x0, symName: __ZL25llama_sampler_infill_namePK13llama_sampler, symObjAddr: 0x1A73C, symBinAddr: 0xBC950, symSize: 0xC }
  - { offsetInCU: 0x4B05A, offset: 0x4C8908, size: 0x8, addend: 0x0, symName: _llama_sampler_init_infill, symObjAddr: 0x2320, symBinAddr: 0xB034C, symSize: 0x12C }
  - { offsetInCU: 0x4B506, offset: 0x4C8DB4, size: 0x8, addend: 0x0, symName: _llama_sampler_get_seed, symObjAddr: 0x244C, symBinAddr: 0xB0478, symSize: 0xBC }
  - { offsetInCU: 0x4B62A, offset: 0x4C8ED8, size: 0x8, addend: 0x0, symName: _llama_perf_sampler, symObjAddr: 0x2508, symBinAddr: 0xB0534, symSize: 0x7C }
  - { offsetInCU: 0x4B6BA, offset: 0x4C8F68, size: 0x8, addend: 0x0, symName: _llama_perf_sampler_print, symObjAddr: 0x2584, symBinAddr: 0xB05B0, symSize: 0xBC }
  - { offsetInCU: 0x4B725, offset: 0x4C8FD3, size: 0x8, addend: 0x0, symName: _llama_perf_sampler_print, symObjAddr: 0x2584, symBinAddr: 0xB05B0, symSize: 0xBC }
  - { offsetInCU: 0x4B7DD, offset: 0x4C908B, size: 0x8, addend: 0x0, symName: _llama_perf_sampler_reset, symObjAddr: 0x2640, symBinAddr: 0xB066C, symSize: 0x60 }
  - { offsetInCU: 0x4B7F0, offset: 0x4C909E, size: 0x8, addend: 0x0, symName: _llama_perf_sampler_reset, symObjAddr: 0x2640, symBinAddr: 0xB066C, symSize: 0x60 }
  - { offsetInCU: 0x4B82B, offset: 0x4C90D9, size: 0x8, addend: 0x0, symName: __ZL24llama_sampler_chain_namePK13llama_sampler, symObjAddr: 0x26A0, symBinAddr: 0xB06CC, symSize: 0xC }
  - { offsetInCU: 0x4B83E, offset: 0x4C90EC, size: 0x8, addend: 0x0, symName: __ZL24llama_sampler_chain_namePK13llama_sampler, symObjAddr: 0x26A0, symBinAddr: 0xB06CC, symSize: 0xC }
  - { offsetInCU: 0x4B899, offset: 0x4C9147, size: 0x8, addend: 0x0, symName: __ZL26llama_sampler_chain_acceptP13llama_sampleri, symObjAddr: 0x26AC, symBinAddr: 0xB06D8, symSize: 0x98 }
  - { offsetInCU: 0x4B9BC, offset: 0x4C926A, size: 0x8, addend: 0x0, symName: __ZL25llama_sampler_chain_applyP13llama_samplerP22llama_token_data_array, symObjAddr: 0x2744, symBinAddr: 0xB0770, symSize: 0xB8 }
  - { offsetInCU: 0x4BAF3, offset: 0x4C93A1, size: 0x8, addend: 0x0, symName: __ZL25llama_sampler_chain_resetP13llama_sampler, symObjAddr: 0x27FC, symBinAddr: 0xB0828, symSize: 0x58 }
  - { offsetInCU: 0x4BC50, offset: 0x4C94FE, size: 0x8, addend: 0x0, symName: __ZL25llama_sampler_chain_clonePK13llama_sampler, symObjAddr: 0x2854, symBinAddr: 0xB0880, symSize: 0xCC }
  - { offsetInCU: 0x4BDC0, offset: 0x4C966E, size: 0x8, addend: 0x0, symName: __ZL24llama_sampler_chain_freeP13llama_sampler, symObjAddr: 0x2920, symBinAddr: 0xB094C, symSize: 0x98 }
  - { offsetInCU: 0x4BE8C, offset: 0x4C973A, size: 0x8, addend: 0x0, symName: __ZL24llama_sampler_chain_freeP13llama_sampler, symObjAddr: 0x2920, symBinAddr: 0xB094C, symSize: 0x98 }
  - { offsetInCU: 0x4C0C7, offset: 0x4C9975, size: 0x8, addend: 0x0, symName: __ZL25llama_sampler_greedy_namePK13llama_sampler, symObjAddr: 0x29C4, symBinAddr: 0xB09E4, symSize: 0xC }
  - { offsetInCU: 0x4C0EF, offset: 0x4C999D, size: 0x8, addend: 0x0, symName: __ZL26llama_sampler_greedy_applyP13llama_samplerP22llama_token_data_array, symObjAddr: 0x29D0, symBinAddr: 0xB09F0, symSize: 0x5C }
  - { offsetInCU: 0x4C142, offset: 0x4C99F0, size: 0x8, addend: 0x0, symName: __ZL23llama_sampler_dist_namePK13llama_sampler, symObjAddr: 0x2AC4, symBinAddr: 0xB0AE4, symSize: 0xC }
  - { offsetInCU: 0x4C1CD, offset: 0x4C9A7B, size: 0x8, addend: 0x0, symName: __ZL24llama_sampler_dist_applyP13llama_samplerP22llama_token_data_array, symObjAddr: 0x2AD0, symBinAddr: 0xB0AF0, symSize: 0x184 }
  - { offsetInCU: 0x4C33E, offset: 0x4C9BEC, size: 0x8, addend: 0x0, symName: __ZL24llama_sampler_dist_resetP13llama_sampler, symObjAddr: 0x2C54, symBinAddr: 0xB0C74, symSize: 0x64 }
  - { offsetInCU: 0x4C351, offset: 0x4C9BFF, size: 0x8, addend: 0x0, symName: __ZL24llama_sampler_dist_resetP13llama_sampler, symObjAddr: 0x2C54, symBinAddr: 0xB0C74, symSize: 0x64 }
  - { offsetInCU: 0x4C3F8, offset: 0x4C9CA6, size: 0x8, addend: 0x0, symName: __ZL24llama_sampler_dist_clonePK13llama_sampler, symObjAddr: 0x2CB8, symBinAddr: 0xB0CD8, symSize: 0xB4 }
  - { offsetInCU: 0x4C557, offset: 0x4C9E05, size: 0x8, addend: 0x0, symName: __ZL23llama_sampler_dist_freeP13llama_sampler, symObjAddr: 0x2D6C, symBinAddr: 0xB0D8C, symSize: 0x10 }
  - { offsetInCU: 0x4CCBB, offset: 0x4CA569, size: 0x8, addend: 0x0, symName: __ZNSt3__121discrete_distributionIiE10param_type6__initEv, symObjAddr: 0x451C, symBinAddr: 0xB253C, symSize: 0x214 }
  - { offsetInCU: 0x4D330, offset: 0x4CABDE, size: 0x8, addend: 0x0, symName: __ZNSt3__121discrete_distributionIiEclINS_23mersenne_twister_engineIjLm32ELm624ELm397ELm31ELj2567483615ELm11ELj4294967295ELm7ELj2636928640ELm15ELj4022730752ELm18ELj1812433253EEEEEiRT_RKNS1_10param_typeE, symObjAddr: 0x4908, symBinAddr: 0xB288C, symSize: 0x188 }
  - { offsetInCU: 0x4D388, offset: 0x4CAC36, size: 0x8, addend: 0x0, symName: __ZNSt3__121discrete_distributionIiEclINS_23mersenne_twister_engineIjLm32ELm624ELm397ELm31ELj2567483615ELm11ELj4294967295ELm7ELj2636928640ELm15ELj4022730752ELm18ELj1812433253EEEEEiRT_RKNS1_10param_typeE, symObjAddr: 0x4908, symBinAddr: 0xB288C, symSize: 0x188 }
  - { offsetInCU: 0x4D6A4, offset: 0x4CAF52, size: 0x8, addend: 0x0, symName: __ZNKSt3__16vectorIdNS_9allocatorIdEEE20__throw_length_errorB8ue170006Ev, symObjAddr: 0x4730, symBinAddr: 0xB2750, symSize: 0x14 }
  - { offsetInCU: 0x4D95F, offset: 0x4CB20D, size: 0x8, addend: 0x0, symName: __ZNSt3__16vectorIdNS_9allocatorIdEEE13shrink_to_fitEv, symObjAddr: 0x47E0, symBinAddr: 0xB2764, symSize: 0x128 }
  - { offsetInCU: 0x4DE7F, offset: 0x4CB72D, size: 0x8, addend: 0x0, symName: __ZL26llama_sampler_softmax_namePK13llama_sampler, symObjAddr: 0x4A90, symBinAddr: 0xB2A14, symSize: 0xC }
  - { offsetInCU: 0x4DEA7, offset: 0x4CB755, size: 0x8, addend: 0x0, symName: __ZL27llama_sampler_softmax_applyP13llama_samplerP22llama_token_data_array, symObjAddr: 0x4A9C, symBinAddr: 0xB2A20, symSize: 0x160 }
  - { offsetInCU: 0x4DFDC, offset: 0x4CB88A, size: 0x8, addend: 0x0, symName: __ZL24llama_sampler_top_k_namePK13llama_sampler, symObjAddr: 0x4BFC, symBinAddr: 0xB2B80, symSize: 0xC }
  - { offsetInCU: 0x4DFEF, offset: 0x4CB89D, size: 0x8, addend: 0x0, symName: __ZL24llama_sampler_top_k_namePK13llama_sampler, symObjAddr: 0x4BFC, symBinAddr: 0xB2B80, symSize: 0xC }
  - { offsetInCU: 0x4E017, offset: 0x4CB8C5, size: 0x8, addend: 0x0, symName: __ZL25llama_sampler_top_k_applyP13llama_samplerP22llama_token_data_array, symObjAddr: 0x4C08, symBinAddr: 0xB2B8C, symSize: 0x14 }
  - { offsetInCU: 0x4E07A, offset: 0x4CB928, size: 0x8, addend: 0x0, symName: __ZL24llama_sampler_top_k_implP22llama_token_data_arrayi, symObjAddr: 0x4C70, symBinAddr: 0xB2BF4, symSize: 0x584 }
  - { offsetInCU: 0x4F7EB, offset: 0x4CD099, size: 0x8, addend: 0x0, symName: __ZL25llama_sampler_top_k_clonePK13llama_sampler, symObjAddr: 0x4C1C, symBinAddr: 0xB2BA0, symSize: 0x44 }
  - { offsetInCU: 0x4F870, offset: 0x4CD11E, size: 0x8, addend: 0x0, symName: __ZL24llama_sampler_top_k_freeP13llama_sampler, symObjAddr: 0x4C60, symBinAddr: 0xB2BE4, symSize: 0x10 }
  - { offsetInCU: 0x4FF03, offset: 0x4CD7B1, size: 0x8, addend: 0x0, symName: __ZNKSt3__16vectorIP16llama_token_dataNS_9allocatorIS2_EEE20__throw_length_errorB8ue170006Ev, symObjAddr: 0x5638, symBinAddr: 0xB35A8, symSize: 0x14 }
  - { offsetInCU: 0x4FF2D, offset: 0x4CD7DB, size: 0x8, addend: 0x0, symName: '__ZNSt3__111__introsortINS_17_ClassicAlgPolicyERZL24llama_sampler_top_k_implP22llama_token_data_arrayiE3$_1P16llama_token_dataLb0EEEvT1_S8_T0_NS_15iterator_traitsIS8_E15difference_typeEb', symObjAddr: 0x564C, symBinAddr: 0xB35BC, symSize: 0xCDC }
  - { offsetInCU: 0x4FF38, offset: 0x4CD7E6, size: 0x8, addend: 0x0, symName: __ZL24llama_sampler_top_p_namePK13llama_sampler, symObjAddr: 0x6918, symBinAddr: 0xB4888, symSize: 0xC }
  - { offsetInCU: 0x4FF60, offset: 0x4CD80E, size: 0x8, addend: 0x0, symName: __ZL25llama_sampler_top_p_applyP13llama_samplerP22llama_token_data_array, symObjAddr: 0x6924, symBinAddr: 0xB4894, symSize: 0x1CC }
  - { offsetInCU: 0x500F0, offset: 0x4CD99E, size: 0x8, addend: 0x0, symName: __ZL25llama_sampler_top_p_clonePK13llama_sampler, symObjAddr: 0x6AF0, symBinAddr: 0xB4A60, symSize: 0x54 }
  - { offsetInCU: 0x50129, offset: 0x4CD9D7, size: 0x8, addend: 0x0, symName: __ZL25llama_sampler_top_p_clonePK13llama_sampler, symObjAddr: 0x6AF0, symBinAddr: 0xB4A60, symSize: 0x54 }
  - { offsetInCU: 0x501B6, offset: 0x4CDA64, size: 0x8, addend: 0x0, symName: __ZL24llama_sampler_top_p_freeP13llama_sampler, symObjAddr: 0x6B44, symBinAddr: 0xB4AB4, symSize: 0x10 }
  - { offsetInCU: 0x501E2, offset: 0x4CDA90, size: 0x8, addend: 0x0, symName: __ZL24llama_sampler_min_p_namePK13llama_sampler, symObjAddr: 0x6B54, symBinAddr: 0xB4AC4, symSize: 0xC }
  - { offsetInCU: 0x5036B, offset: 0x4CDC19, size: 0x8, addend: 0x0, symName: __ZL25llama_sampler_min_p_applyP13llama_samplerP22llama_token_data_array, symObjAddr: 0x6B60, symBinAddr: 0xB4AD0, symSize: 0x318 }
  - { offsetInCU: 0x50DD9, offset: 0x4CE687, size: 0x8, addend: 0x0, symName: __ZL25llama_sampler_min_p_clonePK13llama_sampler, symObjAddr: 0x6E78, symBinAddr: 0xB4DE8, symSize: 0x54 }
  - { offsetInCU: 0x50E66, offset: 0x4CE714, size: 0x8, addend: 0x0, symName: __ZL24llama_sampler_min_p_freeP13llama_sampler, symObjAddr: 0x6ECC, symBinAddr: 0xB4E3C, symSize: 0x10 }
  - { offsetInCU: 0x50E92, offset: 0x4CE740, size: 0x8, addend: 0x0, symName: __ZL26llama_sampler_typical_namePK13llama_sampler, symObjAddr: 0x83D4, symBinAddr: 0xB6344, symSize: 0xC }
  - { offsetInCU: 0x5142E, offset: 0x4CECDC, size: 0x8, addend: 0x0, symName: __ZL27llama_sampler_typical_applyP13llama_samplerP22llama_token_data_array, symObjAddr: 0x83E0, symBinAddr: 0xB6350, symSize: 0x810 }
  - { offsetInCU: 0x52CB6, offset: 0x4D0564, size: 0x8, addend: 0x0, symName: __ZNKSt3__16vectorImNS_9allocatorImEEE20__throw_length_errorB8ue170006Ev, symObjAddr: 0x8C68, symBinAddr: 0xB6BC4, symSize: 0x14 }
  - { offsetInCU: 0x52CC1, offset: 0x4D056F, size: 0x8, addend: 0x0, symName: __ZNKSt3__16vectorImNS_9allocatorImEEE20__throw_length_errorB8ue170006Ev, symObjAddr: 0x8C68, symBinAddr: 0xB6BC4, symSize: 0x14 }
  - { offsetInCU: 0x52CEB, offset: 0x4D0599, size: 0x8, addend: 0x0, symName: '__ZNSt3__111__introsortINS_17_ClassicAlgPolicyERZL27llama_sampler_typical_applyP13llama_samplerP22llama_token_data_arrayE3$_3PmLb0EEEvT1_S9_T0_NS_15iterator_traitsIS9_E15difference_typeEb', symObjAddr: 0x8C7C, symBinAddr: 0xB6BD8, symSize: 0xA7C }
  - { offsetInCU: 0x52D1C, offset: 0x4D05CA, size: 0x8, addend: 0x0, symName: __ZL27llama_sampler_typical_clonePK13llama_sampler, symObjAddr: 0x8BF0, symBinAddr: 0xB6B60, symSize: 0x54 }
  - { offsetInCU: 0x52DA9, offset: 0x4D0657, size: 0x8, addend: 0x0, symName: __ZL26llama_sampler_typical_freeP13llama_sampler, symObjAddr: 0x8C44, symBinAddr: 0xB6BB4, symSize: 0x10 }
  - { offsetInCU: 0x52E94, offset: 0x4D0742, size: 0x8, addend: 0x0, symName: __ZL23llama_sampler_temp_namePK13llama_sampler, symObjAddr: 0x9C10, symBinAddr: 0xB7B6C, symSize: 0xC }
  - { offsetInCU: 0x52F12, offset: 0x4D07C0, size: 0x8, addend: 0x0, symName: __ZL24llama_sampler_temp_applyP13llama_samplerP22llama_token_data_array, symObjAddr: 0x9C1C, symBinAddr: 0xB7B78, symSize: 0x110 }
  - { offsetInCU: 0x52FDE, offset: 0x4D088C, size: 0x8, addend: 0x0, symName: __ZL24llama_sampler_temp_clonePK13llama_sampler, symObjAddr: 0x9D2C, symBinAddr: 0xB7C88, symSize: 0x4C }
  - { offsetInCU: 0x53064, offset: 0x4D0912, size: 0x8, addend: 0x0, symName: __ZL23llama_sampler_temp_freeP13llama_sampler, symObjAddr: 0x9D78, symBinAddr: 0xB7CD4, symSize: 0x10 }
  - { offsetInCU: 0x53090, offset: 0x4D093E, size: 0x8, addend: 0x0, symName: __ZL27llama_sampler_temp_ext_namePK13llama_sampler, symObjAddr: 0x9D88, symBinAddr: 0xB7CE4, symSize: 0xC }
  - { offsetInCU: 0x530B8, offset: 0x4D0966, size: 0x8, addend: 0x0, symName: __ZL28llama_sampler_temp_ext_applyP13llama_samplerP22llama_token_data_array, symObjAddr: 0x9D94, symBinAddr: 0xB7CF0, symSize: 0x4D4 }
  - { offsetInCU: 0x5341E, offset: 0x4D0CCC, size: 0x8, addend: 0x0, symName: __ZL28llama_sampler_temp_ext_clonePK13llama_sampler, symObjAddr: 0xA268, symBinAddr: 0xB81C4, symSize: 0x54 }
  - { offsetInCU: 0x534A4, offset: 0x4D0D52, size: 0x8, addend: 0x0, symName: __ZL27llama_sampler_temp_ext_freeP13llama_sampler, symObjAddr: 0xA2BC, symBinAddr: 0xB8218, symSize: 0x10 }
  - { offsetInCU: 0x534D0, offset: 0x4D0D7E, size: 0x8, addend: 0x0, symName: __ZL22llama_sampler_xtc_namePK13llama_sampler, symObjAddr: 0xA2CC, symBinAddr: 0xB8228, symSize: 0xC }
  - { offsetInCU: 0x53580, offset: 0x4D0E2E, size: 0x8, addend: 0x0, symName: __ZL22llama_sample_xtc_applyP13llama_samplerP22llama_token_data_array, symObjAddr: 0xA2D8, symBinAddr: 0xB8234, symSize: 0x290 }
  - { offsetInCU: 0x537E3, offset: 0x4D1091, size: 0x8, addend: 0x0, symName: __ZL23llama_sampler_xtc_resetP13llama_sampler, symObjAddr: 0xA568, symBinAddr: 0xB84C4, symSize: 0x64 }
  - { offsetInCU: 0x538AE, offset: 0x4D115C, size: 0x8, addend: 0x0, symName: __ZL23llama_sampler_xtc_clonePK13llama_sampler, symObjAddr: 0xA5CC, symBinAddr: 0xB8528, symSize: 0xD4 }
  - { offsetInCU: 0x53A14, offset: 0x4D12C2, size: 0x8, addend: 0x0, symName: __ZL22llama_sampler_xtc_freeP13llama_sampler, symObjAddr: 0xA6A0, symBinAddr: 0xB85FC, symSize: 0x10 }
  - { offsetInCU: 0x53A40, offset: 0x4D12EE, size: 0x8, addend: 0x0, symName: __ZL27llama_sampler_mirostat_namePK13llama_sampler, symObjAddr: 0xA6B0, symBinAddr: 0xB860C, symSize: 0xC }
  - { offsetInCU: 0x53A68, offset: 0x4D1316, size: 0x8, addend: 0x0, symName: __ZL28llama_sampler_mirostat_applyP13llama_samplerP22llama_token_data_array, symObjAddr: 0xA6BC, symBinAddr: 0xB8618, symSize: 0x384 }
  - { offsetInCU: 0x53DCE, offset: 0x4D167C, size: 0x8, addend: 0x0, symName: __ZL28llama_sampler_mirostat_resetP13llama_sampler, symObjAddr: 0xAA40, symBinAddr: 0xB899C, symSize: 0x74 }
  - { offsetInCU: 0x53DE1, offset: 0x4D168F, size: 0x8, addend: 0x0, symName: __ZL28llama_sampler_mirostat_resetP13llama_sampler, symObjAddr: 0xAA40, symBinAddr: 0xB899C, symSize: 0x74 }
  - { offsetInCU: 0x53EC1, offset: 0x4D176F, size: 0x8, addend: 0x0, symName: __ZL28llama_sampler_mirostat_clonePK13llama_sampler, symObjAddr: 0xAAB4, symBinAddr: 0xB8A10, symSize: 0xFC }
  - { offsetInCU: 0x54031, offset: 0x4D18DF, size: 0x8, addend: 0x0, symName: __ZL27llama_sampler_mirostat_freeP13llama_sampler, symObjAddr: 0xABB0, symBinAddr: 0xB8B0C, symSize: 0x10 }
  - { offsetInCU: 0x5405D, offset: 0x4D190B, size: 0x8, addend: 0x0, symName: __ZL30llama_sampler_mirostat_v2_namePK13llama_sampler, symObjAddr: 0xABC0, symBinAddr: 0xB8B1C, symSize: 0xC }
  - { offsetInCU: 0x54085, offset: 0x4D1933, size: 0x8, addend: 0x0, symName: __ZL31llama_sampler_mirostat_v2_applyP13llama_samplerP22llama_token_data_array, symObjAddr: 0xABCC, symBinAddr: 0xB8B28, symSize: 0x2CC }
  - { offsetInCU: 0x54335, offset: 0x4D1BE3, size: 0x8, addend: 0x0, symName: __ZL31llama_sampler_mirostat_v2_resetP13llama_sampler, symObjAddr: 0xAE98, symBinAddr: 0xB8DF4, symSize: 0x74 }
  - { offsetInCU: 0x54387, offset: 0x4D1C35, size: 0x8, addend: 0x0, symName: __ZL31llama_sampler_mirostat_v2_resetP13llama_sampler, symObjAddr: 0xAE98, symBinAddr: 0xB8DF4, symSize: 0x74 }
  - { offsetInCU: 0x5444F, offset: 0x4D1CFD, size: 0x8, addend: 0x0, symName: __ZL31llama_sampler_mirostat_v2_clonePK13llama_sampler, symObjAddr: 0xAF0C, symBinAddr: 0xB8E68, symSize: 0xDC }
  - { offsetInCU: 0x545B1, offset: 0x4D1E5F, size: 0x8, addend: 0x0, symName: __ZL30llama_sampler_mirostat_v2_freeP13llama_sampler, symObjAddr: 0xAFE8, symBinAddr: 0xB8F44, symSize: 0x10 }
  - { offsetInCU: 0x65BDD, offset: 0x4E348B, size: 0x8, addend: 0x0, symName: __ZNKSt3__113match_resultsIPKcNS_9allocatorINS_9sub_matchIS2_EEEEE6formatINS_20back_insert_iteratorINS_12basic_stringIcNS_11char_traitsIcEENS3_IcEEEEEEEET_SG_S2_S2_NS_15regex_constants15match_flag_typeE, symObjAddr: 0x1484C, symBinAddr: 0xB926C, symSize: 0x298 }
  - { offsetInCU: 0x6638F, offset: 0x4E3C3D, size: 0x8, addend: 0x0, symName: __ZNSt3__114regex_iteratorIPKccNS_12regex_traitsIcEEEppEv, symObjAddr: 0x14AE4, symBinAddr: 0xB9504, symSize: 0xE8 }
  - { offsetInCU: 0x6B327, offset: 0x4E8BD5, size: 0x8, addend: 0x0, symName: __ZL26llama_sampler_grammar_namePK13llama_sampler, symObjAddr: 0x17218, symBinAddr: 0xB95EC, symSize: 0xC }
  - { offsetInCU: 0x6C615, offset: 0x4E9EC3, size: 0x8, addend: 0x0, symName: __ZL26llama_sampler_grammar_namePK13llama_sampler, symObjAddr: 0x17218, symBinAddr: 0xB95EC, symSize: 0xC }
  - { offsetInCU: 0x6C63D, offset: 0x4E9EEB, size: 0x8, addend: 0x0, symName: __ZL33llama_sampler_grammar_accept_implP13llama_sampleri, symObjAddr: 0x17224, symBinAddr: 0xB95F8, symSize: 0x14 }
  - { offsetInCU: 0x6C6B2, offset: 0x4E9F60, size: 0x8, addend: 0x0, symName: __ZL27llama_sampler_grammar_applyP13llama_samplerP22llama_token_data_array, symObjAddr: 0x17238, symBinAddr: 0xB960C, symSize: 0x14 }
  - { offsetInCU: 0x6CC73, offset: 0x4EA521, size: 0x8, addend: 0x0, symName: __ZL27llama_sampler_grammar_resetP13llama_sampler, symObjAddr: 0x1724C, symBinAddr: 0xB9620, symSize: 0x294 }
  - { offsetInCU: 0x6D7E5, offset: 0x4EB093, size: 0x8, addend: 0x0, symName: __ZL28llama_sampler_penalties_namePK13llama_sampler, symObjAddr: 0x17600, symBinAddr: 0xB99C0, symSize: 0xC }
  - { offsetInCU: 0x6D8AE, offset: 0x4EB15C, size: 0x8, addend: 0x0, symName: __ZL27llama_sampler_grammar_clonePK13llama_sampler, symObjAddr: 0x174E0, symBinAddr: 0xB98B4, symSize: 0xA8 }
  - { offsetInCU: 0x6DA8D, offset: 0x4EB33B, size: 0x8, addend: 0x0, symName: __ZL26llama_sampler_grammar_freeP13llama_sampler, symObjAddr: 0x17588, symBinAddr: 0xB995C, symSize: 0x64 }
  - { offsetInCU: 0x6DD2A, offset: 0x4EB5D8, size: 0x8, addend: 0x0, symName: __ZL28llama_sampler_penalties_namePK13llama_sampler, symObjAddr: 0x17600, symBinAddr: 0xB99C0, symSize: 0xC }
  - { offsetInCU: 0x6DDEA, offset: 0x4EB698, size: 0x8, addend: 0x0, symName: __ZL30llama_sampler_penalties_acceptP13llama_sampleri, symObjAddr: 0x1760C, symBinAddr: 0xB99CC, symSize: 0x1A8 }
  - { offsetInCU: 0x6E009, offset: 0x4EB8B7, size: 0x8, addend: 0x0, symName: __ZNSt3__112__hash_tableINS_17__hash_value_typeIiiEENS_22__unordered_map_hasherIiS2_NS_4hashIiEENS_8equal_toIiEELb1EEENS_21__unordered_map_equalIiS2_S7_S5_Lb1EEENS_9allocatorIS2_EEE25__emplace_unique_key_argsIiJRKNS_21piecewise_construct_tENS_5tupleIJRKiEEENSI_IJEEEEEENS_4pairINS_15__hash_iteratorIPNS_11__hash_nodeIS2_PvEEEEbEERKT_DpOT0_, symObjAddr: 0x17B68, symBinAddr: 0xB9F28, symSize: 0x314 }
  - { offsetInCU: 0x6E6C0, offset: 0x4EBF6E, size: 0x8, addend: 0x0, symName: __ZNSt3__112__hash_tableINS_17__hash_value_typeIiiEENS_22__unordered_map_hasherIiS2_NS_4hashIiEENS_8equal_toIiEELb1EEENS_21__unordered_map_equalIiS2_S7_S5_Lb1EEENS_9allocatorIS2_EEE14__erase_uniqueIiEEmRKT_, symObjAddr: 0x18028, symBinAddr: 0xBA23C, symSize: 0x114 }
  - { offsetInCU: 0x6EAE8, offset: 0x4EC396, size: 0x8, addend: 0x0, symName: __ZL29llama_sampler_penalties_applyP13llama_samplerP22llama_token_data_array, symObjAddr: 0x177B4, symBinAddr: 0xB9B74, symSize: 0x1CC }
  - { offsetInCU: 0x6ED09, offset: 0x4EC5B7, size: 0x8, addend: 0x0, symName: __ZL29llama_sampler_penalties_resetP13llama_sampler, symObjAddr: 0x17980, symBinAddr: 0xB9D40, symSize: 0x6C }
  - { offsetInCU: 0x6F037, offset: 0x4EC8E5, size: 0x8, addend: 0x0, symName: __ZL29llama_sampler_penalties_clonePK13llama_sampler, symObjAddr: 0x179EC, symBinAddr: 0xB9DAC, symSize: 0x114 }
  - { offsetInCU: 0x6F4F9, offset: 0x4ECDA7, size: 0x8, addend: 0x0, symName: __ZNSt3__16vectorIiNS_9allocatorIiEEE18__assign_with_sizeB8ue170006IPiS5_EEvT_T0_l, symObjAddr: 0x18270, symBinAddr: 0xBA484, symSize: 0x144 }
  - { offsetInCU: 0x6FF22, offset: 0x4ED7D0, size: 0x8, addend: 0x0, symName: __ZL30llama_sampler_top_n_sigma_namePK13llama_sampler, symObjAddr: 0x183B4, symBinAddr: 0xBA5C8, symSize: 0xC }
  - { offsetInCU: 0x6FFD7, offset: 0x4ED885, size: 0x8, addend: 0x0, symName: __ZL28llama_sampler_penalties_freeP13llama_sampler, symObjAddr: 0x17B00, symBinAddr: 0xB9EC0, symSize: 0x68 }
  - { offsetInCU: 0x70B17, offset: 0x4EE3C5, size: 0x8, addend: 0x0, symName: __ZNSt3__112__hash_tableINS_17__hash_value_typeIiiEENS_22__unordered_map_hasherIiS2_NS_4hashIiEENS_8equal_toIiEELb1EEENS_21__unordered_map_equalIiS2_S7_S5_Lb1EEENS_9allocatorIS2_EEE14__erase_uniqueIiEEmRKT_, symObjAddr: 0x18028, symBinAddr: 0xBA23C, symSize: 0x114 }
  - { offsetInCU: 0x70BE0, offset: 0x4EE48E, size: 0x8, addend: 0x0, symName: __ZNSt3__112__hash_tableINS_17__hash_value_typeIiiEENS_22__unordered_map_hasherIiS2_NS_4hashIiEENS_8equal_toIiEELb1EEENS_21__unordered_map_equalIiS2_S7_S5_Lb1EEENS_9allocatorIS2_EEE6removeENS_21__hash_const_iteratorIPNS_11__hash_nodeIS2_PvEEEE, symObjAddr: 0x1813C, symBinAddr: 0xBA350, symSize: 0x134 }
  - { offsetInCU: 0x70C5A, offset: 0x4EE508, size: 0x8, addend: 0x0, symName: __ZNSt3__112__hash_tableINS_17__hash_value_typeIiiEENS_22__unordered_map_hasherIiS2_NS_4hashIiEENS_8equal_toIiEELb1EEENS_21__unordered_map_equalIiS2_S7_S5_Lb1EEENS_9allocatorIS2_EEE6removeENS_21__hash_const_iteratorIPNS_11__hash_nodeIS2_PvEEEE, symObjAddr: 0x1813C, symBinAddr: 0xBA350, symSize: 0x134 }
  - { offsetInCU: 0x70C76, offset: 0x4EE524, size: 0x8, addend: 0x0, symName: __ZNSt3__112__hash_tableINS_17__hash_value_typeIiiEENS_22__unordered_map_hasherIiS2_NS_4hashIiEENS_8equal_toIiEELb1EEENS_21__unordered_map_equalIiS2_S7_S5_Lb1EEENS_9allocatorIS2_EEE6removeENS_21__hash_const_iteratorIPNS_11__hash_nodeIS2_PvEEEE, symObjAddr: 0x1813C, symBinAddr: 0xBA350, symSize: 0x134 }
  - { offsetInCU: 0x710A3, offset: 0x4EE951, size: 0x8, addend: 0x0, symName: __ZL30llama_sampler_top_n_sigma_namePK13llama_sampler, symObjAddr: 0x183B4, symBinAddr: 0xBA5C8, symSize: 0xC }
  - { offsetInCU: 0x71125, offset: 0x4EE9D3, size: 0x8, addend: 0x0, symName: __ZL31llama_sampler_top_n_sigma_applyP13llama_samplerP22llama_token_data_array, symObjAddr: 0x183C0, symBinAddr: 0xBA5D4, symSize: 0x248 }
  - { offsetInCU: 0x713A6, offset: 0x4EEC54, size: 0x8, addend: 0x0, symName: __ZL31llama_sampler_top_n_sigma_clonePK13llama_sampler, symObjAddr: 0x18608, symBinAddr: 0xBA81C, symSize: 0x4C }
  - { offsetInCU: 0x7142C, offset: 0x4EECDA, size: 0x8, addend: 0x0, symName: __ZL30llama_sampler_top_n_sigma_freeP13llama_sampler, symObjAddr: 0x18654, symBinAddr: 0xBA868, symSize: 0x10 }
  - { offsetInCU: 0x71509, offset: 0x4EEDB7, size: 0x8, addend: 0x0, symName: __ZNSt3__112__hash_tableINS_17__hash_value_typeIiNS_6vectorIiNS_9allocatorIiEEEEEENS_22__unordered_map_hasherIiS6_NS_4hashIiEENS_8equal_toIiEELb1EEENS_21__unordered_map_equalIiS6_SB_S9_Lb1EEENS3_IS6_EEE11__do_rehashILb0EEEvm, symObjAddr: 0x18A50, symBinAddr: 0xBAC64, symSize: 0x1D0 }
  - { offsetInCU: 0x719BB, offset: 0x4EF269, size: 0x8, addend: 0x0, symName: __ZL22llama_sampler_dry_namePK13llama_sampler, symObjAddr: 0x18C20, symBinAddr: 0xBAE34, symSize: 0xC }
  - { offsetInCU: 0x71A48, offset: 0x4EF2F6, size: 0x8, addend: 0x0, symName: __ZL22llama_sampler_dry_namePK13llama_sampler, symObjAddr: 0x18C20, symBinAddr: 0xBAE34, symSize: 0xC }
  - { offsetInCU: 0x71A70, offset: 0x4EF31E, size: 0x8, addend: 0x0, symName: __ZL24llama_sampler_dry_acceptP13llama_sampleri, symObjAddr: 0x18C2C, symBinAddr: 0xBAE40, symSize: 0xDC }
  - { offsetInCU: 0x71B37, offset: 0x4EF3E5, size: 0x8, addend: 0x0, symName: __ZL23llama_sampler_dry_applyP13llama_samplerP22llama_token_data_array, symObjAddr: 0x18D08, symBinAddr: 0xBAF1C, symSize: 0x9E0 }
  - { offsetInCU: 0x72A5A, offset: 0x4F0308, size: 0x8, addend: 0x0, symName: __ZNSt3__16vectorIiNS_9allocatorIiEEE6assignEmRKi, symObjAddr: 0x19870, symBinAddr: 0xBBA84, symSize: 0x224 }
  - { offsetInCU: 0x72F9A, offset: 0x4F0848, size: 0x8, addend: 0x0, symName: __ZNSt3__112__hash_tableINS_17__hash_value_typeIiNS_6vectorIiNS_9allocatorIiEEEEEENS_22__unordered_map_hasherIiS6_NS_4hashIiEENS_8equal_toIiEELb1EEENS_21__unordered_map_equalIiS6_SB_S9_Lb1EEENS3_IS6_EEE14__assign_multiINS_21__hash_const_iteratorIPNS_11__hash_nodeIS6_PvEEEEEEvT_SO_, symObjAddr: 0x19A94, symBinAddr: 0xBBCA8, symSize: 0x158 }
  - { offsetInCU: 0x72FAC, offset: 0x4F085A, size: 0x8, addend: 0x0, symName: __ZL23llama_sampler_dry_resetP13llama_sampler, symObjAddr: 0x196E8, symBinAddr: 0xBB8FC, symSize: 0x74 }
  - { offsetInCU: 0x73387, offset: 0x4F0C35, size: 0x8, addend: 0x0, symName: __ZL23llama_sampler_dry_clonePK13llama_sampler, symObjAddr: 0x1975C, symBinAddr: 0xBB970, symSize: 0xF0 }
  - { offsetInCU: 0x736EF, offset: 0x4F0F9D, size: 0x8, addend: 0x0, symName: __ZNSt3__112__hash_tableINS_17__hash_value_typeIiNS_6vectorIiNS_9allocatorIiEEEEEENS_22__unordered_map_hasherIiS6_NS_4hashIiEENS_8equal_toIiEELb1EEENS_21__unordered_map_equalIiS6_SB_S9_Lb1EEENS3_IS6_EEE14__assign_multiINS_21__hash_const_iteratorIPNS_11__hash_nodeIS6_PvEEEEEEvT_SO_, symObjAddr: 0x19A94, symBinAddr: 0xBBCA8, symSize: 0x158 }
  - { offsetInCU: 0x73D64, offset: 0x4F1612, size: 0x8, addend: 0x0, symName: __ZNSt3__112__hash_tableINS_17__hash_value_typeIiiEENS_22__unordered_map_hasherIiS2_NS_4hashIiEENS_8equal_toIiEELb1EEENS_21__unordered_map_equalIiS2_S7_S5_Lb1EEENS_9allocatorIS2_EEE14__assign_multiINS_21__hash_const_iteratorIPNS_11__hash_nodeIS2_PvEEEEEEvT_SL_, symObjAddr: 0x19D08, symBinAddr: 0xBBF1C, symSize: 0x12C }
  - { offsetInCU: 0x7441E, offset: 0x4F1CCC, size: 0x8, addend: 0x0, symName: __ZL22llama_sampler_dry_freeP13llama_sampler, symObjAddr: 0x1984C, symBinAddr: 0xBBA60, symSize: 0x24 }
  - { offsetInCU: 0x74475, offset: 0x4F1D23, size: 0x8, addend: 0x0, symName: __ZN17llama_sampler_dryD2Ev, symObjAddr: 0x1A3A4, symBinAddr: 0xBC5B8, symSize: 0xB0 }
  - { offsetInCU: 0x750BE, offset: 0x4F296C, size: 0x8, addend: 0x0, symName: __ZNSt3__112__hash_tableINS_17__hash_value_typeIiNS_6vectorIiNS_9allocatorIiEEEEEENS_22__unordered_map_hasherIiS6_NS_4hashIiEENS_8equal_toIiEELb1EEENS_21__unordered_map_equalIiS6_SB_S9_Lb1EEENS3_IS6_EEE16__construct_nodeIJRKNS_4pairIKiS5_EEEEENS_10unique_ptrINS_11__hash_nodeIS6_PvEENS_22__hash_node_destructorINS3_ISQ_EEEEEEDpOT_, symObjAddr: 0x19C38, symBinAddr: 0xBBE4C, symSize: 0xD0 }
  - { offsetInCU: 0x75767, offset: 0x4F3015, size: 0x8, addend: 0x0, symName: __ZNSt3__112__hash_tableINS_17__hash_value_typeIiNS_6vectorIiNS_9allocatorIiEEEEEENS_22__unordered_map_hasherIiS6_NS_4hashIiEENS_8equal_toIiEELb1EEENS_21__unordered_map_equalIiS6_SB_S9_Lb1EEENS3_IS6_EEE17__deallocate_nodeEPNS_16__hash_node_baseIPNS_11__hash_nodeIS6_PvEEEE, symObjAddr: 0x19BEC, symBinAddr: 0xBBE00, symSize: 0x4C }
  - { offsetInCU: 0x75A1F, offset: 0x4F32CD, size: 0x8, addend: 0x0, symName: __ZNSt3__112__hash_tableINS_17__hash_value_typeIiNS_6vectorIiNS_9allocatorIiEEEEEENS_22__unordered_map_hasherIiS6_NS_4hashIiEENS_8equal_toIiEELb1EEENS_21__unordered_map_equalIiS6_SB_S9_Lb1EEENS3_IS6_EEE14__assign_multiINS_21__hash_const_iteratorIPNS_11__hash_nodeIS6_PvEEEEEEvT_SO_.cold.1, symObjAddr: 0x1AF90, symBinAddr: 0x1CE948, symSize: 0x3C }
  - { offsetInCU: 0x75FF1, offset: 0x4F389F, size: 0x8, addend: 0x0, symName: __ZNSt3__112__hash_tableINS_17__hash_value_typeIiiEENS_22__unordered_map_hasherIiS2_NS_4hashIiEENS_8equal_toIiEELb1EEENS_21__unordered_map_equalIiS2_S7_S5_Lb1EEENS_9allocatorIS2_EEE19__node_insert_multiEPNS_11__hash_nodeIS2_PvEE, symObjAddr: 0x19E34, symBinAddr: 0xBC048, symSize: 0x124 }
  - { offsetInCU: 0x76219, offset: 0x4F3AC7, size: 0x8, addend: 0x0, symName: __ZNSt3__112__hash_tableINS_17__hash_value_typeIiiEENS_22__unordered_map_hasherIiS2_NS_4hashIiEENS_8equal_toIiEELb1EEENS_21__unordered_map_equalIiS2_S7_S5_Lb1EEENS_9allocatorIS2_EEE27__node_insert_multi_prepareEmRS2_, symObjAddr: 0x19F58, symBinAddr: 0xBC16C, symSize: 0x27C }
  - { offsetInCU: 0x7653C, offset: 0x4F3DEA, size: 0x8, addend: 0x0, symName: __ZNSt3__112__hash_tableINS_17__hash_value_typeIiiEENS_22__unordered_map_hasherIiS2_NS_4hashIiEENS_8equal_toIiEELb1EEENS_21__unordered_map_equalIiS2_S7_S5_Lb1EEENS_9allocatorIS2_EEE11__do_rehashILb0EEEvm, symObjAddr: 0x1A1D4, symBinAddr: 0xBC3E8, symSize: 0x1D0 }
  - { offsetInCU: 0x769EE, offset: 0x4F429C, size: 0x8, addend: 0x0, symName: __ZN17llama_sampler_dryD2Ev, symObjAddr: 0x1A3A4, symBinAddr: 0xBC5B8, symSize: 0xB0 }
  - { offsetInCU: 0x76A03, offset: 0x4F42B1, size: 0x8, addend: 0x0, symName: __ZL29llama_sampler_logit_bias_namePK13llama_sampler, symObjAddr: 0x1A454, symBinAddr: 0xBC668, symSize: 0xC }
  - { offsetInCU: 0x76D6C, offset: 0x4F461A, size: 0x8, addend: 0x0, symName: __ZL30llama_sampler_logit_bias_applyP13llama_samplerP22llama_token_data_array, symObjAddr: 0x1A460, symBinAddr: 0xBC674, symSize: 0x260 }
  - { offsetInCU: 0x77368, offset: 0x4F4C16, size: 0x8, addend: 0x0, symName: __ZL30llama_sampler_logit_bias_clonePK13llama_sampler, symObjAddr: 0x1A6C0, symBinAddr: 0xBC8D4, symSize: 0x18 }
  - { offsetInCU: 0x77373, offset: 0x4F4C21, size: 0x8, addend: 0x0, symName: __ZL30llama_sampler_logit_bias_clonePK13llama_sampler, symObjAddr: 0x1A6C0, symBinAddr: 0xBC8D4, symSize: 0x18 }
  - { offsetInCU: 0x77454, offset: 0x4F4D02, size: 0x8, addend: 0x0, symName: __ZL29llama_sampler_logit_bias_freeP13llama_sampler, symObjAddr: 0x1A6D8, symBinAddr: 0xBC8EC, symSize: 0x50 }
  - { offsetInCU: 0x77740, offset: 0x4F4FEE, size: 0x8, addend: 0x0, symName: __ZL25llama_sampler_infill_namePK13llama_sampler, symObjAddr: 0x1A73C, symBinAddr: 0xBC950, symSize: 0xC }
  - { offsetInCU: 0x778B7, offset: 0x4F5165, size: 0x8, addend: 0x0, symName: __ZL26llama_sampler_infill_applyP13llama_samplerP22llama_token_data_array, symObjAddr: 0x1A748, symBinAddr: 0xBC95C, symSize: 0x7D8 }
  - { offsetInCU: 0x78136, offset: 0x4F59E4, size: 0x8, addend: 0x0, symName: __ZL26llama_sampler_infill_clonePK13llama_sampler, symObjAddr: 0x1AF20, symBinAddr: 0xBD134, symSize: 0xC }
  - { offsetInCU: 0x78149, offset: 0x4F59F7, size: 0x8, addend: 0x0, symName: __ZL26llama_sampler_infill_clonePK13llama_sampler, symObjAddr: 0x1AF20, symBinAddr: 0xBD134, symSize: 0xC }
  - { offsetInCU: 0x781D7, offset: 0x4F5A85, size: 0x8, addend: 0x0, symName: __ZL25llama_sampler_infill_freeP13llama_sampler, symObjAddr: 0x1AF2C, symBinAddr: 0xBD140, symSize: 0x50 }
  - { offsetInCU: 0x22E81, offset: 0x518C5C, size: 0x8, addend: 0x0, symName: '__ZNSt3__111__introsortINS_17_ClassicAlgPolicyERZN11llama_vocab4impl4loadER18llama_model_loaderRK6LLM_KVE3$_0PiLb0EEEvT1_SC_T0_NS_15iterator_traitsISC_E15difference_typeEb', symObjAddr: 0x11A48, symBinAddr: 0xCE198, symSize: 0xF50 }
  - { offsetInCU: 0x24F24, offset: 0x51ACFF, size: 0x8, addend: 0x0, symName: '__ZNSt3__127__insertion_sort_incompleteB8ue170006INS_17_ClassicAlgPolicyERZN11llama_vocab4impl4loadER18llama_model_loaderRK6LLM_KVE3$_0PiEEbT1_SC_T0_', symObjAddr: 0x12E00, symBinAddr: 0xCF550, symSize: 0x400 }
  - { offsetInCU: 0x29DF3, offset: 0x51FBCE, size: 0x8, addend: 0x0, symName: __ZNSt3__110__pop_heapB8ue170006INS_17_ClassicAlgPolicyEN14llm_bigram_spm10comparatorENS_11__wrap_iterIPS2_EEEEvT1_S7_RT0_NS_15iterator_traitsIS7_E15difference_typeE, symObjAddr: 0xE8C0, symBinAddr: 0xCB5D8, symSize: 0x214 }
  - { offsetInCU: 0x2A24C, offset: 0x520027, size: 0x8, addend: 0x0, symName: __ZNSt3__19__sift_upB8ue170006INS_17_ClassicAlgPolicyERN14llm_bigram_bpe10comparatorENS_11__wrap_iterIPS2_EEEEvT1_S8_OT0_NS_15iterator_traitsIS8_E15difference_typeE, symObjAddr: 0xF210, symBinAddr: 0xCBF14, symSize: 0x194 }
  - { offsetInCU: 0x2AB33, offset: 0x52090E, size: 0x8, addend: 0x0, symName: __ZNSt3__1plB8ue170006IcNS_11char_traitsIcEENS_9allocatorIcEEEENS_12basic_stringIT_T0_T1_EERKS9_PKS6_, symObjAddr: 0xCE38, symBinAddr: 0xC9DA0, symSize: 0xE8 }
  - { offsetInCU: 0x2B160, offset: 0x520F3B, size: 0x8, addend: 0x0, symName: __ZNK11llama_vocab24get_precompiled_charsmapEv, symObjAddr: 0xCF20, symBinAddr: 0xC9E88, symSize: 0x8C }
  - { offsetInCU: 0x2D158, offset: 0x522F33, size: 0x8, addend: 0x0, symName: '__ZNSt3__17__sort3B8ue170006INS_17_ClassicAlgPolicyERZN11llama_vocab4impl4loadER18llama_model_loaderRK6LLM_KVE3$_0PiEEjT1_SC_SC_T0_', symObjAddr: 0x12C80, symBinAddr: 0xCF3D0, symSize: 0x180 }
  - { offsetInCU: 0x2D804, offset: 0x5235DF, size: 0x8, addend: 0x0, symName: '__ZNSt3__124__sort5_maybe_branchlessB8ue170006INS_17_ClassicAlgPolicyERZN11llama_vocab4impl4loadER18llama_model_loaderRK6LLM_KVE3$_0PiEENS_9enable_ifIXntsr21__use_branchless_sortIT0_T1_EE5valueEvE4typeESE_SE_SE_SE_SE_SD_', symObjAddr: 0x12998, symBinAddr: 0xCF0E8, symSize: 0x2E8 }
  - { offsetInCU: 0x30C1A, offset: 0x5269F5, size: 0x8, addend: 0x0, symName: __ZNK11llama_vocab4impl14token_to_pieceEiPciib, symObjAddr: 0xA268, symBinAddr: 0xC71D0, symSize: 0x470 }
  - { offsetInCU: 0x313F6, offset: 0x5271D1, size: 0x8, addend: 0x0, symName: __ZNK11llama_vocab13byte_to_tokenEh, symObjAddr: 0x4A90, symBinAddr: 0xC1B44, symSize: 0x280 }
  - { offsetInCU: 0x368A6, offset: 0x52C681, size: 0x8, addend: 0x0, symName: __ZN11llama_vocab4impl4loadER18llama_model_loaderRK6LLM_KV, symObjAddr: 0x0, symBinAddr: 0xBD1A4, symSize: 0x4828 }
  - { offsetInCU: 0x44275, offset: 0x53A050, size: 0x8, addend: 0x0, symName: __ZNSt3__16vectorIcNS_9allocatorIcEEE18__assign_with_sizeB8ue170006IPKcS6_EEvT_T0_l, symObjAddr: 0x11224, symBinAddr: 0xCD9C8, symSize: 0x148 }
  - { offsetInCU: 0x44CA8, offset: 0x53AA83, size: 0x8, addend: 0x0, symName: __ZNSt3__16vectorIN11llama_vocab10token_dataENS_9allocatorIS2_EEE8__appendEm, symObjAddr: 0x104D8, symBinAddr: 0xCD118, symSize: 0x180 }
  - { offsetInCU: 0x45470, offset: 0x53B24B, size: 0x8, addend: 0x0, symName: __ZNKSt3__16vectorIN11llama_vocab10token_dataENS_9allocatorIS2_EEE20__throw_length_errorB8ue170006Ev, symObjAddr: 0x10658, symBinAddr: 0xCD298, symSize: 0x14 }
  - { offsetInCU: 0x454A5, offset: 0x53B280, size: 0x8, addend: 0x0, symName: __ZNSt3__112__hash_tableINS_17__hash_value_typeINS_12basic_stringIcNS_11char_traitsIcEENS_9allocatorIcEEEEiEENS_22__unordered_map_hasherIS7_S8_NS_4hashIS7_EENS_8equal_toIS7_EELb1EEENS_21__unordered_map_equalIS7_S8_SD_SB_Lb1EEENS5_IS8_EEE25__emplace_unique_key_argsIS7_JRKNS_21piecewise_construct_tENS_5tupleIJRKS7_EEENSN_IJEEEEEENS_4pairINS_15__hash_iteratorIPNS_11__hash_nodeIS8_PvEEEEbEERKT_DpOT0_, symObjAddr: 0x11380, symBinAddr: 0xCDB10, symSize: 0x490 }
  - { offsetInCU: 0x45FC3, offset: 0x53BD9E, size: 0x8, addend: 0x0, symName: __ZN11llama_vocab4impl14init_tokenizerE16llama_vocab_type, symObjAddr: 0x4918, symBinAddr: 0xC19CC, symSize: 0x178 }
  - { offsetInCU: 0x461E3, offset: 0x53BFBE, size: 0x8, addend: 0x0, symName: __ZNK11llama_vocab4impl8tokenizeERKNSt3__112basic_stringIcNS1_11char_traitsIcEENS1_9allocatorIcEEEEbb, symObjAddr: 0x4D1C, symBinAddr: 0xC1DC4, symSize: 0x185C }
  - { offsetInCU: 0x4C7D0, offset: 0x5425AB, size: 0x8, addend: 0x0, symName: __ZNSt3__14pairINS_12basic_stringIcNS_11char_traitsIcEENS_9allocatorIcEEEES6_EC2B8ue170006IRS6_S9_LPv0EEEOT_OT0_, symObjAddr: 0xD8A0, symBinAddr: 0xCA808, symSize: 0x154 }
  - { offsetInCU: 0x4D065, offset: 0x542E40, size: 0x8, addend: 0x0, symName: __ZNSt3__112__hash_tableINS_17__hash_value_typeINS_4pairINS_12basic_stringIcNS_11char_traitsIcEENS_9allocatorIcEEEES8_EEiEENS_22__unordered_map_hasherIS9_SA_N11llama_vocab4impl9pair_hashENS_8equal_toIS9_EELb1EEENS_21__unordered_map_equalIS9_SA_SG_SE_Lb1EEENS6_ISA_EEE25__emplace_unique_key_argsIS9_JS9_RiEEENS2_INS_15__hash_iteratorIPNS_11__hash_nodeISA_PvEEEEbEERKT_DpOT0_, symObjAddr: 0x1066C, symBinAddr: 0xCD2AC, symSize: 0x3C4 }
  - { offsetInCU: 0x4D983, offset: 0x54375E, size: 0x8, addend: 0x0, symName: __ZNKSt3__112__hash_tableINS_17__hash_value_typeINS_12basic_stringIcNS_11char_traitsIcEENS_9allocatorIcEEEEiEENS_22__unordered_map_hasherIS7_S8_NS_4hashIS7_EENS_8equal_toIS7_EELb1EEENS_21__unordered_map_equalIS7_S8_SD_SB_Lb1EEENS5_IS8_EEE4findIS7_EENS_21__hash_const_iteratorIPNS_11__hash_nodeIS8_PvEEEERKT_, symObjAddr: 0x13358, symBinAddr: 0xCFAA8, symSize: 0x23C }
  - { offsetInCU: 0x4DC0D, offset: 0x5439E8, size: 0x8, addend: 0x0, symName: __ZNSt3__112__hash_tableINS_17__hash_value_typeINS_12basic_stringIcNS_11char_traitsIcEENS_9allocatorIcEEEEiEENS_22__unordered_map_hasherIS7_S8_NS_4hashIS7_EENS_8equal_toIS7_EELb1EEENS_21__unordered_map_equalIS7_S8_SD_SB_Lb1EEENS5_IS8_EEE4findIS7_EENS_15__hash_iteratorIPNS_11__hash_nodeIS8_PvEEEERKT_, symObjAddr: 0x14FF4, symBinAddr: 0xD1744, symSize: 0x23C }
  - { offsetInCU: 0x4DEAF, offset: 0x543C8A, size: 0x8, addend: 0x0, symName: __ZNSt3__16vectorI10llm_symbolNS_9allocatorIS1_EEE18__assign_with_sizeB8ue170006IPS1_S6_EEvT_T0_l, symObjAddr: 0xF3B8, symBinAddr: 0xCC0A8, symSize: 0x178 }
  - { offsetInCU: 0x4DEED, offset: 0x543CC8, size: 0x8, addend: 0x0, symName: __ZNSt3__16__treeINS_12__value_typeINS_12basic_stringIcNS_11char_traitsIcEENS_9allocatorIcEEEENS_4pairIiiEEEENS_19__map_value_compareIS7_SA_NS_4lessIS7_EELb1EEENS5_ISA_EEE7destroyEPNS_11__tree_nodeISA_PvEE, symObjAddr: 0xEAE8, symBinAddr: 0xCB7EC, symSize: 0x60 }
  - { offsetInCU: 0x4DEF8, offset: 0x543CD3, size: 0x8, addend: 0x0, symName: __ZNKSt3__16vectorIN11llama_vocab10token_dataENS_9allocatorIS2_EEE20__throw_out_of_rangeB8ue170006Ev, symObjAddr: 0x13200, symBinAddr: 0xCF950, symSize: 0x14 }
  - { offsetInCU: 0x4DF22, offset: 0x543CFD, size: 0x8, addend: 0x0, symName: __ZNSt3__16vectorINS_12basic_stringIcNS_11char_traitsIcEENS_9allocatorIcEEEENS4_IS6_EEE18__construct_at_endIPKS6_SB_EEvT_T0_m, symObjAddr: 0x13214, symBinAddr: 0xCF964, symSize: 0x144 }
  - { offsetInCU: 0x4E388, offset: 0x544163, size: 0x8, addend: 0x0, symName: __ZN17llm_tokenizer_bpeC2ERK11llama_vocab, symObjAddr: 0x1359C, symBinAddr: 0xCFCEC, symSize: 0xD9C }
  - { offsetInCU: 0x560DE, offset: 0x54BEB9, size: 0x8, addend: 0x0, symName: __ZN17llm_tokenizer_ugmC2ERK11llama_vocabRKNSt3__16vectorIcNS3_9allocatorIcEEEE, symObjAddr: 0x14674, symBinAddr: 0xD0DC4, symSize: 0x2DC }
  - { offsetInCU: 0x56B68, offset: 0x54C943, size: 0x8, addend: 0x0, symName: __ZN18llm_tokenizer_rwkvC2ERK11llama_vocab, symObjAddr: 0x14C44, symBinAddr: 0xD1394, symSize: 0x150 }
  - { offsetInCU: 0x58525, offset: 0x54E300, size: 0x8, addend: 0x0, symName: __ZNK11llama_vocab4impl22tokenizer_st_partitionERNSt3__112forward_listI23fragment_buffer_variantNS1_9allocatorIS3_EEEEb, symObjAddr: 0x6DA0, symBinAddr: 0xC3D08, symSize: 0x608 }
  - { offsetInCU: 0x596FC, offset: 0x54F4D7, size: 0x8, addend: 0x0, symName: __ZNK25llm_tokenizer_bpe_session10append_bosERNSt3__16vectorIiNS0_9allocatorIiEEEE, symObjAddr: 0x77BC, symBinAddr: 0xC4724, symSize: 0x1B8 }
  - { offsetInCU: 0x59B90, offset: 0x54F96B, size: 0x8, addend: 0x0, symName: __ZN25llm_tokenizer_bpe_session8tokenizeERKNSt3__112basic_stringIcNS0_11char_traitsIcEENS0_9allocatorIcEEEERNS0_6vectorIiNS4_IiEEEE, symObjAddr: 0x7974, symBinAddr: 0xC48DC, symSize: 0x13D8 }
  - { offsetInCU: 0x59B9B, offset: 0x54F976, size: 0x8, addend: 0x0, symName: __ZN25llm_tokenizer_bpe_session6appendEiRNSt3__16vectorIiNS0_9allocatorIiEEEE, symObjAddr: 0x8D4C, symBinAddr: 0xC5CB4, symSize: 0x178 }
  - { offsetInCU: 0x59FC4, offset: 0x54FD9F, size: 0x8, addend: 0x0, symName: __ZNK25llm_tokenizer_bpe_session10append_eosERNSt3__16vectorIiNS0_9allocatorIiEEEE, symObjAddr: 0x8EC4, symBinAddr: 0xC5E2C, symSize: 0x1B8 }
  - { offsetInCU: 0x59FCF, offset: 0x54FDAA, size: 0x8, addend: 0x0, symName: __ZN25llm_tokenizer_bpe_session8tokenizeERKNSt3__112basic_stringIcNS0_11char_traitsIcEENS0_9allocatorIcEEEERNS0_6vectorIiNS4_IiEEEE, symObjAddr: 0x7974, symBinAddr: 0xC48DC, symSize: 0x13D8 }
  - { offsetInCU: 0x5F5EE, offset: 0x5553C9, size: 0x8, addend: 0x0, symName: __ZN26llm_tokenizer_rwkv_session8tokenizeERKNSt3__112basic_stringIcNS0_11char_traitsIcEENS0_9allocatorIcEEEERNS0_6vectorIiNS4_IiEEEE, symObjAddr: 0x9E38, symBinAddr: 0xC6DA0, symSize: 0x3D4 }
  - { offsetInCU: 0x6019C, offset: 0x555F77, size: 0x8, addend: 0x0, symName: __ZNSt3__112forward_listI23fragment_buffer_variantNS_9allocatorIS1_EEED1Ev, symObjAddr: 0xA20C, symBinAddr: 0xC7174, symSize: 0x5C }
  - { offsetInCU: 0x601A7, offset: 0x555F82, size: 0x8, addend: 0x0, symName: __ZNK25llm_tokenizer_bpe_session10append_eosERNSt3__16vectorIiNS0_9allocatorIiEEEE, symObjAddr: 0x8EC4, symBinAddr: 0xC5E2C, symSize: 0x1B8 }
  - { offsetInCU: 0x6063B, offset: 0x556416, size: 0x8, addend: 0x0, symName: __ZN25llm_tokenizer_bpe_sessionD1Ev, symObjAddr: 0x907C, symBinAddr: 0xC5FE4, symSize: 0x94 }
  - { offsetInCU: 0x60646, offset: 0x556421, size: 0x8, addend: 0x0, symName: __ZN25llm_tokenizer_wpm_session8tokenizeERKNSt3__112basic_stringIcNS0_11char_traitsIcEENS0_9allocatorIcEEEERNS0_6vectorIiNS4_IiEEEE, symObjAddr: 0x9110, symBinAddr: 0xC6078, symSize: 0x790 }
  - { offsetInCU: 0x621C0, offset: 0x557F9B, size: 0x8, addend: 0x0, symName: __ZN25llm_tokenizer_spm_session8tokenizeERKNSt3__112basic_stringIcNS0_11char_traitsIcEENS0_9allocatorIcEEEERNS0_6vectorIiNS4_IiEEEE, symObjAddr: 0x7414, symBinAddr: 0xC437C, symSize: 0x35C }
  - { offsetInCU: 0x62AFC, offset: 0x5588D7, size: 0x8, addend: 0x0, symName: __ZN25llm_tokenizer_spm_sessionD1Ev, symObjAddr: 0x7770, symBinAddr: 0xC46D8, symSize: 0x4C }
  - { offsetInCU: 0x62B07, offset: 0x5588E2, size: 0x8, addend: 0x0, symName: __ZNSt3__16__treeINS_12__value_typeINS_12basic_stringIcNS_11char_traitsIcEENS_9allocatorIcEEEENS_4pairIiiEEEENS_19__map_value_compareIS7_SA_NS_4lessIS7_EELb1EEENS5_ISA_EEE7destroyEPNS_11__tree_nodeISA_PvEE, symObjAddr: 0xEAE8, symBinAddr: 0xCB7EC, symSize: 0x60 }
  - { offsetInCU: 0x62D6F, offset: 0x558B4A, size: 0x8, addend: 0x0, symName: __ZN25llm_tokenizer_ugm_session8tokenizeERKNSt3__112basic_stringIcNS0_11char_traitsIcEENS0_9allocatorIcEEEERNS0_6vectorIiNS4_IiEEEE, symObjAddr: 0x98A0, symBinAddr: 0xC6808, symSize: 0x598 }
  - { offsetInCU: 0x64113, offset: 0x559EEE, size: 0x8, addend: 0x0, symName: __ZN25llm_tokenizer_spm_sessionD1Ev, symObjAddr: 0x7770, symBinAddr: 0xC46D8, symSize: 0x4C }
  - { offsetInCU: 0x644B5, offset: 0x55A290, size: 0x8, addend: 0x0, symName: __ZN25llm_tokenizer_bpe_sessionD1Ev, symObjAddr: 0x907C, symBinAddr: 0xC5FE4, symSize: 0x94 }
  - { offsetInCU: 0x64AD6, offset: 0x55A8B1, size: 0x8, addend: 0x0, symName: __ZNSt3__112forward_listI23fragment_buffer_variantNS_9allocatorIS1_EEED1Ev, symObjAddr: 0xA20C, symBinAddr: 0xC7174, symSize: 0x5C }
  - { offsetInCU: 0x64F30, offset: 0x55AD0B, size: 0x8, addend: 0x0, symName: __ZNSt3__16vectorINS_12basic_stringIcNS_11char_traitsIcEENS_9allocatorIcEEEENS4_IS6_EEE24__emplace_back_slow_pathIJEEEvDpOT_, symObjAddr: 0xFA9C, symBinAddr: 0xCC778, symSize: 0x164 }
  - { offsetInCU: 0x64F3B, offset: 0x55AD16, size: 0x8, addend: 0x0, symName: __ZNSt3__16vectorINS_12basic_stringIcNS_11char_traitsIcEENS_9allocatorIcEEEENS4_IS6_EEEC1Em.cold.1, symObjAddr: 0x153A8, symBinAddr: 0x1CE984, symSize: 0x64 }
  - { offsetInCU: 0x651D5, offset: 0x55AFB0, size: 0x8, addend: 0x0, symName: __ZNK11llama_vocab4impl24token_to_piece_for_cacheEib, symObjAddr: 0x6644, symBinAddr: 0xC3620, symSize: 0x140 }
  - { offsetInCU: 0x655CE, offset: 0x55B3A9, size: 0x8, addend: 0x0, symName: __ZNK11llama_vocab4impl8get_typeEv, symObjAddr: 0x67F8, symBinAddr: 0xC3760, symSize: 0x8 }
  - { offsetInCU: 0x655F0, offset: 0x55B3CB, size: 0x8, addend: 0x0, symName: __ZNK11llama_vocab4impl9type_nameEv, symObjAddr: 0x6800, symBinAddr: 0xC3768, symSize: 0xEC }
  - { offsetInCU: 0x663CD, offset: 0x55C1A8, size: 0x8, addend: 0x0, symName: __ZNK11llama_vocab4impl9is_normalEi, symObjAddr: 0x68EC, symBinAddr: 0xC3854, symSize: 0x58 }
  - { offsetInCU: 0x66421, offset: 0x55C1FC, size: 0x8, addend: 0x0, symName: __ZNK11llama_vocab4impl10is_unknownEi, symObjAddr: 0x6944, symBinAddr: 0xC38AC, symSize: 0x58 }
  - { offsetInCU: 0x66434, offset: 0x55C20F, size: 0x8, addend: 0x0, symName: __ZNK11llama_vocab4impl10is_unknownEi, symObjAddr: 0x6944, symBinAddr: 0xC38AC, symSize: 0x58 }
  - { offsetInCU: 0x66488, offset: 0x55C263, size: 0x8, addend: 0x0, symName: __ZNK11llama_vocab4impl10is_controlEi, symObjAddr: 0x699C, symBinAddr: 0xC3904, symSize: 0x58 }
  - { offsetInCU: 0x6649B, offset: 0x55C276, size: 0x8, addend: 0x0, symName: __ZNK11llama_vocab4impl10is_controlEi, symObjAddr: 0x699C, symBinAddr: 0xC3904, symSize: 0x58 }
  - { offsetInCU: 0x664EF, offset: 0x55C2CA, size: 0x8, addend: 0x0, symName: __ZNK11llama_vocab4impl7is_byteEi, symObjAddr: 0x69F4, symBinAddr: 0xC395C, symSize: 0x58 }
  - { offsetInCU: 0x66502, offset: 0x55C2DD, size: 0x8, addend: 0x0, symName: __ZNK11llama_vocab4impl7is_byteEi, symObjAddr: 0x69F4, symBinAddr: 0xC395C, symSize: 0x58 }
  - { offsetInCU: 0x66556, offset: 0x55C331, size: 0x8, addend: 0x0, symName: __ZNK11llama_vocab4impl15is_user_definedEi, symObjAddr: 0x6A4C, symBinAddr: 0xC39B4, symSize: 0x58 }
  - { offsetInCU: 0x66569, offset: 0x55C344, size: 0x8, addend: 0x0, symName: __ZNK11llama_vocab4impl15is_user_definedEi, symObjAddr: 0x6A4C, symBinAddr: 0xC39B4, symSize: 0x58 }
  - { offsetInCU: 0x665BD, offset: 0x55C398, size: 0x8, addend: 0x0, symName: __ZNK11llama_vocab4impl9is_unusedEi, symObjAddr: 0x6AA4, symBinAddr: 0xC3A0C, symSize: 0x58 }
  - { offsetInCU: 0x665D0, offset: 0x55C3AB, size: 0x8, addend: 0x0, symName: __ZNK11llama_vocab4impl9is_unusedEi, symObjAddr: 0x6AA4, symBinAddr: 0xC3A0C, symSize: 0x58 }
  - { offsetInCU: 0x66624, offset: 0x55C3FF, size: 0x8, addend: 0x0, symName: __ZNK11llama_vocab4impl6is_eogEi, symObjAddr: 0x6AFC, symBinAddr: 0xC3A64, symSize: 0x40 }
  - { offsetInCU: 0x66637, offset: 0x55C412, size: 0x8, addend: 0x0, symName: __ZNK11llama_vocab4impl6is_eogEi, symObjAddr: 0x6AFC, symBinAddr: 0xC3A64, symSize: 0x40 }
  - { offsetInCU: 0x666FE, offset: 0x55C4D9, size: 0x8, addend: 0x0, symName: __ZNK11llama_vocab4impl13token_to_byteEi, symObjAddr: 0x6B3C, symBinAddr: 0xC3AA4, symSize: 0x200 }
  - { offsetInCU: 0x66CF3, offset: 0x55CACE, size: 0x8, addend: 0x0, symName: __ZNK11llama_vocab4impl14token_get_attrEi, symObjAddr: 0x6D3C, symBinAddr: 0xC3CA4, symSize: 0x64 }
  - { offsetInCU: 0x66D06, offset: 0x55CAE1, size: 0x8, addend: 0x0, symName: __ZNK11llama_vocab4impl14token_get_attrEi, symObjAddr: 0x6D3C, symBinAddr: 0xC3CA4, symSize: 0x64 }
  - { offsetInCU: 0x66D80, offset: 0x55CB5B, size: 0x8, addend: 0x0, symName: __ZNK11llama_vocab4impl22tokenizer_st_partitionERNSt3__112forward_listI23fragment_buffer_variantNS1_9allocatorIS3_EEEEb, symObjAddr: 0x6DA0, symBinAddr: 0xC3D08, symSize: 0x608 }
  - { offsetInCU: 0x672D4, offset: 0x55D0AF, size: 0x8, addend: 0x0, symName: __ZNK11llama_vocab14get_token_dataEi, symObjAddr: 0x73A8, symBinAddr: 0xC4310, symSize: 0x64 }
  - { offsetInCU: 0x6736B, offset: 0x55D146, size: 0x8, addend: 0x0, symName: __ZNK11llama_vocab14token_to_pieceEiPciib, symObjAddr: 0x740C, symBinAddr: 0xC4374, symSize: 0x8 }
  - { offsetInCU: 0x67376, offset: 0x55D151, size: 0x8, addend: 0x0, symName: __ZNK11llama_vocab14token_to_pieceEiPciib, symObjAddr: 0x740C, symBinAddr: 0xC4374, symSize: 0x8 }
  - { offsetInCU: 0x673C2, offset: 0x55D19D, size: 0x8, addend: 0x0, symName: __ZNK11llama_vocab14token_to_pieceEiPciib, symObjAddr: 0x740C, symBinAddr: 0xC4374, symSize: 0x8 }
  - { offsetInCU: 0x67891, offset: 0x55D66C, size: 0x8, addend: 0x0, symName: __ZN25llm_tokenizer_spm_session14try_add_bigramEii, symObjAddr: 0xD9F4, symBinAddr: 0xCA95C, symSize: 0x220 }
  - { offsetInCU: 0x680DF, offset: 0x55DEBA, size: 0x8, addend: 0x0, symName: __ZN25llm_tokenizer_spm_session9resegmentER10llm_symbolRNSt3__16vectorIiNS2_9allocatorIiEEEE, symObjAddr: 0xDC14, symBinAddr: 0xCAB7C, symSize: 0x5F0 }
  - { offsetInCU: 0x6969B, offset: 0x55F476, size: 0x8, addend: 0x0, symName: __ZNKSt3__16vectorI10llm_symbolNS_9allocatorIS1_EEE20__throw_length_errorB8ue170006Ev, symObjAddr: 0xE204, symBinAddr: 0xCB16C, symSize: 0x14 }
  - { offsetInCU: 0x69F82, offset: 0x55FD5D, size: 0x8, addend: 0x0, symName: __ZN25llm_tokenizer_bpe_session14add_new_bigramEii, symObjAddr: 0xEB48, symBinAddr: 0xCB84C, symSize: 0x3F0 }
  - { offsetInCU: 0x6BA56, offset: 0x561831, size: 0x8, addend: 0x0, symName: __ZNSt3__16vectorI10llm_symbolNS_9allocatorIS1_EEE18__assign_with_sizeB8ue170006IPS1_S6_EEvT_T0_l, symObjAddr: 0xF3B8, symBinAddr: 0xCC0A8, symSize: 0x178 }
